ARM GAS  C:\Users\CCPOW_~1\AppData\Local\Temp\ccKp58WT.s 			page 1


   1              		.syntax unified
   2              		.cpu cortex-m0
   3              		.fpu softvfp
   4              		.eabi_attribute 20, 1
   5              		.eabi_attribute 21, 1
   6              		.eabi_attribute 23, 3
   7              		.eabi_attribute 24, 1
   8              		.eabi_attribute 25, 1
   9              		.eabi_attribute 26, 1
  10              		.eabi_attribute 30, 4
  11              		.eabi_attribute 34, 0
  12              		.eabi_attribute 18, 4
  13              		.thumb
  14              		.syntax unified
  15              		.file	"cyfitter_cfg.c"
  16              		.text
  17              	.Ltext0:
  18              		.cfi_sections	.debug_frame
  19              		.section	.psocinit,"ax",%progbits
  20              		.align	1
  21              		.global	cyfitter_cfg
  22              		.code	16
  23              		.thumb_func
  24              		.type	cyfitter_cfg, %function
  25              	cyfitter_cfg:
  26              	.LFB6:
  27              		.file 1 "Generated_Source\\PSoC4\\cyfitter_cfg.c"
   1:Generated_Source\PSoC4/cyfitter_cfg.c **** 
   2:Generated_Source\PSoC4/cyfitter_cfg.c **** /*******************************************************************************
   3:Generated_Source\PSoC4/cyfitter_cfg.c **** * File Name: cyfitter_cfg.c
   4:Generated_Source\PSoC4/cyfitter_cfg.c **** * 
   5:Generated_Source\PSoC4/cyfitter_cfg.c **** * PSoC Creator  4.1 Update 1
   6:Generated_Source\PSoC4/cyfitter_cfg.c **** *
   7:Generated_Source\PSoC4/cyfitter_cfg.c **** * Description:
   8:Generated_Source\PSoC4/cyfitter_cfg.c **** * This file contains device initialization code.
   9:Generated_Source\PSoC4/cyfitter_cfg.c **** * Except for the user defined sections in CyClockStartupError(), this file should not be modified.
  10:Generated_Source\PSoC4/cyfitter_cfg.c **** * This file is automatically generated by PSoC Creator.
  11:Generated_Source\PSoC4/cyfitter_cfg.c **** *
  12:Generated_Source\PSoC4/cyfitter_cfg.c **** ********************************************************************************
  13:Generated_Source\PSoC4/cyfitter_cfg.c **** * Copyright (c) 2007-2017 Cypress Semiconductor.  All rights reserved.
  14:Generated_Source\PSoC4/cyfitter_cfg.c **** * You may use this file only in accordance with the license, terms, conditions, 
  15:Generated_Source\PSoC4/cyfitter_cfg.c **** * disclaimers, and limitations in the end user license agreement accompanying 
  16:Generated_Source\PSoC4/cyfitter_cfg.c **** * the software package with which this file was provided.
  17:Generated_Source\PSoC4/cyfitter_cfg.c **** ********************************************************************************/
  18:Generated_Source\PSoC4/cyfitter_cfg.c **** 
  19:Generated_Source\PSoC4/cyfitter_cfg.c **** #include <string.h>
  20:Generated_Source\PSoC4/cyfitter_cfg.c **** #include "cytypes.h"
  21:Generated_Source\PSoC4/cyfitter_cfg.c **** #include "cydevice_trm.h"
  22:Generated_Source\PSoC4/cyfitter_cfg.c **** #include "cyfitter.h"
  23:Generated_Source\PSoC4/cyfitter_cfg.c **** #include "CyLib.h"
  24:Generated_Source\PSoC4/cyfitter_cfg.c **** #include "CyLFClk.h"
  25:Generated_Source\PSoC4/cyfitter_cfg.c **** #include "cyfitter_cfg.h"
  26:Generated_Source\PSoC4/cyfitter_cfg.c **** #include "cyapicallbacks.h"
  27:Generated_Source\PSoC4/cyfitter_cfg.c **** 
  28:Generated_Source\PSoC4/cyfitter_cfg.c **** 
  29:Generated_Source\PSoC4/cyfitter_cfg.c **** #if defined(__GNUC__) || defined(__ARMCC_VERSION)
  30:Generated_Source\PSoC4/cyfitter_cfg.c ****     #define CYPACKED 
ARM GAS  C:\Users\CCPOW_~1\AppData\Local\Temp\ccKp58WT.s 			page 2


  31:Generated_Source\PSoC4/cyfitter_cfg.c ****     #define CYPACKED_ATTR __attribute__ ((packed))
  32:Generated_Source\PSoC4/cyfitter_cfg.c ****     #define CYALIGNED __attribute__ ((aligned))
  33:Generated_Source\PSoC4/cyfitter_cfg.c ****     #define CY_CFG_UNUSED __attribute__ ((unused))
  34:Generated_Source\PSoC4/cyfitter_cfg.c ****     #ifndef CY_CFG_SECTION
  35:Generated_Source\PSoC4/cyfitter_cfg.c ****         #define CY_CFG_SECTION __attribute__ ((section(".psocinit")))
  36:Generated_Source\PSoC4/cyfitter_cfg.c ****     #endif
  37:Generated_Source\PSoC4/cyfitter_cfg.c ****     
  38:Generated_Source\PSoC4/cyfitter_cfg.c ****     #if defined(__ARMCC_VERSION)
  39:Generated_Source\PSoC4/cyfitter_cfg.c ****         #define CY_CFG_MEMORY_BARRIER() __memory_changed()
  40:Generated_Source\PSoC4/cyfitter_cfg.c ****     #else
  41:Generated_Source\PSoC4/cyfitter_cfg.c ****         #define CY_CFG_MEMORY_BARRIER() __sync_synchronize()
  42:Generated_Source\PSoC4/cyfitter_cfg.c ****     #endif
  43:Generated_Source\PSoC4/cyfitter_cfg.c ****     
  44:Generated_Source\PSoC4/cyfitter_cfg.c **** #elif defined(__ICCARM__)
  45:Generated_Source\PSoC4/cyfitter_cfg.c ****     #include <intrinsics.h>
  46:Generated_Source\PSoC4/cyfitter_cfg.c **** 
  47:Generated_Source\PSoC4/cyfitter_cfg.c ****     #define CYPACKED __packed
  48:Generated_Source\PSoC4/cyfitter_cfg.c ****     #define CYPACKED_ATTR 
  49:Generated_Source\PSoC4/cyfitter_cfg.c ****     #define CYALIGNED _Pragma("data_alignment=4")
  50:Generated_Source\PSoC4/cyfitter_cfg.c ****     #define CY_CFG_UNUSED _Pragma("diag_suppress=Pe177")
  51:Generated_Source\PSoC4/cyfitter_cfg.c ****     #define CY_CFG_SECTION _Pragma("location=\".psocinit\"")
  52:Generated_Source\PSoC4/cyfitter_cfg.c ****     
  53:Generated_Source\PSoC4/cyfitter_cfg.c ****     #define CY_CFG_MEMORY_BARRIER() __DMB()
  54:Generated_Source\PSoC4/cyfitter_cfg.c ****     
  55:Generated_Source\PSoC4/cyfitter_cfg.c **** #else
  56:Generated_Source\PSoC4/cyfitter_cfg.c ****     #error Unsupported toolchain
  57:Generated_Source\PSoC4/cyfitter_cfg.c **** #endif
  58:Generated_Source\PSoC4/cyfitter_cfg.c **** 
  59:Generated_Source\PSoC4/cyfitter_cfg.c **** #ifndef CYCODE
  60:Generated_Source\PSoC4/cyfitter_cfg.c ****     #define CYCODE
  61:Generated_Source\PSoC4/cyfitter_cfg.c **** #endif
  62:Generated_Source\PSoC4/cyfitter_cfg.c **** #ifndef CYDATA
  63:Generated_Source\PSoC4/cyfitter_cfg.c ****     #define CYDATA
  64:Generated_Source\PSoC4/cyfitter_cfg.c **** #endif
  65:Generated_Source\PSoC4/cyfitter_cfg.c **** #ifndef CYFAR
  66:Generated_Source\PSoC4/cyfitter_cfg.c ****     #define CYFAR
  67:Generated_Source\PSoC4/cyfitter_cfg.c **** #endif
  68:Generated_Source\PSoC4/cyfitter_cfg.c **** #ifndef CYXDATA
  69:Generated_Source\PSoC4/cyfitter_cfg.c ****     #define CYXDATA
  70:Generated_Source\PSoC4/cyfitter_cfg.c **** #endif
  71:Generated_Source\PSoC4/cyfitter_cfg.c **** 
  72:Generated_Source\PSoC4/cyfitter_cfg.c **** 
  73:Generated_Source\PSoC4/cyfitter_cfg.c **** CY_CFG_UNUSED
  74:Generated_Source\PSoC4/cyfitter_cfg.c **** static void CYMEMZERO(void *s, size_t n);
  75:Generated_Source\PSoC4/cyfitter_cfg.c **** CY_CFG_UNUSED
  76:Generated_Source\PSoC4/cyfitter_cfg.c **** static void CYMEMZERO(void *s, size_t n)
  77:Generated_Source\PSoC4/cyfitter_cfg.c **** {
  78:Generated_Source\PSoC4/cyfitter_cfg.c **** 	(void)memset(s, 0, n);
  79:Generated_Source\PSoC4/cyfitter_cfg.c **** }
  80:Generated_Source\PSoC4/cyfitter_cfg.c **** CY_CFG_UNUSED
  81:Generated_Source\PSoC4/cyfitter_cfg.c **** static void CYCONFIGCPY(void *dest, const void *src, size_t n);
  82:Generated_Source\PSoC4/cyfitter_cfg.c **** CY_CFG_UNUSED
  83:Generated_Source\PSoC4/cyfitter_cfg.c **** static void CYCONFIGCPY(void *dest, const void *src, size_t n)
  84:Generated_Source\PSoC4/cyfitter_cfg.c **** {
  85:Generated_Source\PSoC4/cyfitter_cfg.c **** 	(void)memcpy(dest, src, n);
  86:Generated_Source\PSoC4/cyfitter_cfg.c **** }
  87:Generated_Source\PSoC4/cyfitter_cfg.c **** CY_CFG_UNUSED
ARM GAS  C:\Users\CCPOW_~1\AppData\Local\Temp\ccKp58WT.s 			page 3


  88:Generated_Source\PSoC4/cyfitter_cfg.c **** static void CYCONFIGCPYCODE(void *dest, const void *src, size_t n);
  89:Generated_Source\PSoC4/cyfitter_cfg.c **** CY_CFG_UNUSED
  90:Generated_Source\PSoC4/cyfitter_cfg.c **** static void CYCONFIGCPYCODE(void *dest, const void *src, size_t n)
  91:Generated_Source\PSoC4/cyfitter_cfg.c **** {
  92:Generated_Source\PSoC4/cyfitter_cfg.c **** 	(void)memcpy(dest, src, n);
  93:Generated_Source\PSoC4/cyfitter_cfg.c **** }
  94:Generated_Source\PSoC4/cyfitter_cfg.c **** 
  95:Generated_Source\PSoC4/cyfitter_cfg.c **** 
  96:Generated_Source\PSoC4/cyfitter_cfg.c **** 
  97:Generated_Source\PSoC4/cyfitter_cfg.c **** 
  98:Generated_Source\PSoC4/cyfitter_cfg.c **** /* Clock startup error codes                                                   */
  99:Generated_Source\PSoC4/cyfitter_cfg.c **** #define CYCLOCKSTART_NO_ERROR    0u
 100:Generated_Source\PSoC4/cyfitter_cfg.c **** #define CYCLOCKSTART_XTAL_ERROR  1u
 101:Generated_Source\PSoC4/cyfitter_cfg.c **** #define CYCLOCKSTART_32KHZ_ERROR 2u
 102:Generated_Source\PSoC4/cyfitter_cfg.c **** #define CYCLOCKSTART_PLL_ERROR   3u
 103:Generated_Source\PSoC4/cyfitter_cfg.c **** #define CYCLOCKSTART_FLL_ERROR   4u
 104:Generated_Source\PSoC4/cyfitter_cfg.c **** 
 105:Generated_Source\PSoC4/cyfitter_cfg.c **** 
 106:Generated_Source\PSoC4/cyfitter_cfg.c **** #ifdef CY_NEED_CYCLOCKSTARTUPERROR
 107:Generated_Source\PSoC4/cyfitter_cfg.c **** /*******************************************************************************
 108:Generated_Source\PSoC4/cyfitter_cfg.c **** * Function Name: CyClockStartupError
 109:Generated_Source\PSoC4/cyfitter_cfg.c **** ********************************************************************************
 110:Generated_Source\PSoC4/cyfitter_cfg.c **** * Summary:
 111:Generated_Source\PSoC4/cyfitter_cfg.c **** *  If an error is encountered during clock configuration (crystal startup error,
 112:Generated_Source\PSoC4/cyfitter_cfg.c **** *  PLL lock error, etc.), the system will end up here.  Unless reimplemented by
 113:Generated_Source\PSoC4/cyfitter_cfg.c **** *  the customer, this function will stop in an infinite loop.
 114:Generated_Source\PSoC4/cyfitter_cfg.c **** *
 115:Generated_Source\PSoC4/cyfitter_cfg.c **** * Parameters:
 116:Generated_Source\PSoC4/cyfitter_cfg.c **** *   void
 117:Generated_Source\PSoC4/cyfitter_cfg.c **** *
 118:Generated_Source\PSoC4/cyfitter_cfg.c **** * Return:
 119:Generated_Source\PSoC4/cyfitter_cfg.c **** *   void
 120:Generated_Source\PSoC4/cyfitter_cfg.c **** *
 121:Generated_Source\PSoC4/cyfitter_cfg.c **** *******************************************************************************/
 122:Generated_Source\PSoC4/cyfitter_cfg.c **** CY_CFG_UNUSED
 123:Generated_Source\PSoC4/cyfitter_cfg.c **** static void CyClockStartupError(uint8 errorCode);
 124:Generated_Source\PSoC4/cyfitter_cfg.c **** CY_CFG_UNUSED
 125:Generated_Source\PSoC4/cyfitter_cfg.c **** static void CyClockStartupError(uint8 errorCode)
 126:Generated_Source\PSoC4/cyfitter_cfg.c **** {
 127:Generated_Source\PSoC4/cyfitter_cfg.c ****     /* To remove the compiler warning if errorCode not used. */
 128:Generated_Source\PSoC4/cyfitter_cfg.c **** #if defined(CY_PSOC3) && (CY_PSOC3)
 129:Generated_Source\PSoC4/cyfitter_cfg.c ****     errorCode = errorCode;
 130:Generated_Source\PSoC4/cyfitter_cfg.c **** #else
 131:Generated_Source\PSoC4/cyfitter_cfg.c ****     (void)errorCode;
 132:Generated_Source\PSoC4/cyfitter_cfg.c **** #endif /* CY_PSOC3 */
 133:Generated_Source\PSoC4/cyfitter_cfg.c **** 
 134:Generated_Source\PSoC4/cyfitter_cfg.c ****     /* If we have a clock startup error (bad MHz crystal, PLL lock, etc.),  */
 135:Generated_Source\PSoC4/cyfitter_cfg.c ****     /* we will end up here to allow the customer to implement something to  */
 136:Generated_Source\PSoC4/cyfitter_cfg.c ****     /* deal with the clock condition.                                       */
 137:Generated_Source\PSoC4/cyfitter_cfg.c **** 
 138:Generated_Source\PSoC4/cyfitter_cfg.c **** #ifdef CY_CFG_CLOCK_STARTUP_ERROR_CALLBACK
 139:Generated_Source\PSoC4/cyfitter_cfg.c ****     CY_CFG_Clock_Startup_ErrorCallback();
 140:Generated_Source\PSoC4/cyfitter_cfg.c **** #else
 141:Generated_Source\PSoC4/cyfitter_cfg.c ****     /*  If not using CY_CFG_CLOCK_STARTUP_ERROR_CALLBACK, place your clock startup code here. */
 142:Generated_Source\PSoC4/cyfitter_cfg.c ****     /* `#START CyClockStartupError` */
 143:Generated_Source\PSoC4/cyfitter_cfg.c **** 
 144:Generated_Source\PSoC4/cyfitter_cfg.c **** 
ARM GAS  C:\Users\CCPOW_~1\AppData\Local\Temp\ccKp58WT.s 			page 4


 145:Generated_Source\PSoC4/cyfitter_cfg.c **** 
 146:Generated_Source\PSoC4/cyfitter_cfg.c ****     /* `#END` */
 147:Generated_Source\PSoC4/cyfitter_cfg.c **** 
 148:Generated_Source\PSoC4/cyfitter_cfg.c ****     while(1) {}
 149:Generated_Source\PSoC4/cyfitter_cfg.c **** #endif /* CY_CFG_CLOCK_STARTUP_ERROR_CALLBACK */
 150:Generated_Source\PSoC4/cyfitter_cfg.c **** }
 151:Generated_Source\PSoC4/cyfitter_cfg.c **** #endif
 152:Generated_Source\PSoC4/cyfitter_cfg.c **** 
 153:Generated_Source\PSoC4/cyfitter_cfg.c **** #define CY_CFG_BASE_ADDR_COUNT 8u
 154:Generated_Source\PSoC4/cyfitter_cfg.c **** CYPACKED typedef struct
 155:Generated_Source\PSoC4/cyfitter_cfg.c **** {
 156:Generated_Source\PSoC4/cyfitter_cfg.c **** 	uint8 offset;
 157:Generated_Source\PSoC4/cyfitter_cfg.c **** 	uint8 value;
 158:Generated_Source\PSoC4/cyfitter_cfg.c **** } CYPACKED_ATTR cy_cfg_addrvalue_t;
 159:Generated_Source\PSoC4/cyfitter_cfg.c **** 
 160:Generated_Source\PSoC4/cyfitter_cfg.c **** 
 161:Generated_Source\PSoC4/cyfitter_cfg.c **** 
 162:Generated_Source\PSoC4/cyfitter_cfg.c **** /*******************************************************************************
 163:Generated_Source\PSoC4/cyfitter_cfg.c **** * Function Name: cfg_write_bytes32
 164:Generated_Source\PSoC4/cyfitter_cfg.c **** ********************************************************************************
 165:Generated_Source\PSoC4/cyfitter_cfg.c **** * Summary:
 166:Generated_Source\PSoC4/cyfitter_cfg.c **** *  This function is used for setting up the chip configuration areas that
 167:Generated_Source\PSoC4/cyfitter_cfg.c **** *  contain relatively sparse data.
 168:Generated_Source\PSoC4/cyfitter_cfg.c **** *
 169:Generated_Source\PSoC4/cyfitter_cfg.c **** * Parameters:
 170:Generated_Source\PSoC4/cyfitter_cfg.c **** *   void
 171:Generated_Source\PSoC4/cyfitter_cfg.c **** *
 172:Generated_Source\PSoC4/cyfitter_cfg.c **** * Return:
 173:Generated_Source\PSoC4/cyfitter_cfg.c **** *   void
 174:Generated_Source\PSoC4/cyfitter_cfg.c **** *
 175:Generated_Source\PSoC4/cyfitter_cfg.c **** *******************************************************************************/
 176:Generated_Source\PSoC4/cyfitter_cfg.c **** static void cfg_write_bytes32(const uint32 addr_table[], const cy_cfg_addrvalue_t data_table[]);
 177:Generated_Source\PSoC4/cyfitter_cfg.c **** static void cfg_write_bytes32(const uint32 addr_table[], const cy_cfg_addrvalue_t data_table[])
 178:Generated_Source\PSoC4/cyfitter_cfg.c **** {
 179:Generated_Source\PSoC4/cyfitter_cfg.c **** 	/* For 32-bit little-endian architectures */
 180:Generated_Source\PSoC4/cyfitter_cfg.c **** 	uint32 i, j = 0u;
 181:Generated_Source\PSoC4/cyfitter_cfg.c **** 	for (i = 0u; i < CY_CFG_BASE_ADDR_COUNT; i++)
 182:Generated_Source\PSoC4/cyfitter_cfg.c **** 	{
 183:Generated_Source\PSoC4/cyfitter_cfg.c **** 		uint32 baseAddr = addr_table[i];
 184:Generated_Source\PSoC4/cyfitter_cfg.c **** 		uint8 count = (uint8)baseAddr;
 185:Generated_Source\PSoC4/cyfitter_cfg.c **** 		baseAddr &= 0xFFFFFF00u;
 186:Generated_Source\PSoC4/cyfitter_cfg.c **** 		while (count != 0u)
 187:Generated_Source\PSoC4/cyfitter_cfg.c **** 		{
 188:Generated_Source\PSoC4/cyfitter_cfg.c **** 			CY_SET_REG8((void *)(baseAddr + data_table[j].offset), data_table[j].value);
 189:Generated_Source\PSoC4/cyfitter_cfg.c **** 			j++;
 190:Generated_Source\PSoC4/cyfitter_cfg.c **** 			count--;
 191:Generated_Source\PSoC4/cyfitter_cfg.c **** 		}
 192:Generated_Source\PSoC4/cyfitter_cfg.c **** 	}
 193:Generated_Source\PSoC4/cyfitter_cfg.c **** }
 194:Generated_Source\PSoC4/cyfitter_cfg.c **** 
 195:Generated_Source\PSoC4/cyfitter_cfg.c **** 
 196:Generated_Source\PSoC4/cyfitter_cfg.c **** /*******************************************************************************
 197:Generated_Source\PSoC4/cyfitter_cfg.c **** * Function Name: ClockSetup
 198:Generated_Source\PSoC4/cyfitter_cfg.c **** ********************************************************************************
 199:Generated_Source\PSoC4/cyfitter_cfg.c **** *
 200:Generated_Source\PSoC4/cyfitter_cfg.c **** * Summary:
 201:Generated_Source\PSoC4/cyfitter_cfg.c **** *   Performs the initialization of all of the clocks in the device based on the
ARM GAS  C:\Users\CCPOW_~1\AppData\Local\Temp\ccKp58WT.s 			page 5


 202:Generated_Source\PSoC4/cyfitter_cfg.c **** *   settings in the Clock tab of the DWR.  This includes enabling the requested
 203:Generated_Source\PSoC4/cyfitter_cfg.c **** *   clocks and setting the necessary dividers to produce the desired frequency. 
 204:Generated_Source\PSoC4/cyfitter_cfg.c **** *
 205:Generated_Source\PSoC4/cyfitter_cfg.c **** * Parameters:
 206:Generated_Source\PSoC4/cyfitter_cfg.c **** *   void
 207:Generated_Source\PSoC4/cyfitter_cfg.c **** *
 208:Generated_Source\PSoC4/cyfitter_cfg.c **** * Return:
 209:Generated_Source\PSoC4/cyfitter_cfg.c **** *   void
 210:Generated_Source\PSoC4/cyfitter_cfg.c **** *
 211:Generated_Source\PSoC4/cyfitter_cfg.c **** *******************************************************************************/
 212:Generated_Source\PSoC4/cyfitter_cfg.c **** static void ClockSetup(void);
 213:Generated_Source\PSoC4/cyfitter_cfg.c **** CY_CFG_SECTION
 214:Generated_Source\PSoC4/cyfitter_cfg.c **** static void ClockSetup(void)
 215:Generated_Source\PSoC4/cyfitter_cfg.c **** {
 216:Generated_Source\PSoC4/cyfitter_cfg.c **** 	/* Enable HALF_EN before trimming for the flash accelerator. */
 217:Generated_Source\PSoC4/cyfitter_cfg.c **** 	CY_SET_REG32((void CYXDATA *)(CYREG_CLK_SELECT), (CY_GET_REG32((void *)CYREG_CLK_SELECT) | 0x00040
 218:Generated_Source\PSoC4/cyfitter_cfg.c **** 
 219:Generated_Source\PSoC4/cyfitter_cfg.c **** 	/* Setup and trim IMO based on desired frequency. */
 220:Generated_Source\PSoC4/cyfitter_cfg.c **** 	CySysClkWriteImoFreq(24u);
 221:Generated_Source\PSoC4/cyfitter_cfg.c **** 
 222:Generated_Source\PSoC4/cyfitter_cfg.c **** 	/* Disable HALF_EN since it is not required at this IMO frequency. */
 223:Generated_Source\PSoC4/cyfitter_cfg.c **** 	CY_SET_REG32((void CYXDATA *)(CYREG_CLK_SELECT), (CY_GET_REG32((void *)CYREG_CLK_SELECT) & 0xFFFBF
 224:Generated_Source\PSoC4/cyfitter_cfg.c **** 	/* CYDEV_CLK_ILO_CONFIG Starting address: CYDEV_CLK_ILO_CONFIG */
 225:Generated_Source\PSoC4/cyfitter_cfg.c **** 	CY_SET_REG32((void *)(CYREG_CLK_ILO_CONFIG), 0x80000006u);
 226:Generated_Source\PSoC4/cyfitter_cfg.c **** 
 227:Generated_Source\PSoC4/cyfitter_cfg.c **** 
 228:Generated_Source\PSoC4/cyfitter_cfg.c **** 	/* CYDEV_CLK_SELECT00 Starting address: CYDEV_CLK_SELECT00 */
 229:Generated_Source\PSoC4/cyfitter_cfg.c **** 	CY_SET_REG32((void *)(CYREG_CLK_SELECT02), 0x00000010u);
 230:Generated_Source\PSoC4/cyfitter_cfg.c **** 	CY_SET_REG32((void *)(CYREG_CLK_SELECT12), 0x00000020u);
 231:Generated_Source\PSoC4/cyfitter_cfg.c **** 
 232:Generated_Source\PSoC4/cyfitter_cfg.c **** 	/* CYDEV_CLK_IMO_CONFIG Starting address: CYDEV_CLK_IMO_CONFIG */
 233:Generated_Source\PSoC4/cyfitter_cfg.c **** 	CY_SET_REG32((void *)(CYREG_CLK_IMO_CONFIG), 0x80000000u);
 234:Generated_Source\PSoC4/cyfitter_cfg.c **** 
 235:Generated_Source\PSoC4/cyfitter_cfg.c **** 	/* CYDEV_CLK_SELECT Starting address: CYDEV_CLK_SELECT */
 236:Generated_Source\PSoC4/cyfitter_cfg.c **** 	CY_SET_REG32((void *)(CYREG_CLK_SELECT), 0x00000000u);
 237:Generated_Source\PSoC4/cyfitter_cfg.c **** 
 238:Generated_Source\PSoC4/cyfitter_cfg.c **** 	/* CYDEV_CLK_DIVIDER_A00 Starting address: CYDEV_CLK_DIVIDER_A00 */
 239:Generated_Source\PSoC4/cyfitter_cfg.c **** 	CY_SET_REG32((void *)(CYREG_CLK_DIVIDER_A00), 0x80000010u);
 240:Generated_Source\PSoC4/cyfitter_cfg.c **** 
 241:Generated_Source\PSoC4/cyfitter_cfg.c **** 	/* CYDEV_CLK_DIVIDER_B00 Starting address: CYDEV_CLK_DIVIDER_B00 */
 242:Generated_Source\PSoC4/cyfitter_cfg.c **** 	CY_SET_REG32((void *)(CYREG_CLK_DIVIDER_B00), 0x80000019u);
 243:Generated_Source\PSoC4/cyfitter_cfg.c **** 
 244:Generated_Source\PSoC4/cyfitter_cfg.c **** 	(void)CyIntSetVector(9u, &CySysWdtIsr);
 245:Generated_Source\PSoC4/cyfitter_cfg.c **** 	CyIntEnable(9u);
 246:Generated_Source\PSoC4/cyfitter_cfg.c **** 	CY_SET_REG32((void *)(CYREG_WDT_CONFIG), 0x00000000u);
 247:Generated_Source\PSoC4/cyfitter_cfg.c **** }
 248:Generated_Source\PSoC4/cyfitter_cfg.c **** 
 249:Generated_Source\PSoC4/cyfitter_cfg.c **** 
 250:Generated_Source\PSoC4/cyfitter_cfg.c **** /* Analog API Functions */
 251:Generated_Source\PSoC4/cyfitter_cfg.c **** 
 252:Generated_Source\PSoC4/cyfitter_cfg.c **** 
 253:Generated_Source\PSoC4/cyfitter_cfg.c **** /*******************************************************************************
 254:Generated_Source\PSoC4/cyfitter_cfg.c **** * Function Name: AnalogSetDefault
 255:Generated_Source\PSoC4/cyfitter_cfg.c **** ********************************************************************************
 256:Generated_Source\PSoC4/cyfitter_cfg.c **** *
 257:Generated_Source\PSoC4/cyfitter_cfg.c **** * Summary:
 258:Generated_Source\PSoC4/cyfitter_cfg.c **** *  Sets up the analog portions of the chip to default values based on chip
ARM GAS  C:\Users\CCPOW_~1\AppData\Local\Temp\ccKp58WT.s 			page 6


 259:Generated_Source\PSoC4/cyfitter_cfg.c **** *  configuration options from the project.
 260:Generated_Source\PSoC4/cyfitter_cfg.c **** *
 261:Generated_Source\PSoC4/cyfitter_cfg.c **** * Parameters:
 262:Generated_Source\PSoC4/cyfitter_cfg.c **** *  void
 263:Generated_Source\PSoC4/cyfitter_cfg.c **** *
 264:Generated_Source\PSoC4/cyfitter_cfg.c **** * Return:
 265:Generated_Source\PSoC4/cyfitter_cfg.c **** *  void
 266:Generated_Source\PSoC4/cyfitter_cfg.c **** *
 267:Generated_Source\PSoC4/cyfitter_cfg.c **** *******************************************************************************/
 268:Generated_Source\PSoC4/cyfitter_cfg.c **** static void AnalogSetDefault(void);
 269:Generated_Source\PSoC4/cyfitter_cfg.c **** static void AnalogSetDefault(void)
 270:Generated_Source\PSoC4/cyfitter_cfg.c **** {
 271:Generated_Source\PSoC4/cyfitter_cfg.c **** }
 272:Generated_Source\PSoC4/cyfitter_cfg.c **** 
 273:Generated_Source\PSoC4/cyfitter_cfg.c **** 
 274:Generated_Source\PSoC4/cyfitter_cfg.c **** 
 275:Generated_Source\PSoC4/cyfitter_cfg.c **** 
 276:Generated_Source\PSoC4/cyfitter_cfg.c **** /*******************************************************************************
 277:Generated_Source\PSoC4/cyfitter_cfg.c **** * Function Name: cyfitter_cfg
 278:Generated_Source\PSoC4/cyfitter_cfg.c **** ********************************************************************************
 279:Generated_Source\PSoC4/cyfitter_cfg.c **** * Summary:
 280:Generated_Source\PSoC4/cyfitter_cfg.c **** *  This function is called by the start-up code for the selected device. It
 281:Generated_Source\PSoC4/cyfitter_cfg.c **** *  performs all of the necessary device configuration based on the design
 282:Generated_Source\PSoC4/cyfitter_cfg.c **** *  settings.  This includes settings from the Design Wide Resources (DWR) such
 283:Generated_Source\PSoC4/cyfitter_cfg.c **** *  as Clocks and Pins as well as any component configuration that is necessary.
 284:Generated_Source\PSoC4/cyfitter_cfg.c **** *
 285:Generated_Source\PSoC4/cyfitter_cfg.c **** * Parameters:
 286:Generated_Source\PSoC4/cyfitter_cfg.c **** *   void
 287:Generated_Source\PSoC4/cyfitter_cfg.c **** *
 288:Generated_Source\PSoC4/cyfitter_cfg.c **** * Return:
 289:Generated_Source\PSoC4/cyfitter_cfg.c **** *   void
 290:Generated_Source\PSoC4/cyfitter_cfg.c **** *
 291:Generated_Source\PSoC4/cyfitter_cfg.c **** *******************************************************************************/
 292:Generated_Source\PSoC4/cyfitter_cfg.c **** CY_CFG_SECTION
 293:Generated_Source\PSoC4/cyfitter_cfg.c **** void cyfitter_cfg(void)
 294:Generated_Source\PSoC4/cyfitter_cfg.c **** {
  28              		.loc 1 294 0
  29              		.cfi_startproc
  30              		@ args = 0, pretend = 0, frame = 8
  31              		@ frame_needed = 0, uses_anonymous_args = 0
  32 0000 F7B5     		push	{r0, r1, r2, r4, r5, r6, r7, lr}
  33              		.cfi_def_cfa_offset 32
  34              		.cfi_offset 0, -32
  35              		.cfi_offset 1, -28
  36              		.cfi_offset 2, -24
  37              		.cfi_offset 4, -20
  38              		.cfi_offset 5, -16
  39              		.cfi_offset 6, -12
  40              		.cfi_offset 7, -8
  41              		.cfi_offset 14, -4
 295:Generated_Source\PSoC4/cyfitter_cfg.c **** 	/* Disable interrupts by default. Let user enable if/when they want. */
 296:Generated_Source\PSoC4/cyfitter_cfg.c **** 	CyGlobalIntDisable;
  42              		.loc 1 296 0
  43              		.syntax divided
  44              	@ 296 "Generated_Source\PSoC4\cyfitter_cfg.c" 1
  45 0002 72B6     		CPSID   i
  46              	@ 0 "" 2
ARM GAS  C:\Users\CCPOW_~1\AppData\Local\Temp\ccKp58WT.s 			page 7


 297:Generated_Source\PSoC4/cyfitter_cfg.c **** 
 298:Generated_Source\PSoC4/cyfitter_cfg.c **** 	/* Enable the clock in the interrupt controller for the routed interrupts */
 299:Generated_Source\PSoC4/cyfitter_cfg.c **** 	CY_SET_REG8((void *)CYREG_UDB_UDBIF_INT_CLK_CTL, 0x01u);
  47              		.loc 1 299 0
  48              		.thumb
  49              		.syntax unified
  50 0004 0122     		movs	r2, #1
  51 0006 0025     		movs	r5, #0
  52              	.LBB22:
  53              	.LBB23:
 300:Generated_Source\PSoC4/cyfitter_cfg.c **** 	{
 301:Generated_Source\PSoC4/cyfitter_cfg.c **** 		static const uint32 CYCODE cy_cfg_addr_table[] = {
 302:Generated_Source\PSoC4/cyfitter_cfg.c **** 			0x400F0003u, /* Base address: 0x400F0000 Count: 3 */
 303:Generated_Source\PSoC4/cyfitter_cfg.c **** 			0x400F3014u, /* Base address: 0x400F3000 Count: 20 */
 304:Generated_Source\PSoC4/cyfitter_cfg.c **** 			0x400F3131u, /* Base address: 0x400F3100 Count: 49 */
 305:Generated_Source\PSoC4/cyfitter_cfg.c **** 			0x400F326Au, /* Base address: 0x400F3200 Count: 106 */
 306:Generated_Source\PSoC4/cyfitter_cfg.c **** 			0x400F3353u, /* Base address: 0x400F3300 Count: 83 */
 307:Generated_Source\PSoC4/cyfitter_cfg.c **** 			0x400F4009u, /* Base address: 0x400F4000 Count: 9 */
 308:Generated_Source\PSoC4/cyfitter_cfg.c **** 			0x400F410Bu, /* Base address: 0x400F4100 Count: 11 */
 309:Generated_Source\PSoC4/cyfitter_cfg.c **** 			0x400F6002u, /* Base address: 0x400F6000 Count: 2 */
 310:Generated_Source\PSoC4/cyfitter_cfg.c **** 		};
 311:Generated_Source\PSoC4/cyfitter_cfg.c **** 
 312:Generated_Source\PSoC4/cyfitter_cfg.c **** 		static const cy_cfg_addrvalue_t CYCODE cy_cfg_data_table[] = {
 313:Generated_Source\PSoC4/cyfitter_cfg.c **** 			{0x80u, 0x38u},
 314:Generated_Source\PSoC4/cyfitter_cfg.c **** 			{0x81u, 0x72u},
 315:Generated_Source\PSoC4/cyfitter_cfg.c **** 			{0x82u, 0x0Fu},
 316:Generated_Source\PSoC4/cyfitter_cfg.c **** 			{0x02u, 0x02u},
 317:Generated_Source\PSoC4/cyfitter_cfg.c **** 			{0x04u, 0x08u},
 318:Generated_Source\PSoC4/cyfitter_cfg.c **** 			{0x12u, 0x01u},
 319:Generated_Source\PSoC4/cyfitter_cfg.c **** 			{0x15u, 0x01u},
 320:Generated_Source\PSoC4/cyfitter_cfg.c **** 			{0x1Eu, 0x04u},
 321:Generated_Source\PSoC4/cyfitter_cfg.c **** 			{0x26u, 0x01u},
 322:Generated_Source\PSoC4/cyfitter_cfg.c **** 			{0x2Eu, 0x02u},
 323:Generated_Source\PSoC4/cyfitter_cfg.c **** 			{0x30u, 0x01u},
 324:Generated_Source\PSoC4/cyfitter_cfg.c **** 			{0x32u, 0x08u},
 325:Generated_Source\PSoC4/cyfitter_cfg.c **** 			{0x33u, 0x01u},
 326:Generated_Source\PSoC4/cyfitter_cfg.c **** 			{0x34u, 0x02u},
 327:Generated_Source\PSoC4/cyfitter_cfg.c **** 			{0x36u, 0x04u},
 328:Generated_Source\PSoC4/cyfitter_cfg.c **** 			{0x3Eu, 0x15u},
 329:Generated_Source\PSoC4/cyfitter_cfg.c **** 			{0x3Fu, 0x04u},
 330:Generated_Source\PSoC4/cyfitter_cfg.c **** 			{0x54u, 0x18u},
 331:Generated_Source\PSoC4/cyfitter_cfg.c **** 			{0x56u, 0x04u},
 332:Generated_Source\PSoC4/cyfitter_cfg.c **** 			{0x58u, 0x04u},
 333:Generated_Source\PSoC4/cyfitter_cfg.c **** 			{0x59u, 0x04u},
 334:Generated_Source\PSoC4/cyfitter_cfg.c **** 			{0x5Bu, 0x04u},
 335:Generated_Source\PSoC4/cyfitter_cfg.c **** 			{0x5Fu, 0x01u},
 336:Generated_Source\PSoC4/cyfitter_cfg.c **** 			{0x00u, 0x08u},
 337:Generated_Source\PSoC4/cyfitter_cfg.c **** 			{0x02u, 0x80u},
 338:Generated_Source\PSoC4/cyfitter_cfg.c **** 			{0x04u, 0x88u},
 339:Generated_Source\PSoC4/cyfitter_cfg.c **** 			{0x05u, 0x21u},
 340:Generated_Source\PSoC4/cyfitter_cfg.c **** 			{0x09u, 0x02u},
 341:Generated_Source\PSoC4/cyfitter_cfg.c **** 			{0x0Bu, 0x01u},
 342:Generated_Source\PSoC4/cyfitter_cfg.c **** 			{0x0Du, 0x28u},
 343:Generated_Source\PSoC4/cyfitter_cfg.c **** 			{0x0Eu, 0x02u},
 344:Generated_Source\PSoC4/cyfitter_cfg.c **** 			{0x10u, 0x22u},
 345:Generated_Source\PSoC4/cyfitter_cfg.c **** 			{0x14u, 0x02u},
 346:Generated_Source\PSoC4/cyfitter_cfg.c **** 			{0x17u, 0x2Au},
ARM GAS  C:\Users\CCPOW_~1\AppData\Local\Temp\ccKp58WT.s 			page 8


 347:Generated_Source\PSoC4/cyfitter_cfg.c **** 			{0x18u, 0x04u},
 348:Generated_Source\PSoC4/cyfitter_cfg.c **** 			{0x19u, 0x88u},
 349:Generated_Source\PSoC4/cyfitter_cfg.c **** 			{0x1Bu, 0x01u},
 350:Generated_Source\PSoC4/cyfitter_cfg.c **** 			{0x1Du, 0x2Au},
 351:Generated_Source\PSoC4/cyfitter_cfg.c **** 			{0x1Eu, 0x01u},
 352:Generated_Source\PSoC4/cyfitter_cfg.c **** 			{0x1Fu, 0x28u},
 353:Generated_Source\PSoC4/cyfitter_cfg.c **** 			{0x23u, 0x10u},
 354:Generated_Source\PSoC4/cyfitter_cfg.c **** 			{0x26u, 0xA7u},
 355:Generated_Source\PSoC4/cyfitter_cfg.c **** 			{0x27u, 0x04u},
 356:Generated_Source\PSoC4/cyfitter_cfg.c **** 			{0x2Du, 0x80u},
 357:Generated_Source\PSoC4/cyfitter_cfg.c **** 			{0x2Fu, 0x28u},
 358:Generated_Source\PSoC4/cyfitter_cfg.c **** 			{0x32u, 0x04u},
 359:Generated_Source\PSoC4/cyfitter_cfg.c **** 			{0x36u, 0x2Au},
 360:Generated_Source\PSoC4/cyfitter_cfg.c **** 			{0x3Eu, 0xAAu},
 361:Generated_Source\PSoC4/cyfitter_cfg.c **** 			{0x45u, 0x22u},
 362:Generated_Source\PSoC4/cyfitter_cfg.c **** 			{0x47u, 0x44u},
 363:Generated_Source\PSoC4/cyfitter_cfg.c **** 			{0x4Cu, 0x24u},
 364:Generated_Source\PSoC4/cyfitter_cfg.c **** 			{0x4Eu, 0x08u},
 365:Generated_Source\PSoC4/cyfitter_cfg.c **** 			{0x54u, 0x02u},
 366:Generated_Source\PSoC4/cyfitter_cfg.c **** 			{0x5Au, 0x01u},
 367:Generated_Source\PSoC4/cyfitter_cfg.c **** 			{0x5Eu, 0x08u},
 368:Generated_Source\PSoC4/cyfitter_cfg.c **** 			{0x60u, 0x04u},
 369:Generated_Source\PSoC4/cyfitter_cfg.c **** 			{0x63u, 0x42u},
 370:Generated_Source\PSoC4/cyfitter_cfg.c **** 			{0x6Eu, 0x14u},
 371:Generated_Source\PSoC4/cyfitter_cfg.c **** 			{0x6Fu, 0x01u},
 372:Generated_Source\PSoC4/cyfitter_cfg.c **** 			{0x76u, 0x2Au},
 373:Generated_Source\PSoC4/cyfitter_cfg.c **** 			{0x77u, 0x2Au},
 374:Generated_Source\PSoC4/cyfitter_cfg.c **** 			{0x87u, 0x40u},
 375:Generated_Source\PSoC4/cyfitter_cfg.c **** 			{0xC0u, 0xFCu},
 376:Generated_Source\PSoC4/cyfitter_cfg.c **** 			{0xC2u, 0xE9u},
 377:Generated_Source\PSoC4/cyfitter_cfg.c **** 			{0xC4u, 0xF5u},
 378:Generated_Source\PSoC4/cyfitter_cfg.c **** 			{0xCAu, 0x70u},
 379:Generated_Source\PSoC4/cyfitter_cfg.c **** 			{0xCCu, 0xE2u},
 380:Generated_Source\PSoC4/cyfitter_cfg.c **** 			{0xCEu, 0xF0u},
 381:Generated_Source\PSoC4/cyfitter_cfg.c **** 			{0xD0u, 0xF0u},
 382:Generated_Source\PSoC4/cyfitter_cfg.c **** 			{0xD2u, 0x20u},
 383:Generated_Source\PSoC4/cyfitter_cfg.c **** 			{0xD6u, 0x41u},
 384:Generated_Source\PSoC4/cyfitter_cfg.c **** 			{0xD8u, 0x0Du},
 385:Generated_Source\PSoC4/cyfitter_cfg.c **** 			{0x00u, 0x13u},
 386:Generated_Source\PSoC4/cyfitter_cfg.c **** 			{0x01u, 0x01u},
 387:Generated_Source\PSoC4/cyfitter_cfg.c **** 			{0x02u, 0x04u},
 388:Generated_Source\PSoC4/cyfitter_cfg.c **** 			{0x03u, 0x0Au},
 389:Generated_Source\PSoC4/cyfitter_cfg.c **** 			{0x04u, 0x0Au},
 390:Generated_Source\PSoC4/cyfitter_cfg.c **** 			{0x05u, 0x13u},
 391:Generated_Source\PSoC4/cyfitter_cfg.c **** 			{0x06u, 0x14u},
 392:Generated_Source\PSoC4/cyfitter_cfg.c **** 			{0x08u, 0x13u},
 393:Generated_Source\PSoC4/cyfitter_cfg.c **** 			{0x09u, 0x13u},
 394:Generated_Source\PSoC4/cyfitter_cfg.c **** 			{0x0Au, 0x0Cu},
 395:Generated_Source\PSoC4/cyfitter_cfg.c **** 			{0x0Cu, 0x40u},
 396:Generated_Source\PSoC4/cyfitter_cfg.c **** 			{0x0Eu, 0x20u},
 397:Generated_Source\PSoC4/cyfitter_cfg.c **** 			{0x11u, 0x10u},
 398:Generated_Source\PSoC4/cyfitter_cfg.c **** 			{0x12u, 0x08u},
 399:Generated_Source\PSoC4/cyfitter_cfg.c **** 			{0x14u, 0x20u},
 400:Generated_Source\PSoC4/cyfitter_cfg.c **** 			{0x16u, 0xC0u},
 401:Generated_Source\PSoC4/cyfitter_cfg.c **** 			{0x18u, 0xE0u},
 402:Generated_Source\PSoC4/cyfitter_cfg.c **** 			{0x19u, 0x02u},
 403:Generated_Source\PSoC4/cyfitter_cfg.c **** 			{0x1Bu, 0x09u},
ARM GAS  C:\Users\CCPOW_~1\AppData\Local\Temp\ccKp58WT.s 			page 9


 404:Generated_Source\PSoC4/cyfitter_cfg.c **** 			{0x1Cu, 0x03u},
 405:Generated_Source\PSoC4/cyfitter_cfg.c **** 			{0x1Eu, 0x14u},
 406:Generated_Source\PSoC4/cyfitter_cfg.c **** 			{0x26u, 0x15u},
 407:Generated_Source\PSoC4/cyfitter_cfg.c **** 			{0x28u, 0x80u},
 408:Generated_Source\PSoC4/cyfitter_cfg.c **** 			{0x2Au, 0x20u},
 409:Generated_Source\PSoC4/cyfitter_cfg.c **** 			{0x2Bu, 0x04u},
 410:Generated_Source\PSoC4/cyfitter_cfg.c **** 			{0x2Cu, 0xE0u},
 411:Generated_Source\PSoC4/cyfitter_cfg.c **** 			{0x30u, 0x10u},
 412:Generated_Source\PSoC4/cyfitter_cfg.c **** 			{0x31u, 0x0Cu},
 413:Generated_Source\PSoC4/cyfitter_cfg.c **** 			{0x32u, 0xE0u},
 414:Generated_Source\PSoC4/cyfitter_cfg.c **** 			{0x33u, 0x03u},
 415:Generated_Source\PSoC4/cyfitter_cfg.c **** 			{0x34u, 0x0Fu},
 416:Generated_Source\PSoC4/cyfitter_cfg.c **** 			{0x35u, 0x10u},
 417:Generated_Source\PSoC4/cyfitter_cfg.c **** 			{0x3Au, 0x20u},
 418:Generated_Source\PSoC4/cyfitter_cfg.c **** 			{0x3Eu, 0x01u},
 419:Generated_Source\PSoC4/cyfitter_cfg.c **** 			{0x3Fu, 0x01u},
 420:Generated_Source\PSoC4/cyfitter_cfg.c **** 			{0x40u, 0x36u},
 421:Generated_Source\PSoC4/cyfitter_cfg.c **** 			{0x41u, 0x01u},
 422:Generated_Source\PSoC4/cyfitter_cfg.c **** 			{0x46u, 0xB0u},
 423:Generated_Source\PSoC4/cyfitter_cfg.c **** 			{0x47u, 0xCEu},
 424:Generated_Source\PSoC4/cyfitter_cfg.c **** 			{0x48u, 0x38u},
 425:Generated_Source\PSoC4/cyfitter_cfg.c **** 			{0x49u, 0xFFu},
 426:Generated_Source\PSoC4/cyfitter_cfg.c **** 			{0x4Au, 0xFFu},
 427:Generated_Source\PSoC4/cyfitter_cfg.c **** 			{0x4Bu, 0xFFu},
 428:Generated_Source\PSoC4/cyfitter_cfg.c **** 			{0x4Eu, 0xF0u},
 429:Generated_Source\PSoC4/cyfitter_cfg.c **** 			{0x4Fu, 0x44u},
 430:Generated_Source\PSoC4/cyfitter_cfg.c **** 			{0x50u, 0x0Cu},
 431:Generated_Source\PSoC4/cyfitter_cfg.c **** 			{0x54u, 0x01u},
 432:Generated_Source\PSoC4/cyfitter_cfg.c **** 			{0x56u, 0x04u},
 433:Generated_Source\PSoC4/cyfitter_cfg.c **** 			{0x58u, 0x04u},
 434:Generated_Source\PSoC4/cyfitter_cfg.c **** 			{0x59u, 0x04u},
 435:Generated_Source\PSoC4/cyfitter_cfg.c **** 			{0x5Au, 0x04u},
 436:Generated_Source\PSoC4/cyfitter_cfg.c **** 			{0x5Bu, 0x04u},
 437:Generated_Source\PSoC4/cyfitter_cfg.c **** 			{0x5Fu, 0x01u},
 438:Generated_Source\PSoC4/cyfitter_cfg.c **** 			{0x66u, 0xC0u},
 439:Generated_Source\PSoC4/cyfitter_cfg.c **** 			{0x6Au, 0x40u},
 440:Generated_Source\PSoC4/cyfitter_cfg.c **** 			{0x6Bu, 0x02u},
 441:Generated_Source\PSoC4/cyfitter_cfg.c **** 			{0x84u, 0x14u},
 442:Generated_Source\PSoC4/cyfitter_cfg.c **** 			{0x85u, 0x80u},
 443:Generated_Source\PSoC4/cyfitter_cfg.c **** 			{0x87u, 0x13u},
 444:Generated_Source\PSoC4/cyfitter_cfg.c **** 			{0x8Cu, 0x0Cu},
 445:Generated_Source\PSoC4/cyfitter_cfg.c **** 			{0x8Eu, 0x71u},
 446:Generated_Source\PSoC4/cyfitter_cfg.c **** 			{0x8Fu, 0x0Cu},
 447:Generated_Source\PSoC4/cyfitter_cfg.c **** 			{0x90u, 0x09u},
 448:Generated_Source\PSoC4/cyfitter_cfg.c **** 			{0x92u, 0xD0u},
 449:Generated_Source\PSoC4/cyfitter_cfg.c **** 			{0x94u, 0xDCu},
 450:Generated_Source\PSoC4/cyfitter_cfg.c **** 			{0x95u, 0x2Cu},
 451:Generated_Source\PSoC4/cyfitter_cfg.c **** 			{0x96u, 0x22u},
 452:Generated_Source\PSoC4/cyfitter_cfg.c **** 			{0x97u, 0x43u},
 453:Generated_Source\PSoC4/cyfitter_cfg.c **** 			{0x99u, 0x71u},
 454:Generated_Source\PSoC4/cyfitter_cfg.c **** 			{0x9Au, 0x03u},
 455:Generated_Source\PSoC4/cyfitter_cfg.c **** 			{0x9Bu, 0x06u},
 456:Generated_Source\PSoC4/cyfitter_cfg.c **** 			{0x9Fu, 0x08u},
 457:Generated_Source\PSoC4/cyfitter_cfg.c **** 			{0xA0u, 0x10u},
 458:Generated_Source\PSoC4/cyfitter_cfg.c **** 			{0xA1u, 0x71u},
 459:Generated_Source\PSoC4/cyfitter_cfg.c **** 			{0xA2u, 0x40u},
 460:Generated_Source\PSoC4/cyfitter_cfg.c **** 			{0xA3u, 0x0Eu},
ARM GAS  C:\Users\CCPOW_~1\AppData\Local\Temp\ccKp58WT.s 			page 10


 461:Generated_Source\PSoC4/cyfitter_cfg.c **** 			{0xA4u, 0x10u},
 462:Generated_Source\PSoC4/cyfitter_cfg.c **** 			{0xA6u, 0xACu},
 463:Generated_Source\PSoC4/cyfitter_cfg.c **** 			{0xAAu, 0x20u},
 464:Generated_Source\PSoC4/cyfitter_cfg.c **** 			{0xB0u, 0xE0u},
 465:Generated_Source\PSoC4/cyfitter_cfg.c **** 			{0xB1u, 0xC0u},
 466:Generated_Source\PSoC4/cyfitter_cfg.c **** 			{0xB3u, 0x0Fu},
 467:Generated_Source\PSoC4/cyfitter_cfg.c **** 			{0xB4u, 0x1Fu},
 468:Generated_Source\PSoC4/cyfitter_cfg.c **** 			{0xB5u, 0x30u},
 469:Generated_Source\PSoC4/cyfitter_cfg.c **** 			{0xB9u, 0x22u},
 470:Generated_Source\PSoC4/cyfitter_cfg.c **** 			{0xBAu, 0x02u},
 471:Generated_Source\PSoC4/cyfitter_cfg.c **** 			{0xBBu, 0x08u},
 472:Generated_Source\PSoC4/cyfitter_cfg.c **** 			{0xBFu, 0x10u},
 473:Generated_Source\PSoC4/cyfitter_cfg.c **** 			{0xC0u, 0x02u},
 474:Generated_Source\PSoC4/cyfitter_cfg.c **** 			{0xC5u, 0x40u},
 475:Generated_Source\PSoC4/cyfitter_cfg.c **** 			{0xC9u, 0xFFu},
 476:Generated_Source\PSoC4/cyfitter_cfg.c **** 			{0xCAu, 0x07u},
 477:Generated_Source\PSoC4/cyfitter_cfg.c **** 			{0xCBu, 0xFFu},
 478:Generated_Source\PSoC4/cyfitter_cfg.c **** 			{0xCCu, 0x40u},
 479:Generated_Source\PSoC4/cyfitter_cfg.c **** 			{0xCDu, 0x20u},
 480:Generated_Source\PSoC4/cyfitter_cfg.c **** 			{0xCEu, 0xF0u},
 481:Generated_Source\PSoC4/cyfitter_cfg.c **** 			{0xCFu, 0x05u},
 482:Generated_Source\PSoC4/cyfitter_cfg.c **** 			{0xD0u, 0x08u},
 483:Generated_Source\PSoC4/cyfitter_cfg.c **** 			{0xD8u, 0x04u},
 484:Generated_Source\PSoC4/cyfitter_cfg.c **** 			{0xD9u, 0x04u},
 485:Generated_Source\PSoC4/cyfitter_cfg.c **** 			{0xDAu, 0x04u},
 486:Generated_Source\PSoC4/cyfitter_cfg.c **** 			{0xDFu, 0x01u},
 487:Generated_Source\PSoC4/cyfitter_cfg.c **** 			{0xE0u, 0x40u},
 488:Generated_Source\PSoC4/cyfitter_cfg.c **** 			{0xE1u, 0xA8u},
 489:Generated_Source\PSoC4/cyfitter_cfg.c **** 			{0xE2u, 0x40u},
 490:Generated_Source\PSoC4/cyfitter_cfg.c **** 			{0xE3u, 0x20u},
 491:Generated_Source\PSoC4/cyfitter_cfg.c **** 			{0x00u, 0x40u},
 492:Generated_Source\PSoC4/cyfitter_cfg.c **** 			{0x02u, 0x10u},
 493:Generated_Source\PSoC4/cyfitter_cfg.c **** 			{0x04u, 0x80u},
 494:Generated_Source\PSoC4/cyfitter_cfg.c **** 			{0x05u, 0x15u},
 495:Generated_Source\PSoC4/cyfitter_cfg.c **** 			{0x09u, 0x08u},
 496:Generated_Source\PSoC4/cyfitter_cfg.c **** 			{0x0Au, 0x08u},
 497:Generated_Source\PSoC4/cyfitter_cfg.c **** 			{0x0Bu, 0x40u},
 498:Generated_Source\PSoC4/cyfitter_cfg.c **** 			{0x0Eu, 0x24u},
 499:Generated_Source\PSoC4/cyfitter_cfg.c **** 			{0x0Fu, 0x42u},
 500:Generated_Source\PSoC4/cyfitter_cfg.c **** 			{0x10u, 0x90u},
 501:Generated_Source\PSoC4/cyfitter_cfg.c **** 			{0x12u, 0x08u},
 502:Generated_Source\PSoC4/cyfitter_cfg.c **** 			{0x15u, 0x88u},
 503:Generated_Source\PSoC4/cyfitter_cfg.c **** 			{0x17u, 0x10u},
 504:Generated_Source\PSoC4/cyfitter_cfg.c **** 			{0x18u, 0x40u},
 505:Generated_Source\PSoC4/cyfitter_cfg.c **** 			{0x19u, 0x01u},
 506:Generated_Source\PSoC4/cyfitter_cfg.c **** 			{0x1Au, 0x08u},
 507:Generated_Source\PSoC4/cyfitter_cfg.c **** 			{0x1Du, 0x10u},
 508:Generated_Source\PSoC4/cyfitter_cfg.c **** 			{0x1Eu, 0x60u},
 509:Generated_Source\PSoC4/cyfitter_cfg.c **** 			{0x1Fu, 0x04u},
 510:Generated_Source\PSoC4/cyfitter_cfg.c **** 			{0x20u, 0x04u},
 511:Generated_Source\PSoC4/cyfitter_cfg.c **** 			{0x21u, 0x08u},
 512:Generated_Source\PSoC4/cyfitter_cfg.c **** 			{0x23u, 0x40u},
 513:Generated_Source\PSoC4/cyfitter_cfg.c **** 			{0x24u, 0x08u},
 514:Generated_Source\PSoC4/cyfitter_cfg.c **** 			{0x27u, 0x50u},
 515:Generated_Source\PSoC4/cyfitter_cfg.c **** 			{0x29u, 0x01u},
 516:Generated_Source\PSoC4/cyfitter_cfg.c **** 			{0x2Au, 0x02u},
 517:Generated_Source\PSoC4/cyfitter_cfg.c **** 			{0x2Du, 0x20u},
ARM GAS  C:\Users\CCPOW_~1\AppData\Local\Temp\ccKp58WT.s 			page 11


 518:Generated_Source\PSoC4/cyfitter_cfg.c **** 			{0x2Fu, 0x04u},
 519:Generated_Source\PSoC4/cyfitter_cfg.c **** 			{0x30u, 0x90u},
 520:Generated_Source\PSoC4/cyfitter_cfg.c **** 			{0x31u, 0x1Cu},
 521:Generated_Source\PSoC4/cyfitter_cfg.c **** 			{0x37u, 0x11u},
 522:Generated_Source\PSoC4/cyfitter_cfg.c **** 			{0x39u, 0x08u},
 523:Generated_Source\PSoC4/cyfitter_cfg.c **** 			{0x3Bu, 0x40u},
 524:Generated_Source\PSoC4/cyfitter_cfg.c **** 			{0x3Eu, 0x14u},
 525:Generated_Source\PSoC4/cyfitter_cfg.c **** 			{0x3Fu, 0x01u},
 526:Generated_Source\PSoC4/cyfitter_cfg.c **** 			{0x40u, 0x04u},
 527:Generated_Source\PSoC4/cyfitter_cfg.c **** 			{0x44u, 0x10u},
 528:Generated_Source\PSoC4/cyfitter_cfg.c **** 			{0x46u, 0x02u},
 529:Generated_Source\PSoC4/cyfitter_cfg.c **** 			{0x48u, 0x80u},
 530:Generated_Source\PSoC4/cyfitter_cfg.c **** 			{0x4Eu, 0x08u},
 531:Generated_Source\PSoC4/cyfitter_cfg.c **** 			{0x51u, 0x04u},
 532:Generated_Source\PSoC4/cyfitter_cfg.c **** 			{0x52u, 0x08u},
 533:Generated_Source\PSoC4/cyfitter_cfg.c **** 			{0x54u, 0x04u},
 534:Generated_Source\PSoC4/cyfitter_cfg.c **** 			{0x56u, 0x10u},
 535:Generated_Source\PSoC4/cyfitter_cfg.c **** 			{0x57u, 0x01u},
 536:Generated_Source\PSoC4/cyfitter_cfg.c **** 			{0x5Du, 0x18u},
 537:Generated_Source\PSoC4/cyfitter_cfg.c **** 			{0x5Eu, 0x40u},
 538:Generated_Source\PSoC4/cyfitter_cfg.c **** 			{0x5Fu, 0x02u},
 539:Generated_Source\PSoC4/cyfitter_cfg.c **** 			{0x67u, 0x80u},
 540:Generated_Source\PSoC4/cyfitter_cfg.c **** 			{0x80u, 0x40u},
 541:Generated_Source\PSoC4/cyfitter_cfg.c **** 			{0x82u, 0x80u},
 542:Generated_Source\PSoC4/cyfitter_cfg.c **** 			{0x83u, 0x01u},
 543:Generated_Source\PSoC4/cyfitter_cfg.c **** 			{0x84u, 0x04u},
 544:Generated_Source\PSoC4/cyfitter_cfg.c **** 			{0x87u, 0x42u},
 545:Generated_Source\PSoC4/cyfitter_cfg.c **** 			{0x89u, 0x10u},
 546:Generated_Source\PSoC4/cyfitter_cfg.c **** 			{0x8Bu, 0x01u},
 547:Generated_Source\PSoC4/cyfitter_cfg.c **** 			{0x91u, 0x80u},
 548:Generated_Source\PSoC4/cyfitter_cfg.c **** 			{0x92u, 0x14u},
 549:Generated_Source\PSoC4/cyfitter_cfg.c **** 			{0x94u, 0x88u},
 550:Generated_Source\PSoC4/cyfitter_cfg.c **** 			{0x96u, 0x08u},
 551:Generated_Source\PSoC4/cyfitter_cfg.c **** 			{0x97u, 0x01u},
 552:Generated_Source\PSoC4/cyfitter_cfg.c **** 			{0x99u, 0x08u},
 553:Generated_Source\PSoC4/cyfitter_cfg.c **** 			{0x9Bu, 0x01u},
 554:Generated_Source\PSoC4/cyfitter_cfg.c **** 			{0x9Du, 0x20u},
 555:Generated_Source\PSoC4/cyfitter_cfg.c **** 			{0x9Eu, 0x80u},
 556:Generated_Source\PSoC4/cyfitter_cfg.c **** 			{0x9Fu, 0x50u},
 557:Generated_Source\PSoC4/cyfitter_cfg.c **** 			{0xA4u, 0x04u},
 558:Generated_Source\PSoC4/cyfitter_cfg.c **** 			{0xB3u, 0x10u},
 559:Generated_Source\PSoC4/cyfitter_cfg.c **** 			{0xB4u, 0x02u},
 560:Generated_Source\PSoC4/cyfitter_cfg.c **** 			{0xB5u, 0x41u},
 561:Generated_Source\PSoC4/cyfitter_cfg.c **** 			{0xB6u, 0x30u},
 562:Generated_Source\PSoC4/cyfitter_cfg.c **** 			{0xB7u, 0x10u},
 563:Generated_Source\PSoC4/cyfitter_cfg.c **** 			{0xC0u, 0xF5u},
 564:Generated_Source\PSoC4/cyfitter_cfg.c **** 			{0xC2u, 0xFEu},
 565:Generated_Source\PSoC4/cyfitter_cfg.c **** 			{0xC4u, 0xEEu},
 566:Generated_Source\PSoC4/cyfitter_cfg.c **** 			{0xCAu, 0x21u},
 567:Generated_Source\PSoC4/cyfitter_cfg.c **** 			{0xCCu, 0xAEu},
 568:Generated_Source\PSoC4/cyfitter_cfg.c **** 			{0xCEu, 0xEAu},
 569:Generated_Source\PSoC4/cyfitter_cfg.c **** 			{0xD0u, 0x54u},
 570:Generated_Source\PSoC4/cyfitter_cfg.c **** 			{0xD2u, 0x20u},
 571:Generated_Source\PSoC4/cyfitter_cfg.c **** 			{0xD6u, 0xF0u},
 572:Generated_Source\PSoC4/cyfitter_cfg.c **** 			{0xD8u, 0x80u},
 573:Generated_Source\PSoC4/cyfitter_cfg.c **** 			{0xEEu, 0x80u},
 574:Generated_Source\PSoC4/cyfitter_cfg.c **** 			{0x0Eu, 0x08u},
ARM GAS  C:\Users\CCPOW_~1\AppData\Local\Temp\ccKp58WT.s 			page 12


 575:Generated_Source\PSoC4/cyfitter_cfg.c **** 			{0x6Du, 0x01u},
 576:Generated_Source\PSoC4/cyfitter_cfg.c **** 			{0x6Eu, 0x08u},
 577:Generated_Source\PSoC4/cyfitter_cfg.c **** 			{0x73u, 0x02u},
 578:Generated_Source\PSoC4/cyfitter_cfg.c **** 			{0x87u, 0x02u},
 579:Generated_Source\PSoC4/cyfitter_cfg.c **** 			{0xC2u, 0x80u},
 580:Generated_Source\PSoC4/cyfitter_cfg.c **** 			{0xDAu, 0x80u},
 581:Generated_Source\PSoC4/cyfitter_cfg.c **** 			{0xDCu, 0x60u},
 582:Generated_Source\PSoC4/cyfitter_cfg.c **** 			{0xE6u, 0x40u},
 583:Generated_Source\PSoC4/cyfitter_cfg.c **** 			{0x0Au, 0x10u},
 584:Generated_Source\PSoC4/cyfitter_cfg.c **** 			{0x5Fu, 0x08u},
 585:Generated_Source\PSoC4/cyfitter_cfg.c **** 			{0x82u, 0x10u},
 586:Generated_Source\PSoC4/cyfitter_cfg.c **** 			{0x85u, 0x01u},
 587:Generated_Source\PSoC4/cyfitter_cfg.c **** 			{0x95u, 0x01u},
 588:Generated_Source\PSoC4/cyfitter_cfg.c **** 			{0x9Bu, 0x08u},
 589:Generated_Source\PSoC4/cyfitter_cfg.c **** 			{0xB3u, 0x08u},
 590:Generated_Source\PSoC4/cyfitter_cfg.c **** 			{0xC2u, 0x10u},
 591:Generated_Source\PSoC4/cyfitter_cfg.c **** 			{0xD6u, 0x80u},
 592:Generated_Source\PSoC4/cyfitter_cfg.c **** 			{0xE0u, 0x80u},
 593:Generated_Source\PSoC4/cyfitter_cfg.c **** 			{0xE2u, 0x10u},
 594:Generated_Source\PSoC4/cyfitter_cfg.c **** 			{0x10u, 0x01u},
 595:Generated_Source\PSoC4/cyfitter_cfg.c **** 			{0x11u, 0x01u},
 596:Generated_Source\PSoC4/cyfitter_cfg.c **** 		};
 597:Generated_Source\PSoC4/cyfitter_cfg.c **** 
 598:Generated_Source\PSoC4/cyfitter_cfg.c **** 
 599:Generated_Source\PSoC4/cyfitter_cfg.c **** 
 600:Generated_Source\PSoC4/cyfitter_cfg.c **** 		CYPACKED typedef struct {
 601:Generated_Source\PSoC4/cyfitter_cfg.c **** 			void CYFAR *address;
 602:Generated_Source\PSoC4/cyfitter_cfg.c **** 			uint16 size;
 603:Generated_Source\PSoC4/cyfitter_cfg.c **** 		} CYPACKED_ATTR cfg_memset_t;
 604:Generated_Source\PSoC4/cyfitter_cfg.c **** 
 605:Generated_Source\PSoC4/cyfitter_cfg.c **** 
 606:Generated_Source\PSoC4/cyfitter_cfg.c **** 		CYPACKED typedef struct {
 607:Generated_Source\PSoC4/cyfitter_cfg.c **** 			void CYFAR *dest;
 608:Generated_Source\PSoC4/cyfitter_cfg.c **** 			const void CYCODE *src;
 609:Generated_Source\PSoC4/cyfitter_cfg.c **** 			uint16 size;
 610:Generated_Source\PSoC4/cyfitter_cfg.c **** 		} CYPACKED_ATTR cfg_memcpy_t;
 611:Generated_Source\PSoC4/cyfitter_cfg.c **** 
 612:Generated_Source\PSoC4/cyfitter_cfg.c **** 		static const cfg_memset_t CYCODE cfg_memset_list[] = {
 613:Generated_Source\PSoC4/cyfitter_cfg.c **** 			/* address, size */
 614:Generated_Source\PSoC4/cyfitter_cfg.c **** 			{(void CYFAR *)(CYDEV_UDB_P0_U0_BASE), 128u},
 615:Generated_Source\PSoC4/cyfitter_cfg.c **** 			{(void CYFAR *)(CYDEV_UDB_P0_ROUTE_BASE), 768u},
 616:Generated_Source\PSoC4/cyfitter_cfg.c **** 			{(void CYFAR *)(CYDEV_UDB_DSI0_BASE), 1024u},
 617:Generated_Source\PSoC4/cyfitter_cfg.c **** 		};
 618:Generated_Source\PSoC4/cyfitter_cfg.c **** 
 619:Generated_Source\PSoC4/cyfitter_cfg.c **** 		/* UDB_0_1_1_CONFIG Address: CYDEV_UDB_P0_U1_BASE Size (bytes): 128 */
 620:Generated_Source\PSoC4/cyfitter_cfg.c **** 		static const uint8 CYCODE BS_UDB_0_1_1_CONFIG_VAL[] = {
 621:Generated_Source\PSoC4/cyfitter_cfg.c **** 			0x82u, 0x10u, 0x00u, 0x00u, 0x00u, 0x08u, 0xF3u, 0x00u, 0xC3u, 0x18u, 0x00u, 0x00u, 0x41u, 0x04u
 622:Generated_Source\PSoC4/cyfitter_cfg.c **** 			0x00u, 0x3Cu, 0x00u, 0x42u, 0x0Fu, 0x00u, 0xF0u, 0x03u, 0xF3u, 0x7Fu, 0x0Cu, 0x00u, 0x1Cu, 0x00u
 623:Generated_Source\PSoC4/cyfitter_cfg.c **** 			0x08u, 0x00u, 0x00u, 0x00u, 0x04u, 0x67u, 0x00u, 0x18u, 0x0Cu, 0x3Cu, 0x00u, 0x41u, 0xFFu, 0x00u
 624:Generated_Source\PSoC4/cyfitter_cfg.c **** 			0x1Cu, 0x1Fu, 0x2Cu, 0x20u, 0x0Fu, 0x00u, 0xC0u, 0x40u, 0x00u, 0x80u, 0x28u, 0x22u, 0x00u, 0x00u
 625:Generated_Source\PSoC4/cyfitter_cfg.c **** 			0x26u, 0x03u, 0x04u, 0x00u, 0x01u, 0x0Cu, 0x00u, 0xE0u, 0x21u, 0xFFu, 0xFFu, 0xFFu, 0x62u, 0xA0u
 626:Generated_Source\PSoC4/cyfitter_cfg.c **** 			0x0Cu, 0x00u, 0x00u, 0x00u, 0x00u, 0x00u, 0x02u, 0x12u, 0x04u, 0x04u, 0x04u, 0x04u, 0x00u, 0x00u
 627:Generated_Source\PSoC4/cyfitter_cfg.c **** 			0x00u, 0x00u, 0x00u, 0x00u, 0x00u, 0x00u, 0x40u, 0x02u, 0x00u, 0x10u, 0x30u, 0x10u, 0x00u, 0x10u
 628:Generated_Source\PSoC4/cyfitter_cfg.c **** 			0x00u, 0x00u, 0x00u, 0x00u, 0x00u, 0x00u, 0x00u, 0x00u, 0x00u, 0x00u, 0x00u, 0x00u, 0x00u, 0x00u
 629:Generated_Source\PSoC4/cyfitter_cfg.c **** 
 630:Generated_Source\PSoC4/cyfitter_cfg.c **** 		static const cfg_memcpy_t CYCODE cfg_memcpy_list [] = {
 631:Generated_Source\PSoC4/cyfitter_cfg.c **** 			/* dest, src, size */
ARM GAS  C:\Users\CCPOW_~1\AppData\Local\Temp\ccKp58WT.s 			page 13


 632:Generated_Source\PSoC4/cyfitter_cfg.c **** 			{(void CYFAR *)(CYDEV_UDB_P0_U1_BASE), BS_UDB_0_1_1_CONFIG_VAL, 128u},
 633:Generated_Source\PSoC4/cyfitter_cfg.c **** 		};
 634:Generated_Source\PSoC4/cyfitter_cfg.c **** 
 635:Generated_Source\PSoC4/cyfitter_cfg.c **** 		uint8 CYDATA i;
 636:Generated_Source\PSoC4/cyfitter_cfg.c **** 
 637:Generated_Source\PSoC4/cyfitter_cfg.c **** 		/* Zero out critical memory blocks before beginning configuration */
 638:Generated_Source\PSoC4/cyfitter_cfg.c **** 		for (i = 0u; i < (sizeof(cfg_memset_list)/sizeof(cfg_memset_list[0])); i++)
 639:Generated_Source\PSoC4/cyfitter_cfg.c **** 		{
 640:Generated_Source\PSoC4/cyfitter_cfg.c **** 			const cfg_memset_t CYCODE * CYDATA ms = &cfg_memset_list[i];
 641:Generated_Source\PSoC4/cyfitter_cfg.c **** 			CYMEMZERO(ms->address, (size_t)(uint32)(ms->size));
  54              		.loc 1 641 0
  55 0008 0626     		movs	r6, #6
  56              	.LBE23:
  57              	.LBE22:
 299:Generated_Source\PSoC4/cyfitter_cfg.c **** 	{
  58              		.loc 1 299 0
  59 000a 5C4B     		ldr	r3, .L10
  60 000c 1A70     		strb	r2, [r3]
  61              	.LVL0:
  62              	.L2:
  63              	.LBB35:
  64              	.LBB28:
  65              		.loc 1 641 0 discriminator 3
  66 000e 3300     		movs	r3, r6
  67 0010 6B43     		muls	r3, r5
  68 0012 5B4C     		ldr	r4, .L10+4
  69 0014 0135     		adds	r5, r5, #1
  70              	.LVL1:
  71 0016 E018     		adds	r0, r4, r3
  72 0018 1F5D     		ldrb	r7, [r3, r4]
  73 001a 4378     		ldrb	r3, [r0, #1]
  74 001c 4279     		ldrb	r2, [r0, #5]
  75 001e 0179     		ldrb	r1, [r0, #4]
  76 0020 1B02     		lsls	r3, r3, #8
  77 0022 3B43     		orrs	r3, r7
  78 0024 1202     		lsls	r2, r2, #8
  79              	.LBB24:
  80              	.LBB25:
  78:Generated_Source\PSoC4/cyfitter_cfg.c **** }
  81              		.loc 1 78 0 discriminator 3
  82 0026 0A43     		orrs	r2, r1
  83              	.LBE25:
  84              	.LBE24:
  85              		.loc 1 641 0 discriminator 3
  86 0028 1900     		movs	r1, r3
  87 002a 8378     		ldrb	r3, [r0, #2]
  88 002c C078     		ldrb	r0, [r0, #3]
  89 002e 1B04     		lsls	r3, r3, #16
  90 0030 0B43     		orrs	r3, r1
  91 0032 0006     		lsls	r0, r0, #24
  92 0034 1843     		orrs	r0, r3
  93              	.LBB27:
  94              	.LBB26:
  78:Generated_Source\PSoC4/cyfitter_cfg.c **** }
  95              		.loc 1 78 0 discriminator 3
  96 0036 0021     		movs	r1, #0
  97 0038 FFF7FEFF 		bl	memset
ARM GAS  C:\Users\CCPOW_~1\AppData\Local\Temp\ccKp58WT.s 			page 14


  98              	.LVL2:
  99              	.LBE26:
 100              	.LBE27:
 101              	.LBE28:
 638:Generated_Source\PSoC4/cyfitter_cfg.c **** 		{
 102              		.loc 1 638 0 discriminator 3
 103 003c 032D     		cmp	r5, #3
 104 003e E6D1     		bne	.L2
 105              	.LVL3:
 106              	.LBB29:
 107              	.LBB30:
 108              	.LBB31:
  92:Generated_Source\PSoC4/cyfitter_cfg.c **** }
 109              		.loc 1 92 0 discriminator 3
 110 0040 2100     		movs	r1, r4
 111 0042 0024     		movs	r4, #0
 112 0044 8022     		movs	r2, #128
 113 0046 1231     		adds	r1, r1, #18
 114 0048 4E48     		ldr	r0, .L10+8
 115 004a FFF7FEFF 		bl	memcpy
 116              	.LVL4:
 117 004e 2200     		movs	r2, r4
 118 0050 4D4E     		ldr	r6, .L10+12
 119              	.LBE31:
 120              	.LBE30:
 121              	.LBE29:
 122              	.LBB32:
 123              	.LBB33:
 124              	.LBB34:
 185:Generated_Source\PSoC4/cyfitter_cfg.c **** 		while (count != 0u)
 125              		.loc 1 185 0 discriminator 3
 126 0052 FC35     		adds	r5, r5, #252
 127              	.LVL5:
 128 0054 3436     		adds	r6, r6, #52
 129              	.LVL6:
 130              	.L5:
 183:Generated_Source\PSoC4/cyfitter_cfg.c **** 		uint8 count = (uint8)baseAddr;
 131              		.loc 1 183 0
 132 0056 4C4B     		ldr	r3, .L10+12
 133 0058 1433     		adds	r3, r3, #20
 134 005a E158     		ldr	r1, [r4, r3]
 135              	.LVL7:
 136 005c 5300     		lsls	r3, r2, #1
 185:Generated_Source\PSoC4/cyfitter_cfg.c **** 		while (count != 0u)
 137              		.loc 1 185 0
 138 005e 0F00     		movs	r7, r1
 139 0060 2940     		ands	r1, r5
 140              	.LVL8:
 141 0062 5218     		adds	r2, r2, r1
 142              	.LVL9:
 143 0064 5100     		lsls	r1, r2, #1
 144 0066 0131     		adds	r1, r1, #1
 145 0068 0133     		adds	r3, r3, #1
 146 006a 7118     		adds	r1, r6, r1
 147 006c AF43     		bics	r7, r5
 148              	.LVL10:
 149 006e F318     		adds	r3, r6, r3
ARM GAS  C:\Users\CCPOW_~1\AppData\Local\Temp\ccKp58WT.s 			page 15


 150 0070 0191     		str	r1, [sp, #4]
 151              	.LVL11:
 152              	.L3:
 186:Generated_Source\PSoC4/cyfitter_cfg.c **** 		{
 153              		.loc 1 186 0
 154 0072 0199     		ldr	r1, [sp, #4]
 155 0074 8B42     		cmp	r3, r1
 156 0076 07D0     		beq	.L9
 188:Generated_Source\PSoC4/cyfitter_cfg.c **** 			j++;
 157              		.loc 1 188 0
 158 0078 591E     		subs	r1, r3, #1
 159 007a 0978     		ldrb	r1, [r1]
 160 007c C919     		adds	r1, r1, r7
 161 007e 0800     		movs	r0, r1
 162 0080 1978     		ldrb	r1, [r3]
 163 0082 0233     		adds	r3, r3, #2
 164 0084 0170     		strb	r1, [r0]
 165 0086 F4E7     		b	.L3
 166              	.L9:
 167              	.LVL12:
 168 0088 0434     		adds	r4, r4, #4
 169              	.LBE34:
 181:Generated_Source\PSoC4/cyfitter_cfg.c **** 	{
 170              		.loc 1 181 0
 171 008a 202C     		cmp	r4, #32
 172 008c E3D1     		bne	.L5
 173              	.LVL13:
 174              	.LBE33:
 175              	.LBE32:
 642:Generated_Source\PSoC4/cyfitter_cfg.c **** 		}
 643:Generated_Source\PSoC4/cyfitter_cfg.c **** 
 644:Generated_Source\PSoC4/cyfitter_cfg.c **** 		/* Copy device configuration data into registers */
 645:Generated_Source\PSoC4/cyfitter_cfg.c **** 		for (i = 0u; i < (sizeof(cfg_memcpy_list)/sizeof(cfg_memcpy_list[0])); i++)
 646:Generated_Source\PSoC4/cyfitter_cfg.c **** 		{
 647:Generated_Source\PSoC4/cyfitter_cfg.c **** 			const cfg_memcpy_t CYCODE * CYDATA mc = &cfg_memcpy_list[i];
 648:Generated_Source\PSoC4/cyfitter_cfg.c **** 			void * CYDATA destPtr = mc->dest;
 649:Generated_Source\PSoC4/cyfitter_cfg.c **** 			const void CYCODE * CYDATA srcPtr = mc->src;
 650:Generated_Source\PSoC4/cyfitter_cfg.c **** 			uint16 CYDATA numBytes = mc->size;
 651:Generated_Source\PSoC4/cyfitter_cfg.c **** 			CYCONFIGCPYCODE(destPtr, srcPtr, numBytes);
 652:Generated_Source\PSoC4/cyfitter_cfg.c **** 		}
 653:Generated_Source\PSoC4/cyfitter_cfg.c **** 
 654:Generated_Source\PSoC4/cyfitter_cfg.c **** 		cfg_write_bytes32(cy_cfg_addr_table, cy_cfg_data_table);
 655:Generated_Source\PSoC4/cyfitter_cfg.c **** 
 656:Generated_Source\PSoC4/cyfitter_cfg.c **** 		/* Perform normal device configuration. Order is not critical for these items. */
 657:Generated_Source\PSoC4/cyfitter_cfg.c **** 		CY_SET_REG16((void *)(CYREG_UDB_BCTL0_DRV), 0x0100u);
 176              		.loc 1 657 0
 177 008e 8022     		movs	r2, #128
 178 0090 3E4B     		ldr	r3, .L10+16
 179 0092 5200     		lsls	r2, r2, #1
 180 0094 1A80     		strh	r2, [r3]
 658:Generated_Source\PSoC4/cyfitter_cfg.c **** 		CY_SET_REG8((void *)(CYREG_UDB_BCTL0_DRV + 0x2u), 0x01u);
 181              		.loc 1 658 0
 182 0096 3E4B     		ldr	r3, .L10+20
 183 0098 FF3A     		subs	r2, r2, #255
 184 009a 1A70     		strb	r2, [r3]
 659:Generated_Source\PSoC4/cyfitter_cfg.c **** 
 660:Generated_Source\PSoC4/cyfitter_cfg.c **** 		/* HSIOM Starting address: CYDEV_HSIOM_BASE */
ARM GAS  C:\Users\CCPOW_~1\AppData\Local\Temp\ccKp58WT.s 			page 16


 661:Generated_Source\PSoC4/cyfitter_cfg.c **** 		CY_SET_REG32((void *)(CYREG_HSIOM_PORT_SEL1), 0x00300000u);
 185              		.loc 1 661 0
 186 009c C022     		movs	r2, #192
 187 009e 3D4B     		ldr	r3, .L10+24
 188 00a0 9203     		lsls	r2, r2, #14
 189 00a2 1A60     		str	r2, [r3]
 662:Generated_Source\PSoC4/cyfitter_cfg.c **** 		CY_SET_REG32((void *)(CYREG_HSIOM_PORT_SEL3), 0x0000EE00u);
 190              		.loc 1 662 0
 191 00a4 EE22     		movs	r2, #238
 192 00a6 3C4B     		ldr	r3, .L10+28
 193 00a8 1202     		lsls	r2, r2, #8
 194 00aa 1A60     		str	r2, [r3]
 663:Generated_Source\PSoC4/cyfitter_cfg.c **** 		CY_SET_REG32((void *)(CYREG_HSIOM_PORT_SEL4), 0x00000099u);
 195              		.loc 1 663 0
 196 00ac 9922     		movs	r2, #153
 197 00ae 3B4B     		ldr	r3, .L10+32
 664:Generated_Source\PSoC4/cyfitter_cfg.c **** 
 665:Generated_Source\PSoC4/cyfitter_cfg.c **** 		/* UDB_PA_0 Starting address: CYDEV_UDB_PA0_BASE */
 666:Generated_Source\PSoC4/cyfitter_cfg.c **** 		CY_SET_REG32((void *)(CYDEV_UDB_PA0_BASE), 0x00990000u);
 667:Generated_Source\PSoC4/cyfitter_cfg.c **** 
 668:Generated_Source\PSoC4/cyfitter_cfg.c **** 		/* UDB_PA_1 Starting address: CYDEV_UDB_PA1_BASE */
 669:Generated_Source\PSoC4/cyfitter_cfg.c **** 		CY_SET_REG32((void *)(CYDEV_UDB_PA1_BASE), 0x00990004u);
 198              		.loc 1 669 0
 199 00b0 3B49     		ldr	r1, .L10+36
 663:Generated_Source\PSoC4/cyfitter_cfg.c **** 		CY_SET_REG32((void *)(CYREG_HSIOM_PORT_SEL4), 0x00000099u);
 200              		.loc 1 663 0
 201 00b2 1A60     		str	r2, [r3]
 666:Generated_Source\PSoC4/cyfitter_cfg.c **** 
 202              		.loc 1 666 0
 203 00b4 9923     		movs	r3, #153
 204 00b6 3B4A     		ldr	r2, .L10+40
 205 00b8 1B04     		lsls	r3, r3, #16
 206 00ba 1360     		str	r3, [r2]
 207              		.loc 1 669 0
 208 00bc 3A4A     		ldr	r2, .L10+44
 209              	.LBE35:
 210              	.LBB36:
 211              	.LBB37:
 217:Generated_Source\PSoC4/cyfitter_cfg.c **** 
 212              		.loc 1 217 0
 213 00be 3B4D     		ldr	r5, .L10+48
 214              	.LVL14:
 215              	.LBE37:
 216              	.LBE36:
 217              	.LBB40:
 218              		.loc 1 669 0
 219 00c0 1160     		str	r1, [r2]
 670:Generated_Source\PSoC4/cyfitter_cfg.c **** 		CY_SET_REG32((void *)(CYREG_UDB_PA1_CFG4), 0x02000000u);
 220              		.loc 1 670 0
 221 00c2 8021     		movs	r1, #128
 222 00c4 3A4A     		ldr	r2, .L10+52
 223 00c6 8904     		lsls	r1, r1, #18
 224 00c8 1160     		str	r1, [r2]
 671:Generated_Source\PSoC4/cyfitter_cfg.c **** 		CY_SET_REG32((void *)(CYREG_UDB_PA1_CFG8), 0x04000000u);
 225              		.loc 1 671 0
 226 00ca 8021     		movs	r1, #128
 227 00cc 394A     		ldr	r2, .L10+56
ARM GAS  C:\Users\CCPOW_~1\AppData\Local\Temp\ccKp58WT.s 			page 17


 228 00ce C904     		lsls	r1, r1, #19
 229 00d0 1160     		str	r1, [r2]
 672:Generated_Source\PSoC4/cyfitter_cfg.c **** 
 673:Generated_Source\PSoC4/cyfitter_cfg.c **** 		/* UDB_PA_3 Starting address: CYDEV_UDB_PA3_BASE */
 674:Generated_Source\PSoC4/cyfitter_cfg.c **** 		CY_SET_REG32((void *)(CYDEV_UDB_PA3_BASE), 0x00990000u);
 230              		.loc 1 674 0
 231 00d2 394A     		ldr	r2, .L10+60
 675:Generated_Source\PSoC4/cyfitter_cfg.c **** 
 676:Generated_Source\PSoC4/cyfitter_cfg.c **** 		/* INT_SELECT Starting address: CYDEV_CPUSS_INTR_SELECT */
 677:Generated_Source\PSoC4/cyfitter_cfg.c **** 		CY_SET_REG32((void *)(CYREG_CPUSS_INTR_SELECT), 0x0000000Du);
 678:Generated_Source\PSoC4/cyfitter_cfg.c **** 
 679:Generated_Source\PSoC4/cyfitter_cfg.c **** 		/* INT_CONFIG Starting address: CYDEV_UDB_INT_CFG */
 680:Generated_Source\PSoC4/cyfitter_cfg.c **** 		CY_SET_REG32((void *)(CYREG_UDB_INT_CFG), 0x0000000Eu);
 681:Generated_Source\PSoC4/cyfitter_cfg.c **** 
 682:Generated_Source\PSoC4/cyfitter_cfg.c **** 		/* Enable UDB array and digital routing */
 683:Generated_Source\PSoC4/cyfitter_cfg.c **** 		CY_SET_XTND_REG8((void *)CYREG_UDB_UDBIF_WAIT_CFG, (uint8)((CY_GET_XTND_REG8((void *)CYREG_UDB_UD
 232              		.loc 1 683 0
 233 00d4 3C21     		movs	r1, #60
 674:Generated_Source\PSoC4/cyfitter_cfg.c **** 
 234              		.loc 1 674 0
 235 00d6 1360     		str	r3, [r2]
 677:Generated_Source\PSoC4/cyfitter_cfg.c **** 
 236              		.loc 1 677 0
 237 00d8 0D22     		movs	r2, #13
 238 00da 384B     		ldr	r3, .L10+64
 239              	.LBE40:
 240              	.LBB41:
 241              	.LBB38:
 220:Generated_Source\PSoC4/cyfitter_cfg.c **** 
 242              		.loc 1 220 0
 243 00dc 1820     		movs	r0, #24
 244              	.LBE38:
 245              	.LBE41:
 246              	.LBB42:
 677:Generated_Source\PSoC4/cyfitter_cfg.c **** 
 247              		.loc 1 677 0
 248 00de 1A60     		str	r2, [r3]
 680:Generated_Source\PSoC4/cyfitter_cfg.c **** 
 249              		.loc 1 680 0
 250 00e0 374B     		ldr	r3, .L10+68
 251 00e2 0132     		adds	r2, r2, #1
 252 00e4 1A60     		str	r2, [r3]
 253              		.loc 1 683 0
 254 00e6 374A     		ldr	r2, .L10+72
 255              	.LBE42:
 684:Generated_Source\PSoC4/cyfitter_cfg.c **** 		CY_SET_XTND_REG8((void *)CYREG_UDB_UDBIF_BANK_CTL, (uint8)(CY_GET_XTND_REG8((void *)CYREG_UDB_UDB
 685:Generated_Source\PSoC4/cyfitter_cfg.c **** 	}
 686:Generated_Source\PSoC4/cyfitter_cfg.c **** 
 687:Generated_Source\PSoC4/cyfitter_cfg.c **** 	/* Perform second pass device configuration. These items must be configured in specific order afte
 688:Generated_Source\PSoC4/cyfitter_cfg.c **** 	/* IOPINS0_0 Starting address: CYDEV_PRT0_BASE */
 689:Generated_Source\PSoC4/cyfitter_cfg.c **** 	CY_SET_REG32((void *)(CYREG_PRT0_PC), 0x00400000u);
 690:Generated_Source\PSoC4/cyfitter_cfg.c **** 
 691:Generated_Source\PSoC4/cyfitter_cfg.c **** 	/* IOPINS0_1 Starting address: CYDEV_PRT1_BASE */
 692:Generated_Source\PSoC4/cyfitter_cfg.c **** 	CY_SET_REG32((void *)(CYDEV_PRT1_BASE), 0x00000020u);
 693:Generated_Source\PSoC4/cyfitter_cfg.c **** 	CY_SET_REG32((void *)(CYREG_PRT1_PC), 0x00031000u);
 694:Generated_Source\PSoC4/cyfitter_cfg.c **** 
 695:Generated_Source\PSoC4/cyfitter_cfg.c **** 	/* IOPINS0_3 Starting address: CYDEV_PRT3_BASE */
ARM GAS  C:\Users\CCPOW_~1\AppData\Local\Temp\ccKp58WT.s 			page 18


 696:Generated_Source\PSoC4/cyfitter_cfg.c **** 	CY_SET_REG32((void *)(CYREG_PRT3_PC), 0x00000D80u);
 697:Generated_Source\PSoC4/cyfitter_cfg.c **** 
 698:Generated_Source\PSoC4/cyfitter_cfg.c **** 	/* IOPINS0_4 Starting address: CYDEV_PRT4_BASE */
 699:Generated_Source\PSoC4/cyfitter_cfg.c **** 	CY_SET_REG32((void *)(CYDEV_PRT4_BASE), 0x00000002u);
 700:Generated_Source\PSoC4/cyfitter_cfg.c **** 	CY_SET_REG32((void *)(CYREG_PRT4_PC), 0x00000031u);
 701:Generated_Source\PSoC4/cyfitter_cfg.c **** 	CY_SET_REG32((void *)(CYREG_PRT4_PC2), 0x00000002u);
 702:Generated_Source\PSoC4/cyfitter_cfg.c **** 
 703:Generated_Source\PSoC4/cyfitter_cfg.c **** 
 704:Generated_Source\PSoC4/cyfitter_cfg.c **** 	/* Setup clocks based on selections from Clock DWR */
 705:Generated_Source\PSoC4/cyfitter_cfg.c **** 	ClockSetup();
 706:Generated_Source\PSoC4/cyfitter_cfg.c **** 
 707:Generated_Source\PSoC4/cyfitter_cfg.c **** 	/* Perform basic analog initialization to defaults */
 708:Generated_Source\PSoC4/cyfitter_cfg.c **** 	AnalogSetDefault();
 709:Generated_Source\PSoC4/cyfitter_cfg.c **** 
 710:Generated_Source\PSoC4/cyfitter_cfg.c **** }
 256              		.loc 1 710 0
 257              		@ sp needed
 258              	.LBB43:
 683:Generated_Source\PSoC4/cyfitter_cfg.c **** 		CY_SET_XTND_REG8((void *)CYREG_UDB_UDBIF_BANK_CTL, (uint8)(CY_GET_XTND_REG8((void *)CYREG_UDB_UDB
 259              		.loc 1 683 0
 260 00e8 1378     		ldrb	r3, [r2]
 261 00ea 8B43     		bics	r3, r1
 262 00ec 2839     		subs	r1, r1, #40
 263 00ee 0B43     		orrs	r3, r1
 264 00f0 1370     		strb	r3, [r2]
 684:Generated_Source\PSoC4/cyfitter_cfg.c **** 		CY_SET_XTND_REG8((void *)CYREG_UDB_UDBIF_BANK_CTL, (uint8)(CY_GET_XTND_REG8((void *)CYREG_UDB_UDB
 265              		.loc 1 684 0
 266 00f2 354A     		ldr	r2, .L10+76
 267 00f4 0231     		adds	r1, r1, #2
 268 00f6 1378     		ldrb	r3, [r2]
 269 00f8 0B43     		orrs	r3, r1
 270 00fa 1370     		strb	r3, [r2]
 271              	.LBE43:
 689:Generated_Source\PSoC4/cyfitter_cfg.c **** 
 272              		.loc 1 689 0
 273 00fc 8022     		movs	r2, #128
 274 00fe 334B     		ldr	r3, .L10+80
 275 0100 D203     		lsls	r2, r2, #15
 276 0102 1A60     		str	r2, [r3]
 693:Generated_Source\PSoC4/cyfitter_cfg.c **** 
 277              		.loc 1 693 0
 278 0104 C422     		movs	r2, #196
 692:Generated_Source\PSoC4/cyfitter_cfg.c **** 	CY_SET_REG32((void *)(CYREG_PRT1_PC), 0x00031000u);
 279              		.loc 1 692 0
 280 0106 324B     		ldr	r3, .L10+84
 693:Generated_Source\PSoC4/cyfitter_cfg.c **** 
 281              		.loc 1 693 0
 282 0108 9202     		lsls	r2, r2, #10
 692:Generated_Source\PSoC4/cyfitter_cfg.c **** 	CY_SET_REG32((void *)(CYREG_PRT1_PC), 0x00031000u);
 283              		.loc 1 692 0
 284 010a 1C60     		str	r4, [r3]
 693:Generated_Source\PSoC4/cyfitter_cfg.c **** 
 285              		.loc 1 693 0
 286 010c 314B     		ldr	r3, .L10+88
 700:Generated_Source\PSoC4/cyfitter_cfg.c **** 	CY_SET_REG32((void *)(CYREG_PRT4_PC2), 0x00000002u);
 287              		.loc 1 700 0
 288 010e 1B31     		adds	r1, r1, #27
ARM GAS  C:\Users\CCPOW_~1\AppData\Local\Temp\ccKp58WT.s 			page 19


 693:Generated_Source\PSoC4/cyfitter_cfg.c **** 
 289              		.loc 1 693 0
 290 0110 1A60     		str	r2, [r3]
 696:Generated_Source\PSoC4/cyfitter_cfg.c **** 
 291              		.loc 1 696 0
 292 0112 D822     		movs	r2, #216
 293 0114 304B     		ldr	r3, .L10+92
 294 0116 1201     		lsls	r2, r2, #4
 295 0118 1A60     		str	r2, [r3]
 699:Generated_Source\PSoC4/cyfitter_cfg.c **** 	CY_SET_REG32((void *)(CYREG_PRT4_PC), 0x00000031u);
 296              		.loc 1 699 0
 297 011a 0223     		movs	r3, #2
 298 011c 2F4A     		ldr	r2, .L10+96
 299 011e 1360     		str	r3, [r2]
 700:Generated_Source\PSoC4/cyfitter_cfg.c **** 	CY_SET_REG32((void *)(CYREG_PRT4_PC2), 0x00000002u);
 300              		.loc 1 700 0
 301 0120 2F4A     		ldr	r2, .L10+100
 302 0122 1160     		str	r1, [r2]
 701:Generated_Source\PSoC4/cyfitter_cfg.c **** 
 303              		.loc 1 701 0
 304 0124 2F4A     		ldr	r2, .L10+104
 305 0126 1360     		str	r3, [r2]
 306              	.LBB44:
 307              	.LBB39:
 217:Generated_Source\PSoC4/cyfitter_cfg.c **** 
 308              		.loc 1 217 0
 309 0128 8022     		movs	r2, #128
 310 012a 2B68     		ldr	r3, [r5]
 311 012c D202     		lsls	r2, r2, #11
 312 012e 1343     		orrs	r3, r2
 313 0130 2B60     		str	r3, [r5]
 220:Generated_Source\PSoC4/cyfitter_cfg.c **** 
 314              		.loc 1 220 0
 315 0132 FFF7FEFF 		bl	CySysClkWriteImoFreq
 316              	.LVL15:
 223:Generated_Source\PSoC4/cyfitter_cfg.c **** 	/* CYDEV_CLK_ILO_CONFIG Starting address: CYDEV_CLK_ILO_CONFIG */
 317              		.loc 1 223 0
 318 0136 2A68     		ldr	r2, [r5]
 319 0138 2B4B     		ldr	r3, .L10+108
 244:Generated_Source\PSoC4/cyfitter_cfg.c **** 	CyIntEnable(9u);
 320              		.loc 1 244 0
 321 013a 2C49     		ldr	r1, .L10+112
 223:Generated_Source\PSoC4/cyfitter_cfg.c **** 	/* CYDEV_CLK_ILO_CONFIG Starting address: CYDEV_CLK_ILO_CONFIG */
 322              		.loc 1 223 0
 323 013c 1340     		ands	r3, r2
 324 013e 2B60     		str	r3, [r5]
 225:Generated_Source\PSoC4/cyfitter_cfg.c **** 
 325              		.loc 1 225 0
 326 0140 2B4A     		ldr	r2, .L10+116
 327 0142 2C4B     		ldr	r3, .L10+120
 244:Generated_Source\PSoC4/cyfitter_cfg.c **** 	CyIntEnable(9u);
 328              		.loc 1 244 0
 329 0144 0920     		movs	r0, #9
 225:Generated_Source\PSoC4/cyfitter_cfg.c **** 
 330              		.loc 1 225 0
 331 0146 1A60     		str	r2, [r3]
 229:Generated_Source\PSoC4/cyfitter_cfg.c **** 	CY_SET_REG32((void *)(CYREG_CLK_SELECT12), 0x00000020u);
ARM GAS  C:\Users\CCPOW_~1\AppData\Local\Temp\ccKp58WT.s 			page 20


 332              		.loc 1 229 0
 333 0148 1022     		movs	r2, #16
 334 014a 2B4B     		ldr	r3, .L10+124
 335 014c 1A60     		str	r2, [r3]
 233:Generated_Source\PSoC4/cyfitter_cfg.c **** 
 336              		.loc 1 233 0
 337 014e 8022     		movs	r2, #128
 230:Generated_Source\PSoC4/cyfitter_cfg.c **** 
 338              		.loc 1 230 0
 339 0150 2A4B     		ldr	r3, .L10+128
 233:Generated_Source\PSoC4/cyfitter_cfg.c **** 
 340              		.loc 1 233 0
 341 0152 1206     		lsls	r2, r2, #24
 230:Generated_Source\PSoC4/cyfitter_cfg.c **** 
 342              		.loc 1 230 0
 343 0154 1C60     		str	r4, [r3]
 236:Generated_Source\PSoC4/cyfitter_cfg.c **** 
 344              		.loc 1 236 0
 345 0156 0024     		movs	r4, #0
 233:Generated_Source\PSoC4/cyfitter_cfg.c **** 
 346              		.loc 1 233 0
 347 0158 294B     		ldr	r3, .L10+132
 348 015a 1A60     		str	r2, [r3]
 239:Generated_Source\PSoC4/cyfitter_cfg.c **** 
 349              		.loc 1 239 0
 350 015c 294A     		ldr	r2, .L10+136
 351 015e 2A4B     		ldr	r3, .L10+140
 236:Generated_Source\PSoC4/cyfitter_cfg.c **** 
 352              		.loc 1 236 0
 353 0160 2C60     		str	r4, [r5]
 239:Generated_Source\PSoC4/cyfitter_cfg.c **** 
 354              		.loc 1 239 0
 355 0162 1A60     		str	r2, [r3]
 242:Generated_Source\PSoC4/cyfitter_cfg.c **** 
 356              		.loc 1 242 0
 357 0164 294A     		ldr	r2, .L10+144
 358 0166 2A4B     		ldr	r3, .L10+148
 359 0168 1A60     		str	r2, [r3]
 244:Generated_Source\PSoC4/cyfitter_cfg.c **** 	CyIntEnable(9u);
 360              		.loc 1 244 0
 361 016a FFF7FEFF 		bl	CyIntSetVector
 362              	.LVL16:
 245:Generated_Source\PSoC4/cyfitter_cfg.c **** 	CY_SET_REG32((void *)(CYREG_WDT_CONFIG), 0x00000000u);
 363              		.loc 1 245 0
 364 016e 0920     		movs	r0, #9
 365 0170 FFF7FEFF 		bl	CyIntEnable
 366              	.LVL17:
 246:Generated_Source\PSoC4/cyfitter_cfg.c **** }
 367              		.loc 1 246 0
 368 0174 274B     		ldr	r3, .L10+152
 369 0176 1C60     		str	r4, [r3]
 370              	.LBE39:
 371              	.LBE44:
 372              		.loc 1 710 0
 373 0178 F7BD     		pop	{r0, r1, r2, r4, r5, r6, r7, pc}
 374              	.L11:
 375 017a C046     		.align	2
ARM GAS  C:\Users\CCPOW_~1\AppData\Local\Temp\ccKp58WT.s 			page 21


 376              	.L10:
 377 017c 1C700F40 		.word	1074753564
 378 0180 00000000 		.word	.LANCHOR0
 379 0184 80300F40 		.word	1074737280
 380 0188 80000000 		.word	.LANCHOR1
 381 018c 00600F40 		.word	1074749440
 382 0190 02600F40 		.word	1074749442
 383 0194 04000140 		.word	1073807364
 384 0198 0C000140 		.word	1073807372
 385 019c 10000140 		.word	1073807376
 386 01a0 04009900 		.word	10027012
 387 01a4 00500F40 		.word	1074745344
 388 01a8 10500F40 		.word	1074745360
 389 01ac 00010B40 		.word	1074462976
 390 01b0 14500F40 		.word	1074745364
 391 01b4 18500F40 		.word	1074745368
 392 01b8 30500F40 		.word	1074745392
 393 01bc 20000040 		.word	1073741856
 394 01c0 00800F40 		.word	1074757632
 395 01c4 01700F40 		.word	1074753537
 396 01c8 00700F40 		.word	1074753536
 397 01cc 08000440 		.word	1074003976
 398 01d0 00010440 		.word	1074004224
 399 01d4 08010440 		.word	1074004232
 400 01d8 08030440 		.word	1074004744
 401 01dc 00040440 		.word	1074004992
 402 01e0 08040440 		.word	1074005000
 403 01e4 18040440 		.word	1074005016
 404 01e8 FFFFFBFF 		.word	-262145
 405 01ec 00000000 		.word	CySysWdtIsr
 406 01f0 06000080 		.word	-2147483642
 407 01f4 04010B40 		.word	1074462980
 408 01f8 08020240 		.word	1073873416
 409 01fc 30020240 		.word	1073873456
 410 0200 08010B40 		.word	1074462984
 411 0204 10000080 		.word	-2147483632
 412 0208 00000240 		.word	1073872896
 413 020c 19000080 		.word	-2147483623
 414 0210 40000240 		.word	1073872960
 415 0214 0C020B40 		.word	1074463244
 416              		.cfi_endproc
 417              	.LFE6:
 418              		.size	cyfitter_cfg, .-cyfitter_cfg
 419              		.section	.rodata
 420              		.align	2
 421              		.set	.LANCHOR0,. + 0
 422              		.set	.LANCHOR1,. + 128
 423              		.type	cfg_memset_list.4875, %object
 424              		.size	cfg_memset_list.4875, 18
 425              	cfg_memset_list.4875:
 426 0000 00300F40 		.4byte	1074737152
 427 0004 8000     		.2byte	128
 428 0006 00310F40 		.4byte	1074737408
 429 000a 0003     		.2byte	768
 430 000c 00400F40 		.4byte	1074741248
 431 0010 0004     		.2byte	1024
 432              		.type	BS_UDB_0_1_1_CONFIG_VAL.4876, %object
ARM GAS  C:\Users\CCPOW_~1\AppData\Local\Temp\ccKp58WT.s 			page 22


 433              		.size	BS_UDB_0_1_1_CONFIG_VAL.4876, 128
 434              	BS_UDB_0_1_1_CONFIG_VAL.4876:
 435 0012 82       		.byte	-126
 436 0013 10       		.byte	16
 437 0014 00       		.byte	0
 438 0015 00       		.byte	0
 439 0016 00       		.byte	0
 440 0017 08       		.byte	8
 441 0018 F3       		.byte	-13
 442 0019 00       		.byte	0
 443 001a C3       		.byte	-61
 444 001b 18       		.byte	24
 445 001c 00       		.byte	0
 446 001d 00       		.byte	0
 447 001e 41       		.byte	65
 448 001f 04       		.byte	4
 449 0020 00       		.byte	0
 450 0021 00       		.byte	0
 451 0022 00       		.byte	0
 452 0023 3C       		.byte	60
 453 0024 00       		.byte	0
 454 0025 42       		.byte	66
 455 0026 0F       		.byte	15
 456 0027 00       		.byte	0
 457 0028 F0       		.byte	-16
 458 0029 03       		.byte	3
 459 002a F3       		.byte	-13
 460 002b 7F       		.byte	127
 461 002c 0C       		.byte	12
 462 002d 00       		.byte	0
 463 002e 1C       		.byte	28
 464 002f 00       		.byte	0
 465 0030 E3       		.byte	-29
 466 0031 00       		.byte	0
 467 0032 08       		.byte	8
 468 0033 00       		.byte	0
 469 0034 00       		.byte	0
 470 0035 00       		.byte	0
 471 0036 04       		.byte	4
 472 0037 67       		.byte	103
 473 0038 00       		.byte	0
 474 0039 18       		.byte	24
 475 003a 0C       		.byte	12
 476 003b 3C       		.byte	60
 477 003c 00       		.byte	0
 478 003d 41       		.byte	65
 479 003e FF       		.byte	-1
 480 003f 00       		.byte	0
 481 0040 00       		.byte	0
 482 0041 04       		.byte	4
 483 0042 1C       		.byte	28
 484 0043 1F       		.byte	31
 485 0044 2C       		.byte	44
 486 0045 20       		.byte	32
 487 0046 0F       		.byte	15
 488 0047 00       		.byte	0
 489 0048 C0       		.byte	-64
ARM GAS  C:\Users\CCPOW_~1\AppData\Local\Temp\ccKp58WT.s 			page 23


 490 0049 40       		.byte	64
 491 004a 00       		.byte	0
 492 004b 80       		.byte	-128
 493 004c 28       		.byte	40
 494 004d 22       		.byte	34
 495 004e 00       		.byte	0
 496 004f 00       		.byte	0
 497 0050 00       		.byte	0
 498 0051 04       		.byte	4
 499 0052 26       		.byte	38
 500 0053 03       		.byte	3
 501 0054 04       		.byte	4
 502 0055 00       		.byte	0
 503 0056 01       		.byte	1
 504 0057 0C       		.byte	12
 505 0058 00       		.byte	0
 506 0059 E0       		.byte	-32
 507 005a 21       		.byte	33
 508 005b FF       		.byte	-1
 509 005c FF       		.byte	-1
 510 005d FF       		.byte	-1
 511 005e 62       		.byte	98
 512 005f A0       		.byte	-96
 513 0060 F0       		.byte	-16
 514 0061 41       		.byte	65
 515 0062 0C       		.byte	12
 516 0063 00       		.byte	0
 517 0064 00       		.byte	0
 518 0065 00       		.byte	0
 519 0066 00       		.byte	0
 520 0067 00       		.byte	0
 521 0068 02       		.byte	2
 522 0069 12       		.byte	18
 523 006a 04       		.byte	4
 524 006b 04       		.byte	4
 525 006c 04       		.byte	4
 526 006d 04       		.byte	4
 527 006e 00       		.byte	0
 528 006f 00       		.byte	0
 529 0070 00       		.byte	0
 530 0071 01       		.byte	1
 531 0072 00       		.byte	0
 532 0073 00       		.byte	0
 533 0074 00       		.byte	0
 534 0075 00       		.byte	0
 535 0076 00       		.byte	0
 536 0077 00       		.byte	0
 537 0078 40       		.byte	64
 538 0079 02       		.byte	2
 539 007a 00       		.byte	0
 540 007b 10       		.byte	16
 541 007c 30       		.byte	48
 542 007d 10       		.byte	16
 543 007e 00       		.byte	0
 544 007f 10       		.byte	16
 545 0080 10       		.byte	16
 546 0081 12       		.byte	18
ARM GAS  C:\Users\CCPOW_~1\AppData\Local\Temp\ccKp58WT.s 			page 24


 547 0082 00       		.byte	0
 548 0083 00       		.byte	0
 549 0084 00       		.byte	0
 550 0085 00       		.byte	0
 551 0086 00       		.byte	0
 552 0087 00       		.byte	0
 553 0088 00       		.byte	0
 554 0089 00       		.byte	0
 555 008a 00       		.byte	0
 556 008b 00       		.byte	0
 557 008c 00       		.byte	0
 558 008d 00       		.byte	0
 559 008e 00       		.byte	0
 560 008f 00       		.byte	0
 561 0090 00       		.byte	0
 562 0091 00       		.byte	0
 563 0092 0000     		.space	2
 564              		.type	cy_cfg_addr_table.4864, %object
 565              		.size	cy_cfg_addr_table.4864, 32
 566              	cy_cfg_addr_table.4864:
 567 0094 03000F40 		.word	1074724867
 568 0098 14300F40 		.word	1074737172
 569 009c 31310F40 		.word	1074737457
 570 00a0 6A320F40 		.word	1074737770
 571 00a4 53330F40 		.word	1074738003
 572 00a8 09400F40 		.word	1074741257
 573 00ac 0B410F40 		.word	1074741515
 574 00b0 02600F40 		.word	1074749442
 575              		.type	cy_cfg_data_table.4865, %object
 576              		.size	cy_cfg_data_table.4865, 566
 577              	cy_cfg_data_table.4865:
 578 00b4 80       		.byte	-128
 579 00b5 38       		.byte	56
 580 00b6 81       		.byte	-127
 581 00b7 72       		.byte	114
 582 00b8 82       		.byte	-126
 583 00b9 0F       		.byte	15
 584 00ba 02       		.byte	2
 585 00bb 02       		.byte	2
 586 00bc 04       		.byte	4
 587 00bd 08       		.byte	8
 588 00be 12       		.byte	18
 589 00bf 01       		.byte	1
 590 00c0 15       		.byte	21
 591 00c1 01       		.byte	1
 592 00c2 1E       		.byte	30
 593 00c3 04       		.byte	4
 594 00c4 26       		.byte	38
 595 00c5 01       		.byte	1
 596 00c6 2E       		.byte	46
 597 00c7 02       		.byte	2
 598 00c8 30       		.byte	48
 599 00c9 01       		.byte	1
 600 00ca 32       		.byte	50
 601 00cb 08       		.byte	8
 602 00cc 33       		.byte	51
 603 00cd 01       		.byte	1
ARM GAS  C:\Users\CCPOW_~1\AppData\Local\Temp\ccKp58WT.s 			page 25


 604 00ce 34       		.byte	52
 605 00cf 02       		.byte	2
 606 00d0 36       		.byte	54
 607 00d1 04       		.byte	4
 608 00d2 3E       		.byte	62
 609 00d3 15       		.byte	21
 610 00d4 3F       		.byte	63
 611 00d5 04       		.byte	4
 612 00d6 54       		.byte	84
 613 00d7 18       		.byte	24
 614 00d8 56       		.byte	86
 615 00d9 04       		.byte	4
 616 00da 58       		.byte	88
 617 00db 04       		.byte	4
 618 00dc 59       		.byte	89
 619 00dd 04       		.byte	4
 620 00de 5B       		.byte	91
 621 00df 04       		.byte	4
 622 00e0 5F       		.byte	95
 623 00e1 01       		.byte	1
 624 00e2 00       		.byte	0
 625 00e3 08       		.byte	8
 626 00e4 02       		.byte	2
 627 00e5 80       		.byte	-128
 628 00e6 04       		.byte	4
 629 00e7 88       		.byte	-120
 630 00e8 05       		.byte	5
 631 00e9 21       		.byte	33
 632 00ea 09       		.byte	9
 633 00eb 02       		.byte	2
 634 00ec 0B       		.byte	11
 635 00ed 01       		.byte	1
 636 00ee 0D       		.byte	13
 637 00ef 28       		.byte	40
 638 00f0 0E       		.byte	14
 639 00f1 02       		.byte	2
 640 00f2 10       		.byte	16
 641 00f3 22       		.byte	34
 642 00f4 14       		.byte	20
 643 00f5 02       		.byte	2
 644 00f6 17       		.byte	23
 645 00f7 2A       		.byte	42
 646 00f8 18       		.byte	24
 647 00f9 04       		.byte	4
 648 00fa 19       		.byte	25
 649 00fb 88       		.byte	-120
 650 00fc 1B       		.byte	27
 651 00fd 01       		.byte	1
 652 00fe 1D       		.byte	29
 653 00ff 2A       		.byte	42
 654 0100 1E       		.byte	30
 655 0101 01       		.byte	1
 656 0102 1F       		.byte	31
 657 0103 28       		.byte	40
 658 0104 23       		.byte	35
 659 0105 10       		.byte	16
 660 0106 26       		.byte	38
ARM GAS  C:\Users\CCPOW_~1\AppData\Local\Temp\ccKp58WT.s 			page 26


 661 0107 A7       		.byte	-89
 662 0108 27       		.byte	39
 663 0109 04       		.byte	4
 664 010a 2D       		.byte	45
 665 010b 80       		.byte	-128
 666 010c 2F       		.byte	47
 667 010d 28       		.byte	40
 668 010e 32       		.byte	50
 669 010f 04       		.byte	4
 670 0110 36       		.byte	54
 671 0111 2A       		.byte	42
 672 0112 3E       		.byte	62
 673 0113 AA       		.byte	-86
 674 0114 45       		.byte	69
 675 0115 22       		.byte	34
 676 0116 47       		.byte	71
 677 0117 44       		.byte	68
 678 0118 4C       		.byte	76
 679 0119 24       		.byte	36
 680 011a 4E       		.byte	78
 681 011b 08       		.byte	8
 682 011c 54       		.byte	84
 683 011d 02       		.byte	2
 684 011e 5A       		.byte	90
 685 011f 01       		.byte	1
 686 0120 5E       		.byte	94
 687 0121 08       		.byte	8
 688 0122 60       		.byte	96
 689 0123 04       		.byte	4
 690 0124 63       		.byte	99
 691 0125 42       		.byte	66
 692 0126 6E       		.byte	110
 693 0127 14       		.byte	20
 694 0128 6F       		.byte	111
 695 0129 01       		.byte	1
 696 012a 76       		.byte	118
 697 012b 2A       		.byte	42
 698 012c 77       		.byte	119
 699 012d 2A       		.byte	42
 700 012e 87       		.byte	-121
 701 012f 40       		.byte	64
 702 0130 C0       		.byte	-64
 703 0131 FC       		.byte	-4
 704 0132 C2       		.byte	-62
 705 0133 E9       		.byte	-23
 706 0134 C4       		.byte	-60
 707 0135 F5       		.byte	-11
 708 0136 CA       		.byte	-54
 709 0137 70       		.byte	112
 710 0138 CC       		.byte	-52
 711 0139 E2       		.byte	-30
 712 013a CE       		.byte	-50
 713 013b F0       		.byte	-16
 714 013c D0       		.byte	-48
 715 013d F0       		.byte	-16
 716 013e D2       		.byte	-46
 717 013f 20       		.byte	32
ARM GAS  C:\Users\CCPOW_~1\AppData\Local\Temp\ccKp58WT.s 			page 27


 718 0140 D6       		.byte	-42
 719 0141 41       		.byte	65
 720 0142 D8       		.byte	-40
 721 0143 0D       		.byte	13
 722 0144 00       		.byte	0
 723 0145 13       		.byte	19
 724 0146 01       		.byte	1
 725 0147 01       		.byte	1
 726 0148 02       		.byte	2
 727 0149 04       		.byte	4
 728 014a 03       		.byte	3
 729 014b 0A       		.byte	10
 730 014c 04       		.byte	4
 731 014d 0A       		.byte	10
 732 014e 05       		.byte	5
 733 014f 13       		.byte	19
 734 0150 06       		.byte	6
 735 0151 14       		.byte	20
 736 0152 08       		.byte	8
 737 0153 13       		.byte	19
 738 0154 09       		.byte	9
 739 0155 13       		.byte	19
 740 0156 0A       		.byte	10
 741 0157 0C       		.byte	12
 742 0158 0C       		.byte	12
 743 0159 40       		.byte	64
 744 015a 0E       		.byte	14
 745 015b 20       		.byte	32
 746 015c 11       		.byte	17
 747 015d 10       		.byte	16
 748 015e 12       		.byte	18
 749 015f 08       		.byte	8
 750 0160 14       		.byte	20
 751 0161 20       		.byte	32
 752 0162 16       		.byte	22
 753 0163 C0       		.byte	-64
 754 0164 18       		.byte	24
 755 0165 E0       		.byte	-32
 756 0166 19       		.byte	25
 757 0167 02       		.byte	2
 758 0168 1B       		.byte	27
 759 0169 09       		.byte	9
 760 016a 1C       		.byte	28
 761 016b 03       		.byte	3
 762 016c 1E       		.byte	30
 763 016d 14       		.byte	20
 764 016e 26       		.byte	38
 765 016f 15       		.byte	21
 766 0170 28       		.byte	40
 767 0171 80       		.byte	-128
 768 0172 2A       		.byte	42
 769 0173 20       		.byte	32
 770 0174 2B       		.byte	43
 771 0175 04       		.byte	4
 772 0176 2C       		.byte	44
 773 0177 E0       		.byte	-32
 774 0178 30       		.byte	48
ARM GAS  C:\Users\CCPOW_~1\AppData\Local\Temp\ccKp58WT.s 			page 28


 775 0179 10       		.byte	16
 776 017a 31       		.byte	49
 777 017b 0C       		.byte	12
 778 017c 32       		.byte	50
 779 017d E0       		.byte	-32
 780 017e 33       		.byte	51
 781 017f 03       		.byte	3
 782 0180 34       		.byte	52
 783 0181 0F       		.byte	15
 784 0182 35       		.byte	53
 785 0183 10       		.byte	16
 786 0184 3A       		.byte	58
 787 0185 20       		.byte	32
 788 0186 3E       		.byte	62
 789 0187 01       		.byte	1
 790 0188 3F       		.byte	63
 791 0189 01       		.byte	1
 792 018a 40       		.byte	64
 793 018b 36       		.byte	54
 794 018c 41       		.byte	65
 795 018d 01       		.byte	1
 796 018e 46       		.byte	70
 797 018f B0       		.byte	-80
 798 0190 47       		.byte	71
 799 0191 CE       		.byte	-50
 800 0192 48       		.byte	72
 801 0193 38       		.byte	56
 802 0194 49       		.byte	73
 803 0195 FF       		.byte	-1
 804 0196 4A       		.byte	74
 805 0197 FF       		.byte	-1
 806 0198 4B       		.byte	75
 807 0199 FF       		.byte	-1
 808 019a 4E       		.byte	78
 809 019b F0       		.byte	-16
 810 019c 4F       		.byte	79
 811 019d 44       		.byte	68
 812 019e 50       		.byte	80
 813 019f 0C       		.byte	12
 814 01a0 54       		.byte	84
 815 01a1 01       		.byte	1
 816 01a2 56       		.byte	86
 817 01a3 04       		.byte	4
 818 01a4 58       		.byte	88
 819 01a5 04       		.byte	4
 820 01a6 59       		.byte	89
 821 01a7 04       		.byte	4
 822 01a8 5A       		.byte	90
 823 01a9 04       		.byte	4
 824 01aa 5B       		.byte	91
 825 01ab 04       		.byte	4
 826 01ac 5F       		.byte	95
 827 01ad 01       		.byte	1
 828 01ae 66       		.byte	102
 829 01af C0       		.byte	-64
 830 01b0 6A       		.byte	106
 831 01b1 40       		.byte	64
ARM GAS  C:\Users\CCPOW_~1\AppData\Local\Temp\ccKp58WT.s 			page 29


 832 01b2 6B       		.byte	107
 833 01b3 02       		.byte	2
 834 01b4 84       		.byte	-124
 835 01b5 14       		.byte	20
 836 01b6 85       		.byte	-123
 837 01b7 80       		.byte	-128
 838 01b8 87       		.byte	-121
 839 01b9 13       		.byte	19
 840 01ba 8C       		.byte	-116
 841 01bb 0C       		.byte	12
 842 01bc 8E       		.byte	-114
 843 01bd 71       		.byte	113
 844 01be 8F       		.byte	-113
 845 01bf 0C       		.byte	12
 846 01c0 90       		.byte	-112
 847 01c1 09       		.byte	9
 848 01c2 92       		.byte	-110
 849 01c3 D0       		.byte	-48
 850 01c4 94       		.byte	-108
 851 01c5 DC       		.byte	-36
 852 01c6 95       		.byte	-107
 853 01c7 2C       		.byte	44
 854 01c8 96       		.byte	-106
 855 01c9 22       		.byte	34
 856 01ca 97       		.byte	-105
 857 01cb 43       		.byte	67
 858 01cc 99       		.byte	-103
 859 01cd 71       		.byte	113
 860 01ce 9A       		.byte	-102
 861 01cf 03       		.byte	3
 862 01d0 9B       		.byte	-101
 863 01d1 06       		.byte	6
 864 01d2 9F       		.byte	-97
 865 01d3 08       		.byte	8
 866 01d4 A0       		.byte	-96
 867 01d5 10       		.byte	16
 868 01d6 A1       		.byte	-95
 869 01d7 71       		.byte	113
 870 01d8 A2       		.byte	-94
 871 01d9 40       		.byte	64
 872 01da A3       		.byte	-93
 873 01db 0E       		.byte	14
 874 01dc A4       		.byte	-92
 875 01dd 10       		.byte	16
 876 01de A6       		.byte	-90
 877 01df AC       		.byte	-84
 878 01e0 AA       		.byte	-86
 879 01e1 20       		.byte	32
 880 01e2 B0       		.byte	-80
 881 01e3 E0       		.byte	-32
 882 01e4 B1       		.byte	-79
 883 01e5 C0       		.byte	-64
 884 01e6 B3       		.byte	-77
 885 01e7 0F       		.byte	15
 886 01e8 B4       		.byte	-76
 887 01e9 1F       		.byte	31
 888 01ea B5       		.byte	-75
ARM GAS  C:\Users\CCPOW_~1\AppData\Local\Temp\ccKp58WT.s 			page 30


 889 01eb 30       		.byte	48
 890 01ec B9       		.byte	-71
 891 01ed 22       		.byte	34
 892 01ee BA       		.byte	-70
 893 01ef 02       		.byte	2
 894 01f0 BB       		.byte	-69
 895 01f1 08       		.byte	8
 896 01f2 BF       		.byte	-65
 897 01f3 10       		.byte	16
 898 01f4 C0       		.byte	-64
 899 01f5 02       		.byte	2
 900 01f6 C5       		.byte	-59
 901 01f7 40       		.byte	64
 902 01f8 C9       		.byte	-55
 903 01f9 FF       		.byte	-1
 904 01fa CA       		.byte	-54
 905 01fb 07       		.byte	7
 906 01fc CB       		.byte	-53
 907 01fd FF       		.byte	-1
 908 01fe CC       		.byte	-52
 909 01ff 40       		.byte	64
 910 0200 CD       		.byte	-51
 911 0201 20       		.byte	32
 912 0202 CE       		.byte	-50
 913 0203 F0       		.byte	-16
 914 0204 CF       		.byte	-49
 915 0205 05       		.byte	5
 916 0206 D0       		.byte	-48
 917 0207 08       		.byte	8
 918 0208 D8       		.byte	-40
 919 0209 04       		.byte	4
 920 020a D9       		.byte	-39
 921 020b 04       		.byte	4
 922 020c DA       		.byte	-38
 923 020d 04       		.byte	4
 924 020e DF       		.byte	-33
 925 020f 01       		.byte	1
 926 0210 E0       		.byte	-32
 927 0211 40       		.byte	64
 928 0212 E1       		.byte	-31
 929 0213 A8       		.byte	-88
 930 0214 E2       		.byte	-30
 931 0215 40       		.byte	64
 932 0216 E3       		.byte	-29
 933 0217 20       		.byte	32
 934 0218 00       		.byte	0
 935 0219 40       		.byte	64
 936 021a 02       		.byte	2
 937 021b 10       		.byte	16
 938 021c 04       		.byte	4
 939 021d 80       		.byte	-128
 940 021e 05       		.byte	5
 941 021f 15       		.byte	21
 942 0220 09       		.byte	9
 943 0221 08       		.byte	8
 944 0222 0A       		.byte	10
 945 0223 08       		.byte	8
ARM GAS  C:\Users\CCPOW_~1\AppData\Local\Temp\ccKp58WT.s 			page 31


 946 0224 0B       		.byte	11
 947 0225 40       		.byte	64
 948 0226 0E       		.byte	14
 949 0227 24       		.byte	36
 950 0228 0F       		.byte	15
 951 0229 42       		.byte	66
 952 022a 10       		.byte	16
 953 022b 90       		.byte	-112
 954 022c 12       		.byte	18
 955 022d 08       		.byte	8
 956 022e 15       		.byte	21
 957 022f 88       		.byte	-120
 958 0230 17       		.byte	23
 959 0231 10       		.byte	16
 960 0232 18       		.byte	24
 961 0233 40       		.byte	64
 962 0234 19       		.byte	25
 963 0235 01       		.byte	1
 964 0236 1A       		.byte	26
 965 0237 08       		.byte	8
 966 0238 1D       		.byte	29
 967 0239 10       		.byte	16
 968 023a 1E       		.byte	30
 969 023b 60       		.byte	96
 970 023c 1F       		.byte	31
 971 023d 04       		.byte	4
 972 023e 20       		.byte	32
 973 023f 04       		.byte	4
 974 0240 21       		.byte	33
 975 0241 08       		.byte	8
 976 0242 23       		.byte	35
 977 0243 40       		.byte	64
 978 0244 24       		.byte	36
 979 0245 08       		.byte	8
 980 0246 27       		.byte	39
 981 0247 50       		.byte	80
 982 0248 29       		.byte	41
 983 0249 01       		.byte	1
 984 024a 2A       		.byte	42
 985 024b 02       		.byte	2
 986 024c 2D       		.byte	45
 987 024d 20       		.byte	32
 988 024e 2F       		.byte	47
 989 024f 04       		.byte	4
 990 0250 30       		.byte	48
 991 0251 90       		.byte	-112
 992 0252 31       		.byte	49
 993 0253 1C       		.byte	28
 994 0254 37       		.byte	55
 995 0255 11       		.byte	17
 996 0256 39       		.byte	57
 997 0257 08       		.byte	8
 998 0258 3B       		.byte	59
 999 0259 40       		.byte	64
 1000 025a 3E       		.byte	62
 1001 025b 14       		.byte	20
 1002 025c 3F       		.byte	63
ARM GAS  C:\Users\CCPOW_~1\AppData\Local\Temp\ccKp58WT.s 			page 32


 1003 025d 01       		.byte	1
 1004 025e 40       		.byte	64
 1005 025f 04       		.byte	4
 1006 0260 44       		.byte	68
 1007 0261 10       		.byte	16
 1008 0262 46       		.byte	70
 1009 0263 02       		.byte	2
 1010 0264 48       		.byte	72
 1011 0265 80       		.byte	-128
 1012 0266 4E       		.byte	78
 1013 0267 08       		.byte	8
 1014 0268 51       		.byte	81
 1015 0269 04       		.byte	4
 1016 026a 52       		.byte	82
 1017 026b 08       		.byte	8
 1018 026c 54       		.byte	84
 1019 026d 04       		.byte	4
 1020 026e 56       		.byte	86
 1021 026f 10       		.byte	16
 1022 0270 57       		.byte	87
 1023 0271 01       		.byte	1
 1024 0272 5D       		.byte	93
 1025 0273 18       		.byte	24
 1026 0274 5E       		.byte	94
 1027 0275 40       		.byte	64
 1028 0276 5F       		.byte	95
 1029 0277 02       		.byte	2
 1030 0278 67       		.byte	103
 1031 0279 80       		.byte	-128
 1032 027a 80       		.byte	-128
 1033 027b 40       		.byte	64
 1034 027c 82       		.byte	-126
 1035 027d 80       		.byte	-128
 1036 027e 83       		.byte	-125
 1037 027f 01       		.byte	1
 1038 0280 84       		.byte	-124
 1039 0281 04       		.byte	4
 1040 0282 87       		.byte	-121
 1041 0283 42       		.byte	66
 1042 0284 89       		.byte	-119
 1043 0285 10       		.byte	16
 1044 0286 8B       		.byte	-117
 1045 0287 01       		.byte	1
 1046 0288 91       		.byte	-111
 1047 0289 80       		.byte	-128
 1048 028a 92       		.byte	-110
 1049 028b 14       		.byte	20
 1050 028c 94       		.byte	-108
 1051 028d 88       		.byte	-120
 1052 028e 96       		.byte	-106
 1053 028f 08       		.byte	8
 1054 0290 97       		.byte	-105
 1055 0291 01       		.byte	1
 1056 0292 99       		.byte	-103
 1057 0293 08       		.byte	8
 1058 0294 9B       		.byte	-101
 1059 0295 01       		.byte	1
ARM GAS  C:\Users\CCPOW_~1\AppData\Local\Temp\ccKp58WT.s 			page 33


 1060 0296 9D       		.byte	-99
 1061 0297 20       		.byte	32
 1062 0298 9E       		.byte	-98
 1063 0299 80       		.byte	-128
 1064 029a 9F       		.byte	-97
 1065 029b 50       		.byte	80
 1066 029c A4       		.byte	-92
 1067 029d 04       		.byte	4
 1068 029e B3       		.byte	-77
 1069 029f 10       		.byte	16
 1070 02a0 B4       		.byte	-76
 1071 02a1 02       		.byte	2
 1072 02a2 B5       		.byte	-75
 1073 02a3 41       		.byte	65
 1074 02a4 B6       		.byte	-74
 1075 02a5 30       		.byte	48
 1076 02a6 B7       		.byte	-73
 1077 02a7 10       		.byte	16
 1078 02a8 C0       		.byte	-64
 1079 02a9 F5       		.byte	-11
 1080 02aa C2       		.byte	-62
 1081 02ab FE       		.byte	-2
 1082 02ac C4       		.byte	-60
 1083 02ad EE       		.byte	-18
 1084 02ae CA       		.byte	-54
 1085 02af 21       		.byte	33
 1086 02b0 CC       		.byte	-52
 1087 02b1 AE       		.byte	-82
 1088 02b2 CE       		.byte	-50
 1089 02b3 EA       		.byte	-22
 1090 02b4 D0       		.byte	-48
 1091 02b5 54       		.byte	84
 1092 02b6 D2       		.byte	-46
 1093 02b7 20       		.byte	32
 1094 02b8 D6       		.byte	-42
 1095 02b9 F0       		.byte	-16
 1096 02ba D8       		.byte	-40
 1097 02bb 80       		.byte	-128
 1098 02bc EE       		.byte	-18
 1099 02bd 80       		.byte	-128
 1100 02be 0E       		.byte	14
 1101 02bf 08       		.byte	8
 1102 02c0 6D       		.byte	109
 1103 02c1 01       		.byte	1
 1104 02c2 6E       		.byte	110
 1105 02c3 08       		.byte	8
 1106 02c4 73       		.byte	115
 1107 02c5 02       		.byte	2
 1108 02c6 87       		.byte	-121
 1109 02c7 02       		.byte	2
 1110 02c8 C2       		.byte	-62
 1111 02c9 80       		.byte	-128
 1112 02ca DA       		.byte	-38
 1113 02cb 80       		.byte	-128
 1114 02cc DC       		.byte	-36
 1115 02cd 60       		.byte	96
 1116 02ce E6       		.byte	-26
ARM GAS  C:\Users\CCPOW_~1\AppData\Local\Temp\ccKp58WT.s 			page 34


 1117 02cf 40       		.byte	64
 1118 02d0 0A       		.byte	10
 1119 02d1 10       		.byte	16
 1120 02d2 5F       		.byte	95
 1121 02d3 08       		.byte	8
 1122 02d4 82       		.byte	-126
 1123 02d5 10       		.byte	16
 1124 02d6 85       		.byte	-123
 1125 02d7 01       		.byte	1
 1126 02d8 95       		.byte	-107
 1127 02d9 01       		.byte	1
 1128 02da 9B       		.byte	-101
 1129 02db 08       		.byte	8
 1130 02dc B3       		.byte	-77
 1131 02dd 08       		.byte	8
 1132 02de C2       		.byte	-62
 1133 02df 10       		.byte	16
 1134 02e0 D6       		.byte	-42
 1135 02e1 80       		.byte	-128
 1136 02e2 E0       		.byte	-32
 1137 02e3 80       		.byte	-128
 1138 02e4 E2       		.byte	-30
 1139 02e5 10       		.byte	16
 1140 02e6 10       		.byte	16
 1141 02e7 01       		.byte	1
 1142 02e8 11       		.byte	17
 1143 02e9 01       		.byte	1
 1144              		.text
 1145              	.Letext0:
 1146              		.file 2 "d:\\programs\\psoccreator\\psoc creator\\4.1\\psoc creator\\import\\gnu\\arm\\5.4.1\\lib\
 1147              		.file 3 "Generated_Source\\PSoC4\\cytypes.h"
 1148              		.file 4 "Generated_Source\\PSoC4\\CyLib.h"