ARM GAS  C:\Users\CCPOW_~1\AppData\Local\Temp\ccf5ryCM.s 			page 1


   1              		.syntax unified
   2              		.cpu cortex-m0
   3              		.fpu softvfp
   4              		.eabi_attribute 20, 1
   5              		.eabi_attribute 21, 1
   6              		.eabi_attribute 23, 3
   7              		.eabi_attribute 24, 1
   8              		.eabi_attribute 25, 1
   9              		.eabi_attribute 26, 1
  10              		.eabi_attribute 30, 4
  11              		.eabi_attribute 34, 0
  12              		.eabi_attribute 18, 4
  13              		.thumb
  14              		.syntax unified
  15              		.file	"cyPm.c"
  16              		.text
  17              	.Ltext0:
  18              		.cfi_sections	.debug_frame
  19              		.section	.text.CySysPmSleep,"ax",%progbits
  20              		.align	1
  21              		.global	CySysPmSleep
  22              		.code	16
  23              		.thumb_func
  24              		.type	CySysPmSleep, %function
  25              	CySysPmSleep:
  26              	.LFB0:
  27              		.file 1 "Generated_Source\\PSoC4\\cyPm.c"
   1:Generated_Source\PSoC4/cyPm.c **** /***************************************************************************//**
   2:Generated_Source\PSoC4/cyPm.c **** * \file cyPm.c
   3:Generated_Source\PSoC4/cyPm.c **** * \version 5.50
   4:Generated_Source\PSoC4/cyPm.c **** *
   5:Generated_Source\PSoC4/cyPm.c **** * \brief Provides an API for the power management.
   6:Generated_Source\PSoC4/cyPm.c **** *
   7:Generated_Source\PSoC4/cyPm.c **** * \note Documentation of the API's in this file is located in the System
   8:Generated_Source\PSoC4/cyPm.c **** * Reference Guide provided with PSoC Creator.
   9:Generated_Source\PSoC4/cyPm.c **** *
  10:Generated_Source\PSoC4/cyPm.c **** ********************************************************************************
  11:Generated_Source\PSoC4/cyPm.c **** * \copyright
  12:Generated_Source\PSoC4/cyPm.c **** * Copyright 2011-2016, Cypress Semiconductor Corporation.  All rights reserved.
  13:Generated_Source\PSoC4/cyPm.c **** * You may use this file only in accordance with the license, terms, conditions,
  14:Generated_Source\PSoC4/cyPm.c **** * disclaimers, and limitations in the end user license agreement accompanying
  15:Generated_Source\PSoC4/cyPm.c **** * the software package with which this file was provided.
  16:Generated_Source\PSoC4/cyPm.c **** *******************************************************************************/
  17:Generated_Source\PSoC4/cyPm.c **** 
  18:Generated_Source\PSoC4/cyPm.c **** #include "cyPm.h"
  19:Generated_Source\PSoC4/cyPm.c **** #include "CyLib.h"
  20:Generated_Source\PSoC4/cyPm.c **** 
  21:Generated_Source\PSoC4/cyPm.c **** 
  22:Generated_Source\PSoC4/cyPm.c **** /*******************************************************************************
  23:Generated_Source\PSoC4/cyPm.c **** * Function Name: CySysPmSleep
  24:Generated_Source\PSoC4/cyPm.c **** ****************************************************************************//**
  25:Generated_Source\PSoC4/cyPm.c **** *
  26:Generated_Source\PSoC4/cyPm.c **** * Puts the part into the Sleep state. This is a CPU-centric power mode.
  27:Generated_Source\PSoC4/cyPm.c **** * It means that the CPU has indicated that it is in the sleep mode and
  28:Generated_Source\PSoC4/cyPm.c **** * its main clock can be removed. It is identical to Active from a peripheral
  29:Generated_Source\PSoC4/cyPm.c **** * point of view. Any enabled interrupts can cause wakeup from the Sleep mode.
  30:Generated_Source\PSoC4/cyPm.c **** *
ARM GAS  C:\Users\CCPOW_~1\AppData\Local\Temp\ccf5ryCM.s 			page 2


  31:Generated_Source\PSoC4/cyPm.c **** *******************************************************************************/
  32:Generated_Source\PSoC4/cyPm.c **** void CySysPmSleep(void)
  33:Generated_Source\PSoC4/cyPm.c **** {
  28              		.loc 1 33 0
  29              		.cfi_startproc
  30              		@ args = 0, pretend = 0, frame = 0
  31              		@ frame_needed = 0, uses_anonymous_args = 0
  32 0000 10B5     		push	{r4, lr}
  33              		.cfi_def_cfa_offset 8
  34              		.cfi_offset 4, -8
  35              		.cfi_offset 14, -4
  34:Generated_Source\PSoC4/cyPm.c ****     uint8 interruptState;
  35:Generated_Source\PSoC4/cyPm.c **** 
  36:Generated_Source\PSoC4/cyPm.c ****     interruptState = CyEnterCriticalSection();
  36              		.loc 1 36 0
  37 0002 FFF7FEFF 		bl	CyEnterCriticalSection
  38              	.LVL0:
  37:Generated_Source\PSoC4/cyPm.c **** 
  38:Generated_Source\PSoC4/cyPm.c ****     /* CPU enters Sleep mode upon execution of WFI */
  39:Generated_Source\PSoC4/cyPm.c ****     CY_PM_CPU_SCR_REG &= (uint32) (~CY_PM_CPU_SCR_SLEEPDEEP);
  39              		.loc 1 39 0
  40 0006 0421     		movs	r1, #4
  41 0008 034A     		ldr	r2, .L2
  42 000a 1368     		ldr	r3, [r2]
  43 000c 8B43     		bics	r3, r1
  44 000e 1360     		str	r3, [r2]
  40:Generated_Source\PSoC4/cyPm.c **** 
  41:Generated_Source\PSoC4/cyPm.c ****     /* Sleep and wait for interrupt */
  42:Generated_Source\PSoC4/cyPm.c ****     CY_PM_WFI;
  45              		.loc 1 42 0
  46              		.syntax divided
  47              	@ 42 "Generated_Source\PSoC4\cyPm.c" 1
  48 0010 30BF     		WFI 
  49              	
  50              	@ 0 "" 2
  43:Generated_Source\PSoC4/cyPm.c **** 
  44:Generated_Source\PSoC4/cyPm.c ****     CyExitCriticalSection(interruptState);
  51              		.loc 1 44 0
  52              		.thumb
  53              		.syntax unified
  54 0012 FFF7FEFF 		bl	CyExitCriticalSection
  55              	.LVL1:
  45:Generated_Source\PSoC4/cyPm.c **** }
  56              		.loc 1 45 0
  57              		@ sp needed
  58 0016 10BD     		pop	{r4, pc}
  59              	.L3:
  60              		.align	2
  61              	.L2:
  62 0018 10ED00E0 		.word	-536810224
  63              		.cfi_endproc
  64              	.LFE0:
  65              		.size	CySysPmSleep, .-CySysPmSleep
  66              		.section	.text.CySysPmDeepSleep,"ax",%progbits
  67              		.align	1
  68              		.global	CySysPmDeepSleep
  69              		.code	16
ARM GAS  C:\Users\CCPOW_~1\AppData\Local\Temp\ccf5ryCM.s 			page 3


  70              		.thumb_func
  71              		.type	CySysPmDeepSleep, %function
  72              	CySysPmDeepSleep:
  73              	.LFB1:
  46:Generated_Source\PSoC4/cyPm.c **** 
  47:Generated_Source\PSoC4/cyPm.c **** 
  48:Generated_Source\PSoC4/cyPm.c **** /*******************************************************************************
  49:Generated_Source\PSoC4/cyPm.c **** * Function Name: CySysPmDeepSleep
  50:Generated_Source\PSoC4/cyPm.c **** ****************************************************************************//**
  51:Generated_Source\PSoC4/cyPm.c **** *
  52:Generated_Source\PSoC4/cyPm.c **** * Puts the part into the Deep Sleep state. If the firmware attempts to enter
  53:Generated_Source\PSoC4/cyPm.c **** * this mode before the system is ready (that is, when
  54:Generated_Source\PSoC4/cyPm.c **** * PWR_CONTROL.LPM_READY = 0), then the device will go into the Sleep mode
  55:Generated_Source\PSoC4/cyPm.c **** * instead and automatically enter the originally intended mode when the
  56:Generated_Source\PSoC4/cyPm.c **** * holdoff expires.
  57:Generated_Source\PSoC4/cyPm.c **** *
  58:Generated_Source\PSoC4/cyPm.c **** * The wakeup occurs when an interrupt is received from a DeepSleep or
  59:Generated_Source\PSoC4/cyPm.c **** * Hibernate peripheral. For more details, see a corresponding
  60:Generated_Source\PSoC4/cyPm.c **** * peripheral's datasheet.
  61:Generated_Source\PSoC4/cyPm.c **** *
  62:Generated_Source\PSoC4/cyPm.c **** *******************************************************************************/
  63:Generated_Source\PSoC4/cyPm.c **** void CySysPmDeepSleep(void)
  64:Generated_Source\PSoC4/cyPm.c **** {
  74              		.loc 1 64 0
  75              		.cfi_startproc
  76              		@ args = 0, pretend = 0, frame = 8
  77              		@ frame_needed = 0, uses_anonymous_args = 0
  78 0000 F7B5     		push	{r0, r1, r2, r4, r5, r6, r7, lr}
  79              		.cfi_def_cfa_offset 32
  80              		.cfi_offset 0, -32
  81              		.cfi_offset 1, -28
  82              		.cfi_offset 2, -24
  83              		.cfi_offset 4, -20
  84              		.cfi_offset 5, -16
  85              		.cfi_offset 6, -12
  86              		.cfi_offset 7, -8
  87              		.cfi_offset 14, -4
  65:Generated_Source\PSoC4/cyPm.c ****     uint8 interruptState;
  66:Generated_Source\PSoC4/cyPm.c ****     #if(CY_IP_SRSSV2)
  67:Generated_Source\PSoC4/cyPm.c ****         volatile uint32 clkSelectReg;
  68:Generated_Source\PSoC4/cyPm.c ****     #endif /* (CY_IP_SRSSV2) */
  69:Generated_Source\PSoC4/cyPm.c **** 
  70:Generated_Source\PSoC4/cyPm.c ****     interruptState = CyEnterCriticalSection();
  71:Generated_Source\PSoC4/cyPm.c **** 
  72:Generated_Source\PSoC4/cyPm.c ****     #if(CY_IP_SRSSV2)
  73:Generated_Source\PSoC4/cyPm.c ****         /* Device enters DeepSleep mode when CPU asserts SLEEPDEEP signal */
  74:Generated_Source\PSoC4/cyPm.c ****         CY_PM_PWR_CONTROL_REG &= (uint32) (~CY_PM_PWR_CONTROL_HIBERNATE);
  75:Generated_Source\PSoC4/cyPm.c ****     #endif /* (CY_IP_SRSSV2) */
  76:Generated_Source\PSoC4/cyPm.c **** 
  77:Generated_Source\PSoC4/cyPm.c ****     #if (CY_IP_CPUSS && CY_IP_SRSSV2)
  78:Generated_Source\PSoC4/cyPm.c ****         CY_PM_CPUSS_CONFIG_REG |= CY_PM_CPUSS_CONFIG_FLSH_ACC_BYPASS;
  88              		.loc 1 78 0
  89 0002 8025     		movs	r5, #128
  90 0004 0226     		movs	r6, #2
  70:Generated_Source\PSoC4/cyPm.c **** 
  91              		.loc 1 70 0
  92 0006 FFF7FEFF 		bl	CyEnterCriticalSection
ARM GAS  C:\Users\CCPOW_~1\AppData\Local\Temp\ccf5ryCM.s 			page 4


  93              	.LVL2:
  79:Generated_Source\PSoC4/cyPm.c ****     #endif /* (CY_IP_CPUSS && CY_IP_SRSSV2) */
  80:Generated_Source\PSoC4/cyPm.c **** 
  81:Generated_Source\PSoC4/cyPm.c ****     /* Adjust delay to wait for references to settle on wakeup from Deep Sleep */
  82:Generated_Source\PSoC4/cyPm.c ****     CY_PM_PWR_KEY_DELAY_REG = CY_SFLASH_DPSLP_KEY_DELAY_REG;
  83:Generated_Source\PSoC4/cyPm.c **** 
  84:Generated_Source\PSoC4/cyPm.c ****     /* CPU enters DeepSleep/Hibernate mode upon execution of WFI */
  85:Generated_Source\PSoC4/cyPm.c ****     CY_PM_CPU_SCR_REG |= CY_PM_CPU_SCR_SLEEPDEEP;
  94              		.loc 1 85 0
  95 000a 0421     		movs	r1, #4
  74:Generated_Source\PSoC4/cyPm.c ****     #endif /* (CY_IP_SRSSV2) */
  96              		.loc 1 74 0
  97 000c 114A     		ldr	r2, .L5
  78:Generated_Source\PSoC4/cyPm.c ****     #endif /* (CY_IP_CPUSS && CY_IP_SRSSV2) */
  98              		.loc 1 78 0
  99 000e ED05     		lsls	r5, r5, #23
  74:Generated_Source\PSoC4/cyPm.c ****     #endif /* (CY_IP_SRSSV2) */
 100              		.loc 1 74 0
 101 0010 1368     		ldr	r3, [r2]
  86:Generated_Source\PSoC4/cyPm.c **** 
  87:Generated_Source\PSoC4/cyPm.c ****     #if(CY_IP_SRSSV2)
  88:Generated_Source\PSoC4/cyPm.c ****         /* Preserve system clock configuration and
  89:Generated_Source\PSoC4/cyPm.c ****         * reduce sysclk to <=12 MHz (Cypress ID #158710, #179888).
  90:Generated_Source\PSoC4/cyPm.c ****         */
  91:Generated_Source\PSoC4/cyPm.c ****         clkSelectReg = CY_SYS_CLK_SELECT_REG;
 102              		.loc 1 91 0
 103 0012 114F     		ldr	r7, .L5+4
  74:Generated_Source\PSoC4/cyPm.c ****     #endif /* (CY_IP_SRSSV2) */
 104              		.loc 1 74 0
 105 0014 5B00     		lsls	r3, r3, #1
 106 0016 5B08     		lsrs	r3, r3, #1
 107 0018 1360     		str	r3, [r2]
  78:Generated_Source\PSoC4/cyPm.c ****     #endif /* (CY_IP_CPUSS && CY_IP_SRSSV2) */
 108              		.loc 1 78 0
 109 001a 2B68     		ldr	r3, [r5]
  82:Generated_Source\PSoC4/cyPm.c **** 
 110              		.loc 1 82 0
 111 001c 0F4A     		ldr	r2, .L5+8
  78:Generated_Source\PSoC4/cyPm.c ****     #endif /* (CY_IP_CPUSS && CY_IP_SRSSV2) */
 112              		.loc 1 78 0
 113 001e 3343     		orrs	r3, r6
 114 0020 2B60     		str	r3, [r5]
  82:Generated_Source\PSoC4/cyPm.c **** 
 115              		.loc 1 82 0
 116 0022 0F4B     		ldr	r3, .L5+12
  70:Generated_Source\PSoC4/cyPm.c **** 
 117              		.loc 1 70 0
 118 0024 0400     		movs	r4, r0
 119              	.LVL3:
  82:Generated_Source\PSoC4/cyPm.c **** 
 120              		.loc 1 82 0
 121 0026 1B88     		ldrh	r3, [r3]
  92:Generated_Source\PSoC4/cyPm.c ****         CySysClkWriteSysclkDiv(CY_SYS_CLK_SYSCLK_DIV4);
 122              		.loc 1 92 0
 123 0028 3000     		movs	r0, r6
  82:Generated_Source\PSoC4/cyPm.c **** 
 124              		.loc 1 82 0
ARM GAS  C:\Users\CCPOW_~1\AppData\Local\Temp\ccf5ryCM.s 			page 5


 125 002a 9BB2     		uxth	r3, r3
 126 002c 1360     		str	r3, [r2]
  85:Generated_Source\PSoC4/cyPm.c **** 
 127              		.loc 1 85 0
 128 002e 0D4A     		ldr	r2, .L5+16
 129 0030 1368     		ldr	r3, [r2]
 130 0032 0B43     		orrs	r3, r1
 131 0034 1360     		str	r3, [r2]
  91:Generated_Source\PSoC4/cyPm.c ****         CySysClkWriteSysclkDiv(CY_SYS_CLK_SYSCLK_DIV4);
 132              		.loc 1 91 0
 133 0036 3B68     		ldr	r3, [r7]
 134 0038 0193     		str	r3, [sp, #4]
 135              		.loc 1 92 0
 136 003a FFF7FEFF 		bl	CySysClkWriteSysclkDiv
 137              	.LVL4:
  93:Generated_Source\PSoC4/cyPm.c ****     #endif /* (CY_IP_SRSSV2) */
  94:Generated_Source\PSoC4/cyPm.c **** 
  95:Generated_Source\PSoC4/cyPm.c ****     /* Sleep and wait for interrupt */
  96:Generated_Source\PSoC4/cyPm.c ****     CY_PM_WFI;
 138              		.loc 1 96 0
 139              		.syntax divided
 140              	@ 96 "Generated_Source\PSoC4\cyPm.c" 1
 141 003e 30BF     		WFI 
 142              	
 143              	@ 0 "" 2
  97:Generated_Source\PSoC4/cyPm.c **** 
  98:Generated_Source\PSoC4/cyPm.c ****     #if(CY_IP_SRSSV2)
  99:Generated_Source\PSoC4/cyPm.c ****         /* Restore system clock configuration */
 100:Generated_Source\PSoC4/cyPm.c ****         CY_SYS_CLK_SELECT_REG = clkSelectReg;
 144              		.loc 1 100 0
 145              		.thumb
 146              		.syntax unified
 147 0040 019B     		ldr	r3, [sp, #4]
 101:Generated_Source\PSoC4/cyPm.c ****     #endif /* (CY_IP_SRSSV2) */
 102:Generated_Source\PSoC4/cyPm.c **** 
 103:Generated_Source\PSoC4/cyPm.c ****     #if (CY_IP_CPUSS && CY_IP_SRSSV2)
 104:Generated_Source\PSoC4/cyPm.c ****         CY_PM_CPUSS_CONFIG_REG &= (uint32) (~CY_PM_CPUSS_CONFIG_FLSH_ACC_BYPASS);
 105:Generated_Source\PSoC4/cyPm.c ****     #endif /* (CY_IP_CPUSS && CY_IP_SRSSV2) */
 106:Generated_Source\PSoC4/cyPm.c **** 
 107:Generated_Source\PSoC4/cyPm.c ****     CyExitCriticalSection(interruptState);
 148              		.loc 1 107 0
 149 0042 2000     		movs	r0, r4
 100:Generated_Source\PSoC4/cyPm.c ****     #endif /* (CY_IP_SRSSV2) */
 150              		.loc 1 100 0
 151 0044 3B60     		str	r3, [r7]
 104:Generated_Source\PSoC4/cyPm.c ****     #endif /* (CY_IP_CPUSS && CY_IP_SRSSV2) */
 152              		.loc 1 104 0
 153 0046 2B68     		ldr	r3, [r5]
 108:Generated_Source\PSoC4/cyPm.c **** }
 154              		.loc 1 108 0
 155              		@ sp needed
 104:Generated_Source\PSoC4/cyPm.c ****     #endif /* (CY_IP_CPUSS && CY_IP_SRSSV2) */
 156              		.loc 1 104 0
 157 0048 B343     		bics	r3, r6
 158 004a 2B60     		str	r3, [r5]
 107:Generated_Source\PSoC4/cyPm.c **** }
 159              		.loc 1 107 0
ARM GAS  C:\Users\CCPOW_~1\AppData\Local\Temp\ccf5ryCM.s 			page 6


 160 004c FFF7FEFF 		bl	CyExitCriticalSection
 161              	.LVL5:
 162              	.LVL6:
 163              		.loc 1 108 0
 164 0050 F7BD     		pop	{r0, r1, r2, r4, r5, r6, r7, pc}
 165              	.L6:
 166 0052 C046     		.align	2
 167              	.L5:
 168 0054 00000B40 		.word	1074462720
 169 0058 00010B40 		.word	1074462976
 170 005c 0C000B40 		.word	1074462732
 171 0060 52F1FF0F 		.word	268431698
 172 0064 10ED00E0 		.word	-536810224
 173              		.cfi_endproc
 174              	.LFE1:
 175              		.size	CySysPmDeepSleep, .-CySysPmDeepSleep
 176              		.section	.text.CySysPmHibernate,"ax",%progbits
 177              		.align	1
 178              		.global	CySysPmHibernate
 179              		.code	16
 180              		.thumb_func
 181              		.type	CySysPmHibernate, %function
 182              	CySysPmHibernate:
 183              	.LFB2:
 109:Generated_Source\PSoC4/cyPm.c **** 
 110:Generated_Source\PSoC4/cyPm.c **** 
 111:Generated_Source\PSoC4/cyPm.c **** #if(CY_IP_SRSSV2)
 112:Generated_Source\PSoC4/cyPm.c **** 
 113:Generated_Source\PSoC4/cyPm.c ****     /*******************************************************************************
 114:Generated_Source\PSoC4/cyPm.c ****     * Function Name: CySysPmHibernate
 115:Generated_Source\PSoC4/cyPm.c ****     ****************************************************************************//**
 116:Generated_Source\PSoC4/cyPm.c ****     *
 117:Generated_Source\PSoC4/cyPm.c ****     * Puts the part into the Hibernate state. Only SRAM and UDBs are retained;
 118:Generated_Source\PSoC4/cyPm.c ****     * most internal supplies are off. Wakeup is possible from a pin or a hibernate
 119:Generated_Source\PSoC4/cyPm.c ****     * comparator only.
 120:Generated_Source\PSoC4/cyPm.c ****     *
 121:Generated_Source\PSoC4/cyPm.c ****     * It is expected that the firmware has already frozen the IO-Cells using
 122:Generated_Source\PSoC4/cyPm.c ****     * CySysPmFreezeIo() function before the call to this function. If this is
 123:Generated_Source\PSoC4/cyPm.c ****     * omitted, the IO-cells will be frozen in the same way as they are
 124:Generated_Source\PSoC4/cyPm.c ****     * in the Active to Deep Sleep transition, but will lose their state on wake up
 125:Generated_Source\PSoC4/cyPm.c ****     * (because of the reset occurring at that time).
 126:Generated_Source\PSoC4/cyPm.c ****     *
 127:Generated_Source\PSoC4/cyPm.c ****     * Because all the CPU state is lost, the CPU will start up at the reset vector.
 128:Generated_Source\PSoC4/cyPm.c ****     * To save the firmware state through the Hibernate low power mode, a
 129:Generated_Source\PSoC4/cyPm.c ****     * corresponding variable should be defined with CY_NOINIT attribute. It
 130:Generated_Source\PSoC4/cyPm.c ****     * prevents data from being initialized to zero on startup. The interrupt
 131:Generated_Source\PSoC4/cyPm.c ****     * cause of the hibernate peripheral is retained, such that it can be either
 132:Generated_Source\PSoC4/cyPm.c ****     * read by the firmware or cause an interrupt after the firmware has booted and
 133:Generated_Source\PSoC4/cyPm.c ****     * enabled the corresponding interrupt. To distinguish the wakeup from
 134:Generated_Source\PSoC4/cyPm.c ****     * the Hibernate mode and the general Reset event, the
 135:Generated_Source\PSoC4/cyPm.c ****     * \ref CySysPmGetResetReason() function could be used.
 136:Generated_Source\PSoC4/cyPm.c ****     *
 137:Generated_Source\PSoC4/cyPm.c ****     *******************************************************************************/
 138:Generated_Source\PSoC4/cyPm.c ****     void CySysPmHibernate(void)
 139:Generated_Source\PSoC4/cyPm.c ****     {
 184              		.loc 1 139 0
 185              		.cfi_startproc
ARM GAS  C:\Users\CCPOW_~1\AppData\Local\Temp\ccf5ryCM.s 			page 7


 186              		@ args = 0, pretend = 0, frame = 0
 187              		@ frame_needed = 0, uses_anonymous_args = 0
 188 0000 10B5     		push	{r4, lr}
 189              		.cfi_def_cfa_offset 8
 190              		.cfi_offset 4, -8
 191              		.cfi_offset 14, -4
 140:Generated_Source\PSoC4/cyPm.c ****         uint8 interruptState;
 141:Generated_Source\PSoC4/cyPm.c **** 
 142:Generated_Source\PSoC4/cyPm.c ****         interruptState = CyEnterCriticalSection();
 192              		.loc 1 142 0
 193 0002 FFF7FEFF 		bl	CyEnterCriticalSection
 194              	.LVL7:
 143:Generated_Source\PSoC4/cyPm.c **** 
 144:Generated_Source\PSoC4/cyPm.c ****         #if (CY_IP_HOBTO_DEVICE)
 145:Generated_Source\PSoC4/cyPm.c ****             /* Disable input buffers for all ports */
 146:Generated_Source\PSoC4/cyPm.c ****             CySysPmHibPinsDisableInputBuf();
 147:Generated_Source\PSoC4/cyPm.c ****         #endif /* (CY_IP_HOBTO_DEVICE) */
 148:Generated_Source\PSoC4/cyPm.c **** 
 149:Generated_Source\PSoC4/cyPm.c ****         /* Device enters Hibernate mode when CPU asserts SLEEPDEEP signal */
 150:Generated_Source\PSoC4/cyPm.c ****         CY_PM_PWR_CONTROL_REG |= CY_PM_PWR_CONTROL_HIBERNATE;
 195              		.loc 1 150 0
 196 0006 8021     		movs	r1, #128
 197 0008 0C4A     		ldr	r2, .L8
 198 000a 0906     		lsls	r1, r1, #24
 199 000c 1368     		ldr	r3, [r2]
 200 000e 0B43     		orrs	r3, r1
 151:Generated_Source\PSoC4/cyPm.c **** 
 152:Generated_Source\PSoC4/cyPm.c ****         /* Adjust delay to wait for references to settle on wakeup from hibernate */
 153:Generated_Source\PSoC4/cyPm.c ****         CY_PM_PWR_KEY_DELAY_REG = CY_SFLASH_HIB_KEY_DELAY_REG;
 154:Generated_Source\PSoC4/cyPm.c **** 
 155:Generated_Source\PSoC4/cyPm.c ****         /* CPU enters DeepSleep/Hibernate mode upon execution of WFI */
 156:Generated_Source\PSoC4/cyPm.c ****         CY_PM_CPU_SCR_REG |= CY_PM_CPU_SCR_SLEEPDEEP;
 201              		.loc 1 156 0
 202 0010 0421     		movs	r1, #4
 150:Generated_Source\PSoC4/cyPm.c **** 
 203              		.loc 1 150 0
 204 0012 1360     		str	r3, [r2]
 153:Generated_Source\PSoC4/cyPm.c **** 
 205              		.loc 1 153 0
 206 0014 0A4B     		ldr	r3, .L8+4
 207 0016 0B4A     		ldr	r2, .L8+8
 208 0018 1B88     		ldrh	r3, [r3]
 209 001a 9BB2     		uxth	r3, r3
 210 001c 1360     		str	r3, [r2]
 211              		.loc 1 156 0
 212 001e 0A4A     		ldr	r2, .L8+12
 213 0020 1368     		ldr	r3, [r2]
 214 0022 0B43     		orrs	r3, r1
 215 0024 1360     		str	r3, [r2]
 157:Generated_Source\PSoC4/cyPm.c **** 
 158:Generated_Source\PSoC4/cyPm.c ****         /* Save token that will retain through a STOP/WAKEUP sequence
 159:Generated_Source\PSoC4/cyPm.c ****          * thus could be used by CySysPmGetResetReason() to differentiate
 160:Generated_Source\PSoC4/cyPm.c ****          * WAKEUP from a general RESET event.
 161:Generated_Source\PSoC4/cyPm.c ****          */
 162:Generated_Source\PSoC4/cyPm.c ****         CY_PM_PWR_STOP_REG = (CY_PM_PWR_STOP_REG & (uint32)(~CY_PM_PWR_STOP_TOKEN_MASK)) | CY_PM_PW
 216              		.loc 1 162 0
 217 0026 094A     		ldr	r2, .L8+16
ARM GAS  C:\Users\CCPOW_~1\AppData\Local\Temp\ccf5ryCM.s 			page 8


 218 0028 FB31     		adds	r1, r1, #251
 219 002a 1368     		ldr	r3, [r2]
 220 002c 8B43     		bics	r3, r1
 221 002e 0E39     		subs	r1, r1, #14
 222 0030 0B43     		orrs	r3, r1
 223 0032 1360     		str	r3, [r2]
 163:Generated_Source\PSoC4/cyPm.c **** 
 164:Generated_Source\PSoC4/cyPm.c ****         /* Sleep and wait for interrupt. Wakeup from Hibernate is performed
 165:Generated_Source\PSoC4/cyPm.c ****          * through RESET state, causing a normal Boot procedure to occur.
 166:Generated_Source\PSoC4/cyPm.c ****          * The WFI instruction doesn't put the core to sleep if its wake condition
 167:Generated_Source\PSoC4/cyPm.c ****          * is true when the instruction is executed.
 168:Generated_Source\PSoC4/cyPm.c ****          */
 169:Generated_Source\PSoC4/cyPm.c ****         CY_PM_WFI;
 224              		.loc 1 169 0
 225              		.syntax divided
 226              	@ 169 "Generated_Source\PSoC4\cyPm.c" 1
 227 0034 30BF     		WFI 
 228              	
 229              	@ 0 "" 2
 170:Generated_Source\PSoC4/cyPm.c **** 
 171:Generated_Source\PSoC4/cyPm.c ****         CyExitCriticalSection(interruptState);
 230              		.loc 1 171 0
 231              		.thumb
 232              		.syntax unified
 233 0036 FFF7FEFF 		bl	CyExitCriticalSection
 234              	.LVL8:
 172:Generated_Source\PSoC4/cyPm.c ****     }
 235              		.loc 1 172 0
 236              		@ sp needed
 237 003a 10BD     		pop	{r4, pc}
 238              	.L9:
 239              		.align	2
 240              	.L8:
 241 003c 00000B40 		.word	1074462720
 242 0040 50F1FF0F 		.word	268431696
 243 0044 0C000B40 		.word	1074462732
 244 0048 10ED00E0 		.word	-536810224
 245 004c 2C000B40 		.word	1074462764
 246              		.cfi_endproc
 247              	.LFE2:
 248              		.size	CySysPmHibernate, .-CySysPmHibernate
 249              		.section	.text.CySysPmSetWakeupPolarity,"ax",%progbits
 250              		.align	1
 251              		.global	CySysPmSetWakeupPolarity
 252              		.code	16
 253              		.thumb_func
 254              		.type	CySysPmSetWakeupPolarity, %function
 255              	CySysPmSetWakeupPolarity:
 256              	.LFB4:
 173:Generated_Source\PSoC4/cyPm.c **** 
 174:Generated_Source\PSoC4/cyPm.c **** 
 175:Generated_Source\PSoC4/cyPm.c ****     /*******************************************************************************
 176:Generated_Source\PSoC4/cyPm.c ****     * Function Name: CySysPmStop
 177:Generated_Source\PSoC4/cyPm.c ****     ****************************************************************************//**
 178:Generated_Source\PSoC4/cyPm.c ****     *
 179:Generated_Source\PSoC4/cyPm.c ****     * Puts the part into the Stop state. All internal supplies are off;
 180:Generated_Source\PSoC4/cyPm.c ****     * no state is retained.
ARM GAS  C:\Users\CCPOW_~1\AppData\Local\Temp\ccf5ryCM.s 			page 9


 181:Generated_Source\PSoC4/cyPm.c ****     *
 182:Generated_Source\PSoC4/cyPm.c ****     * Wakeup from Stop is performed by toggling the wakeup pin, causing
 183:Generated_Source\PSoC4/cyPm.c ****     * a normal boot procedure to occur. To configure the wakeup pin,
 184:Generated_Source\PSoC4/cyPm.c ****     * the Digital Input Pin component should be placed on the schematic,
 185:Generated_Source\PSoC4/cyPm.c ****     * assigned to the wakeup pin, and resistively pulled up or down to the inverse
 186:Generated_Source\PSoC4/cyPm.c ****     * state of the wakeup polarity. To distinguish the wakeup from the Stop mode
 187:Generated_Source\PSoC4/cyPm.c ****     * and the general Reset event, \ref CySysPmGetResetReason() function could be
 188:Generated_Source\PSoC4/cyPm.c ****     * used.  The wakeup pin is active low by default. The wakeup pin polarity
 189:Generated_Source\PSoC4/cyPm.c ****     * could be changed with the \ref CySysPmSetWakeupPolarity() function.
 190:Generated_Source\PSoC4/cyPm.c ****     *
 191:Generated_Source\PSoC4/cyPm.c ****     * This function freezes IO cells implicitly. It is not possible to enter
 192:Generated_Source\PSoC4/cyPm.c ****     * the STOP mode before freezing the IO cells. The IO cells remain frozen after
 193:Generated_Source\PSoC4/cyPm.c ****     * awake from the Stop mode until the firmware unfreezes them after booting
 194:Generated_Source\PSoC4/cyPm.c ****     * explicitly with \ref CySysPmUnfreezeIo() function call.
 195:Generated_Source\PSoC4/cyPm.c ****     *
 196:Generated_Source\PSoC4/cyPm.c ****     *******************************************************************************/
 197:Generated_Source\PSoC4/cyPm.c ****     void CySysPmStop(void)
 198:Generated_Source\PSoC4/cyPm.c ****     {
 199:Generated_Source\PSoC4/cyPm.c ****         (void) CyEnterCriticalSection();
 200:Generated_Source\PSoC4/cyPm.c **** 
 201:Generated_Source\PSoC4/cyPm.c ****         /* Update token to indicate Stop mode transition. Preserve only polarity. */
 202:Generated_Source\PSoC4/cyPm.c ****         CY_PM_PWR_STOP_REG = (CY_PM_PWR_STOP_REG & CY_PM_PWR_STOP_POLARITY) | CY_PM_PWR_STOP_TOKEN_
 203:Generated_Source\PSoC4/cyPm.c **** 
 204:Generated_Source\PSoC4/cyPm.c ****         /* Freeze IO-Cells to save IO-Cell state */
 205:Generated_Source\PSoC4/cyPm.c ****         CySysPmFreezeIo();
 206:Generated_Source\PSoC4/cyPm.c **** 
 207:Generated_Source\PSoC4/cyPm.c ****         /* Initiates transition to Stop state */
 208:Generated_Source\PSoC4/cyPm.c ****         CY_PM_PWR_STOP_REG = CY_PM_PWR_STOP_REG | CY_PM_PWR_STOP_STOP;
 209:Generated_Source\PSoC4/cyPm.c **** 
 210:Generated_Source\PSoC4/cyPm.c ****         /* Depending on the clock frequency and internal timing delays,
 211:Generated_Source\PSoC4/cyPm.c ****          * the final AHB transaction may or may not complete. To guard against
 212:Generated_Source\PSoC4/cyPm.c ****          * accidentally executing an unintended instruction, it is recommended
 213:Generated_Source\PSoC4/cyPm.c ****          * to add 2 NOP cycles after the final write to the STOP register.
 214:Generated_Source\PSoC4/cyPm.c ****          */
 215:Generated_Source\PSoC4/cyPm.c ****         CY_NOP;
 216:Generated_Source\PSoC4/cyPm.c ****         CY_NOP;
 217:Generated_Source\PSoC4/cyPm.c **** 
 218:Generated_Source\PSoC4/cyPm.c ****         /* Should never get to this WFI instruction */
 219:Generated_Source\PSoC4/cyPm.c ****         CY_PM_WFI;
 220:Generated_Source\PSoC4/cyPm.c **** 
 221:Generated_Source\PSoC4/cyPm.c ****         /* Wakeup from Stop is performed by toggling of Wakeup pin,
 222:Generated_Source\PSoC4/cyPm.c ****          * causing a normal Boot procedure to occur. No need to exit
 223:Generated_Source\PSoC4/cyPm.c ****          * from the critical section.
 224:Generated_Source\PSoC4/cyPm.c ****          */
 225:Generated_Source\PSoC4/cyPm.c ****     }
 226:Generated_Source\PSoC4/cyPm.c **** 
 227:Generated_Source\PSoC4/cyPm.c **** 
 228:Generated_Source\PSoC4/cyPm.c ****     /*******************************************************************************
 229:Generated_Source\PSoC4/cyPm.c ****     * Function Name: CySysPmSetWakeupPolarity
 230:Generated_Source\PSoC4/cyPm.c ****     ****************************************************************************//**
 231:Generated_Source\PSoC4/cyPm.c ****     *
 232:Generated_Source\PSoC4/cyPm.c ****     * Wake up from the stop mode is performed by toggling the wakeup pin,
 233:Generated_Source\PSoC4/cyPm.c ****     * causing a normal boot procedure to occur. This function assigns
 234:Generated_Source\PSoC4/cyPm.c ****     * the wakeup pin active level. Setting the wakeup pin to this level will cause
 235:Generated_Source\PSoC4/cyPm.c ****     * the wakeup from stop mode. The wakeup pin is active low by default.
 236:Generated_Source\PSoC4/cyPm.c ****     *
 237:Generated_Source\PSoC4/cyPm.c ****     * \param polarity
ARM GAS  C:\Users\CCPOW_~1\AppData\Local\Temp\ccf5ryCM.s 			page 10


 238:Generated_Source\PSoC4/cyPm.c ****     * - \ref CY_PM_STOP_WAKEUP_ACTIVE_LOW Logical zero will wakeup the chip
 239:Generated_Source\PSoC4/cyPm.c ****     * - \ref CY_PM_STOP_WAKEUP_ACTIVE_HIGH Logical one will wakeup the chip
 240:Generated_Source\PSoC4/cyPm.c ****     *
 241:Generated_Source\PSoC4/cyPm.c ****     *******************************************************************************/
 242:Generated_Source\PSoC4/cyPm.c ****     void CySysPmSetWakeupPolarity(uint32 polarity)
 243:Generated_Source\PSoC4/cyPm.c ****     {
 257              		.loc 1 243 0
 258              		.cfi_startproc
 259              		@ args = 0, pretend = 0, frame = 0
 260              		@ frame_needed = 0, uses_anonymous_args = 0
 261              	.LVL9:
 262 0000 10B5     		push	{r4, lr}
 263              		.cfi_def_cfa_offset 8
 264              		.cfi_offset 4, -8
 265              		.cfi_offset 14, -4
 266              		.loc 1 243 0
 267 0002 0400     		movs	r4, r0
 244:Generated_Source\PSoC4/cyPm.c ****         uint8 interruptState;
 245:Generated_Source\PSoC4/cyPm.c **** 
 246:Generated_Source\PSoC4/cyPm.c ****         interruptState = CyEnterCriticalSection();
 268              		.loc 1 246 0
 269 0004 FFF7FEFF 		bl	CyEnterCriticalSection
 270              	.LVL10:
 271 0008 074A     		ldr	r2, .L14
 247:Generated_Source\PSoC4/cyPm.c **** 
 248:Generated_Source\PSoC4/cyPm.c ****         CY_PM_PWR_STOP_REG = (CY_PM_STOP_WAKEUP_ACTIVE_LOW != polarity) ?
 249:Generated_Source\PSoC4/cyPm.c ****                             (CY_PM_PWR_STOP_REG | CY_PM_PWR_STOP_POLARITY) :
 272              		.loc 1 249 0
 273 000a 002C     		cmp	r4, #0
 274 000c 04D0     		beq	.L11
 275              		.loc 1 249 0 is_stmt 0 discriminator 1
 276 000e 8021     		movs	r1, #128
 277 0010 1368     		ldr	r3, [r2]
 278 0012 4902     		lsls	r1, r1, #9
 279 0014 0B43     		orrs	r3, r1
 280 0016 02E0     		b	.L12
 281              	.L11:
 250:Generated_Source\PSoC4/cyPm.c ****                             (CY_PM_PWR_STOP_REG & (uint32) (~CY_PM_PWR_STOP_POLARITY));
 282              		.loc 1 250 0 is_stmt 1 discriminator 2
 283 0018 1168     		ldr	r1, [r2]
 249:Generated_Source\PSoC4/cyPm.c ****                             (CY_PM_PWR_STOP_REG & (uint32) (~CY_PM_PWR_STOP_POLARITY));
 284              		.loc 1 249 0 discriminator 2
 285 001a 044B     		ldr	r3, .L14+4
 286 001c 0B40     		ands	r3, r1
 287              	.L12:
 248:Generated_Source\PSoC4/cyPm.c ****                             (CY_PM_PWR_STOP_REG | CY_PM_PWR_STOP_POLARITY) :
 288              		.loc 1 248 0
 289 001e 1360     		str	r3, [r2]
 251:Generated_Source\PSoC4/cyPm.c **** 
 252:Generated_Source\PSoC4/cyPm.c ****         CyExitCriticalSection(interruptState);
 290              		.loc 1 252 0
 291 0020 FFF7FEFF 		bl	CyExitCriticalSection
 292              	.LVL11:
 253:Generated_Source\PSoC4/cyPm.c ****     }
 293              		.loc 1 253 0
 294              		@ sp needed
 295              	.LVL12:
ARM GAS  C:\Users\CCPOW_~1\AppData\Local\Temp\ccf5ryCM.s 			page 11


 296 0024 10BD     		pop	{r4, pc}
 297              	.L15:
 298 0026 C046     		.align	2
 299              	.L14:
 300 0028 2C000B40 		.word	1074462764
 301 002c FFFFFEFF 		.word	-65537
 302              		.cfi_endproc
 303              	.LFE4:
 304              		.size	CySysPmSetWakeupPolarity, .-CySysPmSetWakeupPolarity
 305              		.section	.text.CySysPmGetResetReason,"ax",%progbits
 306              		.align	1
 307              		.global	CySysPmGetResetReason
 308              		.code	16
 309              		.thumb_func
 310              		.type	CySysPmGetResetReason, %function
 311              	CySysPmGetResetReason:
 312              	.LFB5:
 254:Generated_Source\PSoC4/cyPm.c **** 
 255:Generated_Source\PSoC4/cyPm.c **** 
 256:Generated_Source\PSoC4/cyPm.c ****     /*******************************************************************************
 257:Generated_Source\PSoC4/cyPm.c ****     * Function Name: CySysPmGetResetReason
 258:Generated_Source\PSoC4/cyPm.c ****     ****************************************************************************//**
 259:Generated_Source\PSoC4/cyPm.c ****     *
 260:Generated_Source\PSoC4/cyPm.c ****     * Retrieves the last reset reason - transition from OFF/XRES/STOP/HIBERNATE to
 261:Generated_Source\PSoC4/cyPm.c ****     * the RESET state. Note that waking up from STOP using XRES will be perceived
 262:Generated_Source\PSoC4/cyPm.c ****     * as a general RESET.
 263:Generated_Source\PSoC4/cyPm.c ****     *
 264:Generated_Source\PSoC4/cyPm.c ****     * \return CY_PM_RESET_REASON_UNKN          Unknown reset reason.
 265:Generated_Source\PSoC4/cyPm.c ****     * \return CY_PM_RESET_REASON_XRES          Transition from OFF/XRES to RESET
 266:Generated_Source\PSoC4/cyPm.c ****     * \return CY_PM_RESET_REASON_WAKEUP_HIB    Transition/wakeup from HIBERNATE to RESET
 267:Generated_Source\PSoC4/cyPm.c ****     * \return CY_PM_RESET_REASON_WAKEUP_STOP   Transition/wakeup from STOP to RESET
 268:Generated_Source\PSoC4/cyPm.c ****     *
 269:Generated_Source\PSoC4/cyPm.c ****     *******************************************************************************/
 270:Generated_Source\PSoC4/cyPm.c ****     uint32 CySysPmGetResetReason(void)
 271:Generated_Source\PSoC4/cyPm.c ****     {
 313              		.loc 1 271 0
 314              		.cfi_startproc
 315              		@ args = 0, pretend = 0, frame = 0
 316              		@ frame_needed = 0, uses_anonymous_args = 0
 317              		@ link register save eliminated.
 318              	.LVL13:
 272:Generated_Source\PSoC4/cyPm.c ****         uint32 reason = CY_PM_RESET_REASON_UNKN;
 273:Generated_Source\PSoC4/cyPm.c **** 
 274:Generated_Source\PSoC4/cyPm.c ****         switch(CY_PM_PWR_STOP_REG & CY_PM_PWR_STOP_TOKEN_MASK)
 319              		.loc 1 274 0
 320 0000 054B     		ldr	r3, .L22
 275:Generated_Source\PSoC4/cyPm.c ****         {
 276:Generated_Source\PSoC4/cyPm.c ****         /* Power up, XRES */
 277:Generated_Source\PSoC4/cyPm.c ****         case CY_PM_PWR_STOP_TOKEN_XRES:
 278:Generated_Source\PSoC4/cyPm.c ****             reason = CY_PM_RESET_REASON_XRES;
 279:Generated_Source\PSoC4/cyPm.c ****             break;
 280:Generated_Source\PSoC4/cyPm.c **** 
 281:Generated_Source\PSoC4/cyPm.c ****         /* Wakeup from Hibernate */
 282:Generated_Source\PSoC4/cyPm.c ****         case CY_PM_PWR_STOP_TOKEN_HIB:
 283:Generated_Source\PSoC4/cyPm.c ****             reason = CY_PM_RESET_REASON_WAKEUP_HIB;
 321              		.loc 1 283 0
 322 0002 0220     		movs	r0, #2
ARM GAS  C:\Users\CCPOW_~1\AppData\Local\Temp\ccf5ryCM.s 			page 12


 274:Generated_Source\PSoC4/cyPm.c ****         {
 323              		.loc 1 274 0
 324 0004 1B68     		ldr	r3, [r3]
 325 0006 DBB2     		uxtb	r3, r3
 326 0008 F12B     		cmp	r3, #241
 327 000a 04D0     		beq	.L17
 284:Generated_Source\PSoC4/cyPm.c ****             break;
 285:Generated_Source\PSoC4/cyPm.c **** 
 286:Generated_Source\PSoC4/cyPm.c ****         /* Wakeup from Stop (through WAKEUP pin assert) */
 287:Generated_Source\PSoC4/cyPm.c ****         case CY_PM_PWR_STOP_TOKEN_STOP:
 288:Generated_Source\PSoC4/cyPm.c ****             reason = CY_PM_RESET_REASON_WAKEUP_STOP;
 328              		.loc 1 288 0
 329 000c 0130     		adds	r0, r0, #1
 274:Generated_Source\PSoC4/cyPm.c ****         {
 330              		.loc 1 274 0
 331 000e F22B     		cmp	r3, #242
 332 0010 01D0     		beq	.L17
 272:Generated_Source\PSoC4/cyPm.c **** 
 333              		.loc 1 272 0
 334 0012 5842     		rsbs	r0, r3, #0
 335 0014 5841     		adcs	r0, r0, r3
 336              	.L17:
 337              	.LVL14:
 289:Generated_Source\PSoC4/cyPm.c ****             break;
 290:Generated_Source\PSoC4/cyPm.c **** 
 291:Generated_Source\PSoC4/cyPm.c ****         /* Unknown reason */
 292:Generated_Source\PSoC4/cyPm.c ****         default:
 293:Generated_Source\PSoC4/cyPm.c ****             break;
 294:Generated_Source\PSoC4/cyPm.c ****         }
 295:Generated_Source\PSoC4/cyPm.c **** 
 296:Generated_Source\PSoC4/cyPm.c ****         return (reason);
 297:Generated_Source\PSoC4/cyPm.c ****     }
 338              		.loc 1 297 0
 339              		@ sp needed
 340 0016 7047     		bx	lr
 341              	.L23:
 342              		.align	2
 343              	.L22:
 344 0018 2C000B40 		.word	1074462764
 345              		.cfi_endproc
 346              	.LFE5:
 347              		.size	CySysPmGetResetReason, .-CySysPmGetResetReason
 348              		.section	.text.CySysPmFreezeIo,"ax",%progbits
 349              		.align	1
 350              		.global	CySysPmFreezeIo
 351              		.code	16
 352              		.thumb_func
 353              		.type	CySysPmFreezeIo, %function
 354              	CySysPmFreezeIo:
 355              	.LFB6:
 298:Generated_Source\PSoC4/cyPm.c **** 
 299:Generated_Source\PSoC4/cyPm.c **** 
 300:Generated_Source\PSoC4/cyPm.c ****     /*******************************************************************************
 301:Generated_Source\PSoC4/cyPm.c ****     * Function Name: CySysPmFreezeIo
 302:Generated_Source\PSoC4/cyPm.c ****     ****************************************************************************//**
 303:Generated_Source\PSoC4/cyPm.c ****     *
 304:Generated_Source\PSoC4/cyPm.c ****     * Freezes IO-Cells directly to save the IO-Cell state on wake up from the
ARM GAS  C:\Users\CCPOW_~1\AppData\Local\Temp\ccf5ryCM.s 			page 13


 305:Generated_Source\PSoC4/cyPm.c ****     * Hibernate or Stop state. It is not required to call this function before
 306:Generated_Source\PSoC4/cyPm.c ****     * entering the Stop mode, since \ref CySysPmStop() function freezes IO-Cells
 307:Generated_Source\PSoC4/cyPm.c ****     * implicitly.
 308:Generated_Source\PSoC4/cyPm.c ****     *
 309:Generated_Source\PSoC4/cyPm.c ****     * This API is not available for PSoC 4000 family of devices.
 310:Generated_Source\PSoC4/cyPm.c ****     *
 311:Generated_Source\PSoC4/cyPm.c ****     *******************************************************************************/
 312:Generated_Source\PSoC4/cyPm.c ****     void CySysPmFreezeIo(void)
 313:Generated_Source\PSoC4/cyPm.c ****     {
 356              		.loc 1 313 0
 357              		.cfi_startproc
 358              		@ args = 0, pretend = 0, frame = 0
 359              		@ frame_needed = 0, uses_anonymous_args = 0
 360 0000 10B5     		push	{r4, lr}
 361              		.cfi_def_cfa_offset 8
 362              		.cfi_offset 4, -8
 363              		.cfi_offset 14, -4
 314:Generated_Source\PSoC4/cyPm.c ****         uint8 interruptState;
 315:Generated_Source\PSoC4/cyPm.c **** 
 316:Generated_Source\PSoC4/cyPm.c ****         interruptState = CyEnterCriticalSection();
 364              		.loc 1 316 0
 365 0002 FFF7FEFF 		bl	CyEnterCriticalSection
 366              	.LVL15:
 317:Generated_Source\PSoC4/cyPm.c **** 
 318:Generated_Source\PSoC4/cyPm.c ****         /* Check FREEZE state to avoid recurrent IO-Cells freeze attempt,
 319:Generated_Source\PSoC4/cyPm.c ****          * since the second call to this function will cause accidental switch
 320:Generated_Source\PSoC4/cyPm.c ****          * to the STOP mode (the system will enter STOP mode immediately after
 321:Generated_Source\PSoC4/cyPm.c ****          * writing to STOP bit since both UNLOCK and FREEZE have been set correctly
 322:Generated_Source\PSoC4/cyPm.c ****          * in a previous call to this function).
 323:Generated_Source\PSoC4/cyPm.c ****          */
 324:Generated_Source\PSoC4/cyPm.c ****         if (0u == (CY_PM_PWR_STOP_REG & CY_PM_PWR_STOP_FREEZE))
 367              		.loc 1 324 0
 368 0006 084B     		ldr	r3, .L26
 369 0008 1A68     		ldr	r2, [r3]
 370 000a 9203     		lsls	r2, r2, #14
 371 000c 09D4     		bmi	.L25
 325:Generated_Source\PSoC4/cyPm.c ****         {
 326:Generated_Source\PSoC4/cyPm.c ****             /* Preserve last reset reason and disable overrides the next freeze command by peripher
 327:Generated_Source\PSoC4/cyPm.c ****             CY_PM_PWR_STOP_REG = CY_PM_PWR_STOP_STOP | CY_PM_PWR_STOP_FREEZE | CY_PM_PWR_STOP_UNLOC
 328:Generated_Source\PSoC4/cyPm.c ****                                 (CY_PM_PWR_STOP_REG & (CY_PM_PWR_STOP_TOKEN_MASK | CY_PM_PWR_STOP_P
 372              		.loc 1 328 0
 373 000e 1968     		ldr	r1, [r3]
 327:Generated_Source\PSoC4/cyPm.c ****                                 (CY_PM_PWR_STOP_REG & (CY_PM_PWR_STOP_TOKEN_MASK | CY_PM_PWR_STOP_P
 374              		.loc 1 327 0
 375 0010 064A     		ldr	r2, .L26+4
 376 0012 0A40     		ands	r2, r1
 377 0014 0649     		ldr	r1, .L26+8
 378 0016 0A43     		orrs	r2, r1
 379 0018 1A60     		str	r2, [r3]
 329:Generated_Source\PSoC4/cyPm.c **** 
 330:Generated_Source\PSoC4/cyPm.c ****             /* If reading after writing, read this register three times to delay
 331:Generated_Source\PSoC4/cyPm.c ****             *  enough time for internal settling.
 332:Generated_Source\PSoC4/cyPm.c ****             */
 333:Generated_Source\PSoC4/cyPm.c ****             (void) CY_PM_PWR_STOP_REG;
 380              		.loc 1 333 0
 381 001a 1A68     		ldr	r2, [r3]
 334:Generated_Source\PSoC4/cyPm.c ****             (void) CY_PM_PWR_STOP_REG;
ARM GAS  C:\Users\CCPOW_~1\AppData\Local\Temp\ccf5ryCM.s 			page 14


 382              		.loc 1 334 0
 383 001c 1A68     		ldr	r2, [r3]
 335:Generated_Source\PSoC4/cyPm.c **** 
 336:Generated_Source\PSoC4/cyPm.c ****             /* Second write causes the freeze of IO-Cells to save IO-Cell state */
 337:Generated_Source\PSoC4/cyPm.c ****             CY_PM_PWR_STOP_REG = CY_PM_PWR_STOP_REG;
 384              		.loc 1 337 0
 385 001e 1A68     		ldr	r2, [r3]
 386 0020 1A60     		str	r2, [r3]
 387              	.L25:
 338:Generated_Source\PSoC4/cyPm.c ****         }
 339:Generated_Source\PSoC4/cyPm.c **** 
 340:Generated_Source\PSoC4/cyPm.c ****         CyExitCriticalSection(interruptState);
 388              		.loc 1 340 0
 389 0022 FFF7FEFF 		bl	CyExitCriticalSection
 390              	.LVL16:
 341:Generated_Source\PSoC4/cyPm.c ****     }
 391              		.loc 1 341 0
 392              		@ sp needed
 393 0026 10BD     		pop	{r4, pc}
 394              	.L27:
 395              		.align	2
 396              	.L26:
 397 0028 2C000B40 		.word	1074462764
 398 002c FF000100 		.word	65791
 399 0030 003A0280 		.word	-2147337728
 400              		.cfi_endproc
 401              	.LFE6:
 402              		.size	CySysPmFreezeIo, .-CySysPmFreezeIo
 403              		.section	.text.CySysPmStop,"ax",%progbits
 404              		.align	1
 405              		.global	CySysPmStop
 406              		.code	16
 407              		.thumb_func
 408              		.type	CySysPmStop, %function
 409              	CySysPmStop:
 410              	.LFB3:
 198:Generated_Source\PSoC4/cyPm.c ****         (void) CyEnterCriticalSection();
 411              		.loc 1 198 0
 412              		.cfi_startproc
 413              		@ args = 0, pretend = 0, frame = 0
 414              		@ frame_needed = 0, uses_anonymous_args = 0
 415 0000 10B5     		push	{r4, lr}
 416              		.cfi_def_cfa_offset 8
 417              		.cfi_offset 4, -8
 418              		.cfi_offset 14, -4
 199:Generated_Source\PSoC4/cyPm.c **** 
 419              		.loc 1 199 0
 420 0002 FFF7FEFF 		bl	CyEnterCriticalSection
 421              	.LVL17:
 202:Generated_Source\PSoC4/cyPm.c **** 
 422              		.loc 1 202 0
 423 0006 8023     		movs	r3, #128
 424 0008 084C     		ldr	r4, .L29
 425 000a 5B02     		lsls	r3, r3, #9
 426 000c 2268     		ldr	r2, [r4]
 427 000e 1340     		ands	r3, r2
 428 0010 F222     		movs	r2, #242
ARM GAS  C:\Users\CCPOW_~1\AppData\Local\Temp\ccf5ryCM.s 			page 15


 429 0012 1343     		orrs	r3, r2
 430 0014 2360     		str	r3, [r4]
 205:Generated_Source\PSoC4/cyPm.c **** 
 431              		.loc 1 205 0
 432 0016 FFF7FEFF 		bl	CySysPmFreezeIo
 433              	.LVL18:
 208:Generated_Source\PSoC4/cyPm.c **** 
 434              		.loc 1 208 0
 435 001a 8022     		movs	r2, #128
 436 001c 2368     		ldr	r3, [r4]
 437 001e 1206     		lsls	r2, r2, #24
 438 0020 1343     		orrs	r3, r2
 439 0022 2360     		str	r3, [r4]
 215:Generated_Source\PSoC4/cyPm.c ****         CY_NOP;
 440              		.loc 1 215 0
 441              		.syntax divided
 442              	@ 215 "Generated_Source\PSoC4\cyPm.c" 1
 443 0024 C046     		NOP
 444              	
 445              	@ 0 "" 2
 216:Generated_Source\PSoC4/cyPm.c **** 
 446              		.loc 1 216 0
 447              	@ 216 "Generated_Source\PSoC4\cyPm.c" 1
 448 0026 C046     		NOP
 449              	
 450              	@ 0 "" 2
 219:Generated_Source\PSoC4/cyPm.c **** 
 451              		.loc 1 219 0
 452              	@ 219 "Generated_Source\PSoC4\cyPm.c" 1
 453 0028 30BF     		WFI 
 454              	
 455              	@ 0 "" 2
 225:Generated_Source\PSoC4/cyPm.c **** 
 456              		.loc 1 225 0
 457              		.thumb
 458              		.syntax unified
 459              		@ sp needed
 460 002a 10BD     		pop	{r4, pc}
 461              	.L30:
 462              		.align	2
 463              	.L29:
 464 002c 2C000B40 		.word	1074462764
 465              		.cfi_endproc
 466              	.LFE3:
 467              		.size	CySysPmStop, .-CySysPmStop
 468              		.section	.text.CySysPmUnfreezeIo,"ax",%progbits
 469              		.align	1
 470              		.global	CySysPmUnfreezeIo
 471              		.code	16
 472              		.thumb_func
 473              		.type	CySysPmUnfreezeIo, %function
 474              	CySysPmUnfreezeIo:
 475              	.LFB7:
 342:Generated_Source\PSoC4/cyPm.c **** 
 343:Generated_Source\PSoC4/cyPm.c **** 
 344:Generated_Source\PSoC4/cyPm.c ****     /*******************************************************************************
 345:Generated_Source\PSoC4/cyPm.c ****     * Function Name: CySysPmUnfreezeIo
ARM GAS  C:\Users\CCPOW_~1\AppData\Local\Temp\ccf5ryCM.s 			page 16


 346:Generated_Source\PSoC4/cyPm.c ****     ****************************************************************************//**
 347:Generated_Source\PSoC4/cyPm.c ****     *
 348:Generated_Source\PSoC4/cyPm.c ****     * The IO-Cells remain frozen after awake from Hibernate or Stop mode until
 349:Generated_Source\PSoC4/cyPm.c ****     * the firmware unfreezes them after booting. The call of this function
 350:Generated_Source\PSoC4/cyPm.c ****     * unfreezes IO-Cells explicitly.
 351:Generated_Source\PSoC4/cyPm.c ****     *
 352:Generated_Source\PSoC4/cyPm.c ****     * If the firmware intent is to retain the data value on the port, then the
 353:Generated_Source\PSoC4/cyPm.c ****     * value must be read and re-written to the data register before calling this
 354:Generated_Source\PSoC4/cyPm.c ****     * API. Furthermore, the drive mode must be re-programmed.  If this is not done,
 355:Generated_Source\PSoC4/cyPm.c ****     * the pin state will change to default state the moment the freeze is removed.
 356:Generated_Source\PSoC4/cyPm.c ****     *
 357:Generated_Source\PSoC4/cyPm.c ****     * This API is not available for PSoC 4000 family of devices.
 358:Generated_Source\PSoC4/cyPm.c ****     *
 359:Generated_Source\PSoC4/cyPm.c ****     *******************************************************************************/
 360:Generated_Source\PSoC4/cyPm.c ****     void CySysPmUnfreezeIo(void)
 361:Generated_Source\PSoC4/cyPm.c ****     {
 476              		.loc 1 361 0
 477              		.cfi_startproc
 478              		@ args = 0, pretend = 0, frame = 0
 479              		@ frame_needed = 0, uses_anonymous_args = 0
 480 0000 10B5     		push	{r4, lr}
 481              		.cfi_def_cfa_offset 8
 482              		.cfi_offset 4, -8
 483              		.cfi_offset 14, -4
 362:Generated_Source\PSoC4/cyPm.c ****         uint8 interruptState;
 363:Generated_Source\PSoC4/cyPm.c **** 
 364:Generated_Source\PSoC4/cyPm.c ****         interruptState = CyEnterCriticalSection();
 365:Generated_Source\PSoC4/cyPm.c **** 
 366:Generated_Source\PSoC4/cyPm.c ****         /* Preserve last reset reason and wakeup polarity. Then, unfreeze I/O:
 367:Generated_Source\PSoC4/cyPm.c ****          * write PWR_STOP.FREEZE=0, .UNLOCK=0x3A, .STOP=0, .TOKEN
 368:Generated_Source\PSoC4/cyPm.c ****          */
 369:Generated_Source\PSoC4/cyPm.c ****         CY_PM_PWR_STOP_REG = CY_PM_PWR_STOP_UNLOCK |
 484              		.loc 1 369 0
 485 0002 E824     		movs	r4, #232
 364:Generated_Source\PSoC4/cyPm.c **** 
 486              		.loc 1 364 0
 487 0004 FFF7FEFF 		bl	CyEnterCriticalSection
 488              	.LVL19:
 370:Generated_Source\PSoC4/cyPm.c ****                             (CY_PM_PWR_STOP_REG & (CY_PM_PWR_STOP_TOKEN_MASK | CY_PM_PWR_STOP_POLAR
 489              		.loc 1 370 0
 490 0008 074B     		ldr	r3, .L32
 369:Generated_Source\PSoC4/cyPm.c ****                             (CY_PM_PWR_STOP_REG & (CY_PM_PWR_STOP_TOKEN_MASK | CY_PM_PWR_STOP_POLAR
 491              		.loc 1 369 0
 492 000a 0849     		ldr	r1, .L32+4
 493              		.loc 1 370 0
 494 000c 1A68     		ldr	r2, [r3]
 369:Generated_Source\PSoC4/cyPm.c ****                             (CY_PM_PWR_STOP_REG & (CY_PM_PWR_STOP_TOKEN_MASK | CY_PM_PWR_STOP_POLAR
 495              		.loc 1 369 0
 496 000e A401     		lsls	r4, r4, #6
 497 0010 0A40     		ands	r2, r1
 498 0012 2243     		orrs	r2, r4
 499 0014 1A60     		str	r2, [r3]
 371:Generated_Source\PSoC4/cyPm.c **** 
 372:Generated_Source\PSoC4/cyPm.c ****         /* If reading after writing, read this register three times to delay
 373:Generated_Source\PSoC4/cyPm.c ****         *  enough time for internal settling.
 374:Generated_Source\PSoC4/cyPm.c ****         */
 375:Generated_Source\PSoC4/cyPm.c ****         (void) CY_PM_PWR_STOP_REG;
ARM GAS  C:\Users\CCPOW_~1\AppData\Local\Temp\ccf5ryCM.s 			page 17


 500              		.loc 1 375 0
 501 0016 1A68     		ldr	r2, [r3]
 376:Generated_Source\PSoC4/cyPm.c ****         (void) CY_PM_PWR_STOP_REG;
 502              		.loc 1 376 0
 503 0018 1A68     		ldr	r2, [r3]
 377:Generated_Source\PSoC4/cyPm.c **** 
 378:Generated_Source\PSoC4/cyPm.c ****         /* Lock STOP mode: write PWR_STOP.FREEZE=0, UNLOCK=0x00, STOP=0, .TOKEN */
 379:Generated_Source\PSoC4/cyPm.c ****         CY_PM_PWR_STOP_REG &= (CY_PM_PWR_STOP_TOKEN_MASK | CY_PM_PWR_STOP_POLARITY);
 504              		.loc 1 379 0
 505 001a 1A68     		ldr	r2, [r3]
 380:Generated_Source\PSoC4/cyPm.c **** 
 381:Generated_Source\PSoC4/cyPm.c ****         CyExitCriticalSection(interruptState);
 382:Generated_Source\PSoC4/cyPm.c ****     }
 506              		.loc 1 382 0
 507              		@ sp needed
 379:Generated_Source\PSoC4/cyPm.c **** 
 508              		.loc 1 379 0
 509 001c 1140     		ands	r1, r2
 510 001e 1960     		str	r1, [r3]
 381:Generated_Source\PSoC4/cyPm.c ****     }
 511              		.loc 1 381 0
 512 0020 FFF7FEFF 		bl	CyExitCriticalSection
 513              	.LVL20:
 514              		.loc 1 382 0
 515 0024 10BD     		pop	{r4, pc}
 516              	.L33:
 517 0026 C046     		.align	2
 518              	.L32:
 519 0028 2C000B40 		.word	1074462764
 520 002c FF000100 		.word	65791
 521              		.cfi_endproc
 522              	.LFE7:
 523              		.size	CySysPmUnfreezeIo, .-CySysPmUnfreezeIo
 524              		.text
 525              	.Letext0:
 526              		.file 2 "Generated_Source\\PSoC4\\cytypes.h"
 527              		.file 3 "Generated_Source\\PSoC4\\CyLib.h"