ARM GAS  C:\Users\CCPOW_~1\AppData\Local\Temp\cc55qiNh.s 			page 1


   1              		.syntax unified
   2              		.cpu cortex-m0
   3              		.fpu softvfp
   4              		.eabi_attribute 20, 1
   5              		.eabi_attribute 21, 1
   6              		.eabi_attribute 23, 3
   7              		.eabi_attribute 24, 1
   8              		.eabi_attribute 25, 1
   9              		.eabi_attribute 26, 1
  10              		.eabi_attribute 30, 4
  11              		.eabi_attribute 34, 0
  12              		.eabi_attribute 18, 4
  13              		.thumb
  14              		.syntax unified
  15              		.file	"main.c"
  16              		.text
  17              	.Ltext0:
  18              		.cfi_sections	.debug_frame
  19              		.section	.text.Reset_ISR,"ax",%progbits
  20              		.align	1
  21              		.global	Reset_ISR
  22              		.code	16
  23              		.thumb_func
  24              		.type	Reset_ISR, %function
  25              	Reset_ISR:
  26              	.LFB34:
  27              		.file 1 "main.c"
   1:main.c        **** /* ========================================
   2:main.c        ****  *
   3:main.c        ****  * Copyright YOUR COMPANY, THE YEAR
   4:main.c        ****  * All Rights Reserved
   5:main.c        ****  * UNPUBLISHED, LICENSED SOFTWARE.
   6:main.c        ****  *
   7:main.c        ****  * CONFIDENTIAL AND PROPRIETARY INFORMATION
   8:main.c        ****  * WHICH IS THE PROPERTY OF your company.
   9:main.c        ****  *
  10:main.c        ****  * ========================================
  11:main.c        **** */
  12:main.c        **** 
  13:main.c        **** #include "project.h"
  14:main.c        **** #include <stdlib.h>
  15:main.c        **** #include "usbserialprotocol.h"
  16:main.c        **** #include "SW1.h"
  17:main.c        **** #include "Reset_isr.h"
  18:main.c        **** #include <hydrogen.h>
  19:main.c        **** 
  20:main.c        **** #define PIN_LEN 8
  21:main.c        **** #define UUID_LEN 36
  22:main.c        **** #define R_LEN 32
  23:main.c        **** #define NONCE_LEN 32
  24:main.c        **** #define SIG_LEN 32
  25:main.c        **** #define PK_LEN 32
  26:main.c        **** #define RN_LEN 32
  27:main.c        **** 
  28:main.c        **** 
  29:main.c        **** #define PINCHG_SUC "SUCCESS"
  30:main.c        **** #define PROV_MSG "P"
ARM GAS  C:\Users\CCPOW_~1\AppData\Local\Temp\cc55qiNh.s 			page 2


  31:main.c        **** #define RECV_OK "K"
  32:main.c        **** #define PIN_OK "OK"
  33:main.c        **** #define PIN_BAD "BAD"
  34:main.c        **** 
  35:main.c        **** #define REQUEST_NAME            0x00
  36:main.c        **** #define RETURN_NAME             0x01
  37:main.c        **** #define REQUEST_CARD_SIGNATURE  0x02
  38:main.c        **** #define RETURN_CARD_SIGNATURE   0x03
  39:main.c        **** #define REQUEST_NEW_PK          0x0C
  40:main.c        **** #define RETURN_NEW_PK           0x0D
  41:main.c        **** #define INITIATE_PROVISION      0x25
  42:main.c        **** #define REQUEST_PROVISION	    0x26
  43:main.c        **** 
  44:main.c        **** #define ACCEPTED		        0x20
  45:main.c        **** #define REJECTED		        0x21
  46:main.c        **** 
  47:main.c        **** #define SYNC_TYPE_CARD_P		0x1D
  48:main.c        **** #define SYNC_TYPE_CARD_N		0x3D
  49:main.c        **** 
  50:main.c        **** //CARD
  51:main.c        **** 
  52:main.c        **** /* 
  53:main.c        ****  * How to read from EEPROM (persistent memory):
  54:main.c        ****  * 
  55:main.c        ****  * // read variable:
  56:main.c        ****  * static const uint8 EEPROM_BUF_VAR[len] = { val1, val2, ... };
  57:main.c        ****  * // write variable:
  58:main.c        ****  * volatile const uint8 *ptr = EEPROM_BUF_VAR;
  59:main.c        ****  * 
  60:main.c        ****  * uint8 val1 = *ptr;
  61:main.c        ****  * uint8 buf[4] = { 0x01, 0x02, 0x03, 0x04 };
  62:main.c        ****  * USER_INFO_Write(message, EEPROM_BUF_VAR, 4u); 
  63:main.c        ****  */
  64:main.c        **** 
  65:main.c        **** // global EEPROM read variables
  66:main.c        **** static const uint8 R[R_LEN] = {};
  67:main.c        **** static const uint8 RN[RN_LEN] = {};
  68:main.c        **** static const uint8 UUID[UUID_LEN] = {0x37, 0x33, 0x36, 0x35, 0x36, 0x33, 0x37, 0x35, 0x37, 0x32, 0x
  69:main.c        **** 
  70:main.c        **** // more variables
  71:main.c        **** //uint8_t request[100]; // when HSM receives message
  72:main.c        **** uint8_t response[100]; // when HSM sends out a message
  73:main.c        **** uint8_t message_type;
  74:main.c        **** uint8_t r[32];
  75:main.c        **** uint32_t secret_key;
  76:main.c        **** 
  77:main.c        **** // libhydrogen variables
  78:main.c        **** hydro_sign_keypair key_pair;
  79:main.c        **** 
  80:main.c        **** uint8_t signature[32];
  81:main.c        **** hydro_sign_state st;
  82:main.c        **** 
  83:main.c        **** // reset interrupt on button get r (random)press
  84:main.c        **** CY_ISR(Reset_ISR)
  85:main.c        **** {
  28              		.loc 1 85 0
  29              		.cfi_startproc
ARM GAS  C:\Users\CCPOW_~1\AppData\Local\Temp\cc55qiNh.s 			page 3


  30              		@ args = 0, pretend = 0, frame = 0
  31              		@ frame_needed = 0, uses_anonymous_args = 0
  32 0000 10B5     		push	{r4, lr}
  33              		.cfi_def_cfa_offset 8
  34              		.cfi_offset 4, -8
  35              		.cfi_offset 14, -4
  86:main.c        ****     pushMessage((uint8*)"In interrupt\n", strlen("In interrupt\n"));
  36              		.loc 1 86 0
  37 0002 0D21     		movs	r1, #13
  38 0004 0348     		ldr	r0, .L2
  39 0006 FFF7FEFF 		bl	pushMessage
  40              	.LVL0:
  87:main.c        ****     SW1_ClearInterrupt();
  88:main.c        ****     CySoftwareReset();
  89:main.c        **** }
  41              		.loc 1 89 0
  42              		@ sp needed
  87:main.c        ****     SW1_ClearInterrupt();
  43              		.loc 1 87 0
  44 000a FFF7FEFF 		bl	SW1_ClearInterrupt
  45              	.LVL1:
  88:main.c        **** }
  46              		.loc 1 88 0
  47 000e FFF7FEFF 		bl	CySoftwareReset
  48              	.LVL2:
  49              		.loc 1 89 0
  50 0012 10BD     		pop	{r4, pc}
  51              	.L3:
  52              		.align	2
  53              	.L2:
  54 0014 00000000 		.word	.LC0
  55              		.cfi_endproc
  56              	.LFE34:
  57              		.size	Reset_ISR, .-Reset_ISR
  58              		.section	.text.provision,"ax",%progbits
  59              		.align	1
  60              		.global	provision
  61              		.code	16
  62              		.thumb_func
  63              		.type	provision, %function
  64              	provision:
  65              	.LFB35:
  90:main.c        **** 
  91:main.c        **** // provisions card (should only ever be called once)
  92:main.c        **** void provision()
  93:main.c        **** {
  66              		.loc 1 93 0
  67              		.cfi_startproc
  68              		@ args = 0, pretend = 0, frame = 104
  69              		@ frame_needed = 0, uses_anonymous_args = 0
  70 0000 10B5     		push	{r4, lr}
  71              		.cfi_def_cfa_offset 8
  72              		.cfi_offset 4, -8
  73              		.cfi_offset 14, -4
  94:main.c        ****     uint8 message[101];
  95:main.c        ****     
  96:main.c        ****     syncConnection(SYNC_PROV);
ARM GAS  C:\Users\CCPOW_~1\AppData\Local\Temp\cc55qiNh.s 			page 4


  74              		.loc 1 96 0
  75 0002 0120     		movs	r0, #1
  93:main.c        ****     uint8 message[101];
  76              		.loc 1 93 0
  77 0004 9AB0     		sub	sp, sp, #104
  78              		.cfi_def_cfa_offset 112
  79              		.loc 1 96 0
  80 0006 FFF7FEFF 		bl	syncConnection
  81              	.LVL3:
  97:main.c        ****     
  98:main.c        ****     // synchronize with bank
  99:main.c        ****     syncConnection(SYNC_PROV);
  82              		.loc 1 99 0
  83 000a 0120     		movs	r0, #1
  84 000c FFF7FEFF 		bl	syncConnection
  85              	.LVL4:
 100:main.c        ****  
 101:main.c        ****     pushMessage((uint8*)SYNC_TYPE_CARD_P, (uint8)1);
  86              		.loc 1 101 0
  87 0010 0121     		movs	r1, #1
  88 0012 1D20     		movs	r0, #29
  89 0014 FFF7FEFF 		bl	pushMessage
  90              	.LVL5:
 102:main.c        ****     
 103:main.c        ****     // get r (random) + random number + account number
 104:main.c        ****     pullMessage(message, R_LEN + RN_LEN + UUID_LEN + 1);
  91              		.loc 1 104 0
  92 0018 6521     		movs	r1, #101
  93 001a 6846     		mov	r0, sp
  94 001c FFF7FEFF 		bl	pullMessage
  95              	.LVL6:
 105:main.c        **** 
 106:main.c        ****     // check if provision message
 107:main.c        ****     if (message[0] != REQUEST_PROVISION) {
  96              		.loc 1 107 0
  97 0020 6B46     		mov	r3, sp
  98 0022 1B78     		ldrb	r3, [r3]
  99 0024 262B     		cmp	r3, #38
 100 0026 02D0     		beq	.L5
 101              	.LBB4:
 102              	.LBB5:
 108:main.c        **** 	pushMessage((uint8*)REJECTED, 1);
 103              		.loc 1 108 0
 104 0028 0121     		movs	r1, #1
 105 002a 2120     		movs	r0, #33
 106 002c 16E0     		b	.L7
 107              	.L5:
 108              	.LBE5:
 109              	.LBE4:
 109:main.c        ****     } else {
 110:main.c        **** 	 // get random
 111:main.c        **** 	USER_INFO_Write(&message[1], R, R_LEN);
 110              		.loc 1 111 0
 111 002e 6B46     		mov	r3, sp
 112 0030 0C4C     		ldr	r4, .L9
 113 0032 581C     		adds	r0, r3, #1
 114 0034 2022     		movs	r2, #32
ARM GAS  C:\Users\CCPOW_~1\AppData\Local\Temp\cc55qiNh.s 			page 5


 115 0036 2100     		movs	r1, r4
 116 0038 FFF7FEFF 		bl	USER_INFO_Write
 117              	.LVL7:
 112:main.c        **** 
 113:main.c        **** 	// set random number
 114:main.c        **** 	USER_INFO_Write(&message[33], RN, RN_LEN);
 118              		.loc 1 114 0
 119 003c 2100     		movs	r1, r4
 120 003e 2120     		movs	r0, #33
 121 0040 2031     		adds	r1, r1, #32
 122 0042 2022     		movs	r2, #32
 123 0044 6844     		add	r0, r0, sp
 124 0046 FFF7FEFF 		bl	USER_INFO_Write
 125              	.LVL8:
 115:main.c        **** 
 116:main.c        **** 	// set account number
 117:main.c        **** 	USER_INFO_Write(&message[65], UUID, UUID_LEN);
 126              		.loc 1 117 0
 127 004a 2100     		movs	r1, r4
 128 004c 4120     		movs	r0, #65
 129 004e 4031     		adds	r1, r1, #64
 130 0050 2422     		movs	r2, #36
 131 0052 6844     		add	r0, r0, sp
 132 0054 FFF7FEFF 		bl	USER_INFO_Write
 133              	.LVL9:
 118:main.c        **** 
 119:main.c        **** 	pushMessage((uint8*)ACCEPTED, 1);
 134              		.loc 1 119 0
 135 0058 0121     		movs	r1, #1
 136 005a 2020     		movs	r0, #32
 137              	.L7:
 138 005c FFF7FEFF 		bl	pushMessage
 139              	.LVL10:
 120:main.c        **** 
 121:main.c        ****     } 
 122:main.c        **** }
 140              		.loc 1 122 0
 141 0060 1AB0     		add	sp, sp, #104
 142              		@ sp needed
 143 0062 10BD     		pop	{r4, pc}
 144              	.L10:
 145              		.align	2
 146              	.L9:
 147 0064 00000000 		.word	.LANCHOR0
 148              		.cfi_endproc
 149              	.LFE35:
 150              		.size	provision, .-provision
 151              		.section	.text.startup.main,"ax",%progbits
 152              		.align	1
 153              		.global	main
 154              		.code	16
 155              		.thumb_func
 156              		.type	main, %function
 157              	main:
 158              	.LFB36:
 123:main.c        **** 
 124:main.c        **** 
ARM GAS  C:\Users\CCPOW_~1\AppData\Local\Temp\cc55qiNh.s 			page 6


 125:main.c        **** int main(void)
 126:main.c        **** {
 159              		.loc 1 126 0
 160              		.cfi_startproc
 161              		@ args = 0, pretend = 0, frame = 328
 162              		@ frame_needed = 0, uses_anonymous_args = 0
 163 0000 F0B5     		push	{r4, r5, r6, r7, lr}
 164              		.cfi_def_cfa_offset 20
 165              		.cfi_offset 4, -20
 166              		.cfi_offset 5, -16
 167              		.cfi_offset 6, -12
 168              		.cfi_offset 7, -8
 169              		.cfi_offset 14, -4
 170 0002 D7B0     		sub	sp, sp, #348
 171              		.cfi_def_cfa_offset 368
 127:main.c        ****     // enable global interrupts -- DO NOT DELETE
 128:main.c        ****     CyGlobalIntEnable;
 172              		.loc 1 128 0
 173              		.syntax divided
 174              	@ 128 "main.c" 1
 175 0004 62B6     		CPSIE   i
 176              	@ 0 "" 2
 129:main.c        ****     
 130:main.c        ****     // start reset button
 131:main.c        ****     Reset_isr_StartEx(Reset_ISR);
 177              		.loc 1 131 0
 178              		.thumb
 179              		.syntax unified
 180 0006 4748     		ldr	r0, .L32
 181 0008 FFF7FEFF 		bl	Reset_isr_StartEx
 182              	.LVL11:
 132:main.c        ****     
 133:main.c        ****     /* Declare vairables here */
 134:main.c        ****     uint8 i;
 135:main.c        ****     uint8 request[128];
 136:main.c        ****     
 137:main.c        ****     // local EEPROM read variable
 138:main.c        ****     static const uint8 PROVISIONED[1] = {0x00};
 139:main.c        ****     
 140:main.c        ****     // EEPROM write variable
 141:main.c        ****     volatile const uint8 *ptr;
 142:main.c        ****     
 143:main.c        ****     /* Place your initialization/startup code here (e.g. MyInst_Start()) */
 144:main.c        ****     USER_INFO_Start();
 183              		.loc 1 144 0
 184 000c FFF7FEFF 		bl	USER_INFO_Start
 185              	.LVL12:
 145:main.c        ****     USB_UART_Start();
 186              		.loc 1 145 0
 187 0010 FFF7FEFF 		bl	USB_UART_Start
 188              	.LVL13:
 146:main.c        ****     
 147:main.c        ****     // Provision card if on first boot
 148:main.c        ****     ptr = PROVISIONED;
 149:main.c        ****     if (*ptr == 0x00) {
 189              		.loc 1 149 0
 190 0014 444C     		ldr	r4, .L32+4
ARM GAS  C:\Users\CCPOW_~1\AppData\Local\Temp\cc55qiNh.s 			page 7


 191 0016 2500     		movs	r5, r4
 192 0018 6435     		adds	r5, r5, #100
 193 001a 2B78     		ldrb	r3, [r5]
 194 001c 002B     		cmp	r3, #0
 195 001e 08D1     		bne	.L12
 150:main.c        ****         provision();
 196              		.loc 1 150 0
 197 0020 FFF7FEFF 		bl	provision
 198              	.LVL14:
 151:main.c        ****         
 152:main.c        ****         // Mark as provisioned
 153:main.c        ****         i = 0x01;
 199              		.loc 1 153 0
 200 0024 1720     		movs	r0, #23
 201 0026 0122     		movs	r2, #1
 202 0028 6844     		add	r0, r0, sp
 154:main.c        ****         USER_INFO_Write(&i,PROVISIONED, 1u);
 203              		.loc 1 154 0
 204 002a 2900     		movs	r1, r5
 153:main.c        ****         USER_INFO_Write(&i,PROVISIONED, 1u);
 205              		.loc 1 153 0
 206 002c 0270     		strb	r2, [r0]
 207              		.loc 1 154 0
 208 002e FFF7FEFF 		bl	USER_INFO_Write
 209              	.LVL15:
 210              	.L12:
 211              	.LBB6:
 212              	.LBB7:
 155:main.c        ****     }
 156:main.c        ****     
 157:main.c        ****     // Go into infinite loop
 158:main.c        ****     while (1) {
 159:main.c        ****         //get message type
 160:main.c        ****         syncConnection(SYNC_NORM);
 161:main.c        ****         pullMessage(request, (uint8)1);
 162:main.c        **** 	    message_type = request[0];
 163:main.c        **** 	    
 164:main.c        ****         int j;
 165:main.c        **** 	    switch(message_type)
 166:main.c        **** 	    {
 167:main.c        **** 	        case REQUEST_NAME:
 168:main.c        ****             {
 169:main.c        **** 		        response[0] = RETURN_NAME;
 170:main.c        **** 		        for (j = 0; j < UUID_LEN; j++)
 171:main.c        **** 		        {
 172:main.c        **** 		            response[j+1] = UUID[j];
 173:main.c        **** 		        }
 174:main.c        **** 		        pushMessage(response, UUID_LEN);
 175:main.c        **** 		        break;
 176:main.c        ****             }
 177:main.c        **** 	        case REQUEST_CARD_SIGNATURE:
 178:main.c        ****             {
 179:main.c        **** 		        int nonce[32];
 180:main.c        **** 		        for (j = 0; j < NONCE_LEN; j++)
 181:main.c        **** 		        {
 182:main.c        **** 		            nonce[j] = request[j+1];
 183:main.c        **** 		        }
ARM GAS  C:\Users\CCPOW_~1\AppData\Local\Temp\cc55qiNh.s 			page 8


 184:main.c        **** 
 185:main.c        **** 		        int pin[8];
 186:main.c        **** 		        for (j = 0; j < PIN_LEN; j++)
 187:main.c        **** 		        {
 188:main.c        **** 		            pin[j] = request[NONCE_LEN + 1 + j];
 189:main.c        **** 		        }
 190:main.c        **** 
 191:main.c        ****         		// Get the seed value by encrypting the PIN with R
 192:main.c        ****         		uint8_t ciphertext[32];
 193:main.c        ****         		hydro_secretbox_encrypt(ciphertext, pin, PIN_LEN, 0, "__seed__", R);
 213              		.loc 1 193 0
 214 0032 0026     		movs	r6, #0
 215 0034 0027     		movs	r7, #0
 216              	.L14:
 217              	.LBE7:
 160:main.c        ****         pullMessage(request, (uint8)1);
 218              		.loc 1 160 0
 219 0036 0020     		movs	r0, #0
 161:main.c        **** 	    message_type = request[0];
 220              		.loc 1 161 0
 221 0038 16AD     		add	r5, sp, #88
 160:main.c        ****         pullMessage(request, (uint8)1);
 222              		.loc 1 160 0
 223 003a FFF7FEFF 		bl	syncConnection
 224              	.LVL16:
 161:main.c        **** 	    message_type = request[0];
 225              		.loc 1 161 0
 226 003e 0121     		movs	r1, #1
 227 0040 2800     		movs	r0, r5
 228 0042 FFF7FEFF 		bl	pullMessage
 229              	.LVL17:
 162:main.c        **** 	    
 230              		.loc 1 162 0
 231 0046 394B     		ldr	r3, .L32+8
 232 0048 2978     		ldrb	r1, [r5]
 233 004a 1970     		strb	r1, [r3]
 165:main.c        **** 	    {
 234              		.loc 1 165 0
 235 004c 0023     		movs	r3, #0
 236 004e 0229     		cmp	r1, #2
 237 0050 0FD0     		beq	.L20
 238 0052 0C29     		cmp	r1, #12
 239 0054 43D0     		beq	.L16
 240 0056 0029     		cmp	r1, #0
 241 0058 EDD1     		bne	.L14
 169:main.c        **** 		        for (j = 0; j < UUID_LEN; j++)
 242              		.loc 1 169 0
 243 005a 0123     		movs	r3, #1
 172:main.c        **** 		        }
 244              		.loc 1 172 0
 245 005c 2200     		movs	r2, r4
 169:main.c        **** 		        for (j = 0; j < UUID_LEN; j++)
 246              		.loc 1 169 0
 247 005e 3448     		ldr	r0, .L32+12
 172:main.c        **** 		        }
 248              		.loc 1 172 0
 249 0060 4032     		adds	r2, r2, #64
ARM GAS  C:\Users\CCPOW_~1\AppData\Local\Temp\cc55qiNh.s 			page 9


 169:main.c        **** 		        for (j = 0; j < UUID_LEN; j++)
 250              		.loc 1 169 0
 251 0062 0370     		strb	r3, [r0]
 252              	.LVL18:
 253              	.L18:
 172:main.c        **** 		        }
 254              		.loc 1 172 0 discriminator 3
 255 0064 0131     		adds	r1, r1, #1
 256              	.LVL19:
 257 0066 4B1E     		subs	r3, r1, #1
 258 0068 D35C     		ldrb	r3, [r2, r3]
 259 006a 4354     		strb	r3, [r0, r1]
 260              	.LVL20:
 170:main.c        **** 		        {
 261              		.loc 1 170 0 discriminator 3
 262 006c 2429     		cmp	r1, #36
 263 006e F9D1     		bne	.L18
 264 0070 55E0     		b	.L31
 265              	.LVL21:
 266              	.L20:
 267              	.LBB8:
 182:main.c        **** 		        }
 268              		.loc 1 182 0 discriminator 3
 269 0072 0133     		adds	r3, r3, #1
 270              	.LVL22:
 271 0074 E95C     		ldrb	r1, [r5, r3]
 272 0076 6846     		mov	r0, sp
 273 0078 8C46     		mov	ip, r1
 274 007a D821     		movs	r1, #216
 275 007c 4018     		adds	r0, r0, r1
 276 007e 6146     		mov	r1, ip
 277 0080 9A00     		lsls	r2, r3, #2
 278 0082 043A     		subs	r2, r2, #4
 279 0084 8150     		str	r1, [r0, r2]
 280              	.LVL23:
 180:main.c        **** 		        {
 281              		.loc 1 180 0 discriminator 3
 282 0086 202B     		cmp	r3, #32
 283 0088 F3D1     		bne	.L20
 284 008a 0022     		movs	r2, #0
 285              	.LVL24:
 286              	.L21:
 188:main.c        **** 		        }
 287              		.loc 1 188 0 discriminator 3
 288 008c 1000     		movs	r0, r2
 289 008e 2130     		adds	r0, r0, #33
 290 0090 285C     		ldrb	r0, [r5, r0]
 291 0092 9300     		lsls	r3, r2, #2
 292 0094 06A9     		add	r1, sp, #24
 186:main.c        **** 		        {
 293              		.loc 1 186 0 discriminator 3
 294 0096 0132     		adds	r2, r2, #1
 295              	.LVL25:
 188:main.c        **** 		        }
 296              		.loc 1 188 0 discriminator 3
 297 0098 5850     		str	r0, [r3, r1]
 186:main.c        **** 		        {
ARM GAS  C:\Users\CCPOW_~1\AppData\Local\Temp\cc55qiNh.s 			page 10


 298              		.loc 1 186 0 discriminator 3
 299 009a 082A     		cmp	r2, #8
 300 009c F6D1     		bne	.L21
 301              		.loc 1 193 0
 302 009e 254B     		ldr	r3, .L32+16
 303 00a0 0394     		str	r4, [sp, #12]
 304 00a2 0293     		str	r3, [sp, #8]
 305 00a4 0096     		str	r6, [sp]
 306 00a6 0197     		str	r7, [sp, #4]
 307 00a8 0EA8     		add	r0, sp, #56
 308 00aa FFF7FEFF 		bl	hydro_secretbox_encrypt
 309              	.LVL26:
 194:main.c        **** 
 195:main.c        ****         		// Get the public and the secret key
 196:main.c        ****         		hydro_sign_keygen_deterministic(&key_pair, ciphertext);
 310              		.loc 1 196 0
 311 00ae 0EA9     		add	r1, sp, #56
 312 00b0 2148     		ldr	r0, .L32+20
 313 00b2 FFF7FEFF 		bl	hydro_sign_keygen_deterministic
 314              	.LVL27:
 197:main.c        **** 
 198:main.c        ****         		// generate signature
 199:main.c        ****         		hydro_sign_create(signature, nonce, NONCE_LEN, "__sign__", key_pair.sk);
 315              		.loc 1 199 0
 316 00b6 214B     		ldr	r3, .L32+24
 317 00b8 214D     		ldr	r5, .L32+28
 318 00ba 0093     		str	r3, [sp]
 319 00bc 36A9     		add	r1, sp, #216
 320 00be 214B     		ldr	r3, .L32+32
 321 00c0 2022     		movs	r2, #32
 322 00c2 2800     		movs	r0, r5
 323 00c4 FFF7FEFF 		bl	hydro_sign_create
 324              	.LVL28:
 200:main.c        **** 
 201:main.c        ****         		response[0] = RETURN_CARD_SIGNATURE;
 325              		.loc 1 201 0
 326 00c8 0323     		movs	r3, #3
 202:main.c        ****         		for (j = 0; j < SIG_LEN; j++)
 327              		.loc 1 202 0
 328 00ca 0021     		movs	r1, #0
 201:main.c        ****         		for (j = 0; j < SIG_LEN; j++)
 329              		.loc 1 201 0
 330 00cc 1848     		ldr	r0, .L32+12
 331 00ce 0370     		strb	r3, [r0]
 332              	.LVL29:
 333              	.L22:
 203:main.c        ****                         {
 204:main.c        ****                            response[j+1] = signature[j];
 334              		.loc 1 204 0 discriminator 3
 335 00d0 0131     		adds	r1, r1, #1
 336              	.LVL30:
 337 00d2 4B1E     		subs	r3, r1, #1
 338 00d4 EB5C     		ldrb	r3, [r5, r3]
 339 00d6 4354     		strb	r3, [r0, r1]
 340              	.LVL31:
 202:main.c        ****                         {
 341              		.loc 1 202 0 discriminator 3
ARM GAS  C:\Users\CCPOW_~1\AppData\Local\Temp\cc55qiNh.s 			page 11


 342 00d8 2029     		cmp	r1, #32
 343 00da F9D1     		bne	.L22
 344 00dc 1FE0     		b	.L31
 345              	.LVL32:
 346              	.L16:
 347              	.LBE8:
 165:main.c        **** 	    {
 348              		.loc 1 165 0 discriminator 3
 349 00de 0022     		movs	r2, #0
 350              	.LBB9:
 205:main.c        ****                         }
 206:main.c        ****         		pushMessage(response, SIG_LEN);
 207:main.c        ****         		break;
 208:main.c        ****             }
 209:main.c        **** 
 210:main.c        ****     	    case REQUEST_NEW_PK:
 211:main.c        ****             {
 212:main.c        ****         		int pin[8];
 213:main.c        ****                         for (j = 0; j < PIN_LEN; j++)
 214:main.c        ****                         {
 215:main.c        ****                             pin[j] = request[1 + j];
 351              		.loc 1 215 0 discriminator 3
 352 00e0 0EA9     		add	r1, sp, #56
 353              	.L23:
 354              	.LVL33:
 355 00e2 0132     		adds	r2, r2, #1
 356              	.LVL34:
 357 00e4 9300     		lsls	r3, r2, #2
 358 00e6 A85C     		ldrb	r0, [r5, r2]
 359 00e8 043B     		subs	r3, r3, #4
 360 00ea C850     		str	r0, [r1, r3]
 361              	.LVL35:
 213:main.c        ****                         {
 362              		.loc 1 213 0 discriminator 3
 363 00ec 082A     		cmp	r2, #8
 364 00ee F8D1     		bne	.L23
 216:main.c        ****                         }
 217:main.c        ****         		
 218:main.c        ****         		// Get the seed value by encrypting the PIN with R
 219:main.c        ****                         uint8_t ciphertext[32];
 220:main.c        ****                         hydro_secretbox_encrypt(ciphertext, pin, PIN_LEN, 0, "__seed__", R);
 365              		.loc 1 220 0
 366 00f0 104B     		ldr	r3, .L32+16
 367 00f2 0394     		str	r4, [sp, #12]
 368 00f4 0293     		str	r3, [sp, #8]
 369 00f6 0096     		str	r6, [sp]
 370 00f8 0197     		str	r7, [sp, #4]
 371 00fa 36A8     		add	r0, sp, #216
 372 00fc FFF7FEFF 		bl	hydro_secretbox_encrypt
 373              	.LVL36:
 221:main.c        **** 
 222:main.c        ****                         // Get the public and the secret key
 223:main.c        ****                         hydro_sign_keygen_deterministic(&key_pair, ciphertext);
 374              		.loc 1 223 0
 375 0100 0D4D     		ldr	r5, .L32+20
 376 0102 36A9     		add	r1, sp, #216
 377 0104 2800     		movs	r0, r5
ARM GAS  C:\Users\CCPOW_~1\AppData\Local\Temp\cc55qiNh.s 			page 12


 378 0106 FFF7FEFF 		bl	hydro_sign_keygen_deterministic
 379              	.LVL37:
 224:main.c        **** 
 225:main.c        ****         		response[0] = RETURN_NEW_PK;
 380              		.loc 1 225 0
 381 010a 0D23     		movs	r3, #13
 226:main.c        ****         		for (j = 0; j < hydro_sign_PUBLICKEYBYTES; j++)
 382              		.loc 1 226 0
 383 010c 0021     		movs	r1, #0
 225:main.c        ****         		for (j = 0; j < hydro_sign_PUBLICKEYBYTES; j++)
 384              		.loc 1 225 0
 385 010e 0848     		ldr	r0, .L32+12
 386 0110 0370     		strb	r3, [r0]
 387              	.LVL38:
 388              	.L24:
 227:main.c        ****                         {
 228:main.c        ****                            response[j+1] = key_pair.pk[j];
 389              		.loc 1 228 0 discriminator 3
 390 0112 0131     		adds	r1, r1, #1
 391              	.LVL39:
 392 0114 4B1E     		subs	r3, r1, #1
 393 0116 EB5C     		ldrb	r3, [r5, r3]
 394 0118 4354     		strb	r3, [r0, r1]
 395              	.LVL40:
 226:main.c        ****                         {
 396              		.loc 1 226 0 discriminator 3
 397 011a 2029     		cmp	r1, #32
 398 011c F9D1     		bne	.L24
 399              	.L31:
 229:main.c        ****                         }
 230:main.c        ****                         pushMessage(response, PK_LEN);
 400              		.loc 1 230 0
 401 011e FFF7FEFF 		bl	pushMessage
 402              	.LVL41:
 403 0122 88E7     		b	.L14
 404              	.L33:
 405              		.align	2
 406              	.L32:
 407 0124 00000000 		.word	Reset_ISR
 408 0128 00000000 		.word	.LANCHOR0
 409 012c 00000000 		.word	message_type
 410 0130 00000000 		.word	response
 411 0134 0E000000 		.word	.LC12
 412 0138 00000000 		.word	key_pair
 413 013c 20000000 		.word	key_pair+32
 414 0140 00000000 		.word	signature
 415 0144 17000000 		.word	.LC15
 416              	.LBE9:
 417              	.LBE6:
 418              		.cfi_endproc
 419              	.LFE36:
 420              		.size	main, .-main
 421              		.comm	st,52,4
 422              		.comm	signature,32,1
 423              		.comm	key_pair,96,1
 424              		.comm	secret_key,4,4
 425              		.comm	r,32,1
ARM GAS  C:\Users\CCPOW_~1\AppData\Local\Temp\cc55qiNh.s 			page 13


 426              		.comm	message_type,1,1
 427              		.comm	response,100,1
 428              		.section	.rodata
 429              		.set	.LANCHOR0,. + 0
 430              		.type	R, %object
 431              		.size	R, 32
 432              	R:
 433 0000 00000000 		.space	32
 433      00000000 
 433      00000000 
 433      00000000 
 433      00000000 
 434              		.type	RN, %object
 435              		.size	RN, 32
 436              	RN:
 437 0020 00000000 		.space	32
 437      00000000 
 437      00000000 
 437      00000000 
 437      00000000 
 438              		.type	UUID, %object
 439              		.size	UUID, 36
 440              	UUID:
 441 0040 37       		.byte	55
 442 0041 33       		.byte	51
 443 0042 36       		.byte	54
 444 0043 35       		.byte	53
 445 0044 36       		.byte	54
 446 0045 33       		.byte	51
 447 0046 37       		.byte	55
 448 0047 35       		.byte	53
 449 0048 37       		.byte	55
 450 0049 32       		.byte	50
 451 004a 36       		.byte	54
 452 004b 39       		.byte	57
 453 004c 37       		.byte	55
 454 004d 34       		.byte	52
 455 004e 37       		.byte	55
 456 004f 39       		.byte	57
 457 0050 00000000 		.space	20
 457      00000000 
 457      00000000 
 457      00000000 
 457      00000000 
 458              		.type	PROVISIONED.6104, %object
 459              		.size	PROVISIONED.6104, 1
 460              	PROVISIONED.6104:
 461 0064 00       		.space	1
 462              		.section	.rodata.str1.1,"aMS",%progbits,1
 463              	.LC0:
 464 0000 496E2069 		.ascii	"In interrupt\012\000"
 464      6E746572 
 464      72757074 
 464      0A00
 465              	.LC12:
 466 000e 5F5F7365 		.ascii	"__seed__\000"
 466      65645F5F 
ARM GAS  C:\Users\CCPOW_~1\AppData\Local\Temp\cc55qiNh.s 			page 14


 466      00
 467              	.LC15:
 468 0017 5F5F7369 		.ascii	"__sign__\000"
 468      676E5F5F 
 468      00
 469              		.text
 470              	.Letext0:
 471              		.file 2 "d:\\programs\\psoccreator\\psoc creator\\4.1\\psoc creator\\import\\gnu\\arm\\5.4.1\\arm-
 472              		.file 3 "d:\\programs\\psoccreator\\psoc creator\\4.1\\psoc creator\\import\\gnu\\arm\\5.4.1\\arm-
 473              		.file 4 "Generated_Source\\PSoC4/cytypes.h"
 474              		.file 5 "..\\libhydrogen.cylib\\libhydrogen/hydrogen.h"
 475              		.file 6 "usbserialprotocol.h"
 476              		.file 7 "Generated_Source\\PSoC4/SW1.h"
 477              		.file 8 "Generated_Source\\PSoC4/CyLib.h"
 478              		.file 9 "Generated_Source\\PSoC4/USER_INFO.h"
 479              		.file 10 "Generated_Source\\PSoC4/Reset_isr.h"
 480              		.file 11 "Generated_Source\\PSoC4/USB_UART.h"