ARM GAS  C:\Users\CCPOW_~1\AppData\Local\Temp\ccoccWZj.s 			page 1


   1              		.syntax unified
   2              		.cpu cortex-m0
   3              		.fpu softvfp
   4              		.eabi_attribute 20, 1
   5              		.eabi_attribute 21, 1
   6              		.eabi_attribute 23, 3
   7              		.eabi_attribute 24, 1
   8              		.eabi_attribute 25, 1
   9              		.eabi_attribute 26, 1
  10              		.eabi_attribute 30, 4
  11              		.eabi_attribute 34, 0
  12              		.eabi_attribute 18, 4
  13              		.thumb
  14              		.syntax unified
  15              		.file	"usbserialprotocol.c"
  16              		.text
  17              	.Ltext0:
  18              		.cfi_sections	.debug_frame
  19              		.section	.text.getValidByte,"ax",%progbits
  20              		.align	1
  21              		.global	getValidByte
  22              		.code	16
  23              		.thumb_func
  24              		.type	getValidByte, %function
  25              	getValidByte:
  26              	.LFB34:
  27              		.file 1 "usbserialprotocol.c"
   1:usbserialprotocol.c **** /* ========================================
   2:usbserialprotocol.c ****  *
   3:usbserialprotocol.c ****  * Copyright YOUR COMPANY, THE YEAR
   4:usbserialprotocol.c ****  * All Rights Reserved
   5:usbserialprotocol.c ****  * UNPUBLISHED, LICENSED SOFTWARE.
   6:usbserialprotocol.c ****  *
   7:usbserialprotocol.c ****  * CONFIDENTIAL AND PROPRIETARY INFORMATION
   8:usbserialprotocol.c ****  * WHICH IS THE PROPERTY OF your company.
   9:usbserialprotocol.c ****  *
  10:usbserialprotocol.c ****  * ========================================
  11:usbserialprotocol.c **** */
  12:usbserialprotocol.c **** 
  13:usbserialprotocol.c **** #include "usbserialprotocol.h"
  14:usbserialprotocol.c **** 
  15:usbserialprotocol.c **** #define RECV_OK 0
  16:usbserialprotocol.c **** #define RECV_ER 1
  17:usbserialprotocol.c **** #define RDY_MSG_RECV "READY"
  18:usbserialprotocol.c **** #define RDY_MSG_NORM "CARD_N"
  19:usbserialprotocol.c **** #define RDY_MSG_PROV "CARD_P"
  20:usbserialprotocol.c **** #define RDY_BAD "BAD"
  21:usbserialprotocol.c **** #define GO_MSG "GO"
  22:usbserialprotocol.c **** 
  23:usbserialprotocol.c **** 
  24:usbserialprotocol.c **** uint8 getValidByte()
  25:usbserialprotocol.c **** {
  28              		.loc 1 25 0
  29              		.cfi_startproc
  30              		@ args = 0, pretend = 0, frame = 0
  31              		@ frame_needed = 0, uses_anonymous_args = 0
  32 0000 10B5     		push	{r4, lr}
ARM GAS  C:\Users\CCPOW_~1\AppData\Local\Temp\ccoccWZj.s 			page 2


  33              		.cfi_def_cfa_offset 8
  34              		.cfi_offset 4, -8
  35              		.cfi_offset 14, -4
  36              	.L2:
  26:usbserialprotocol.c ****     uint8 retval = 0u;
  27:usbserialprotocol.c ****     while(USB_UART_SpiUartGetRxBufferSize() < 1); // wait for byte
  37              		.loc 1 27 0 discriminator 1
  38 0002 FFF7FEFF 		bl	USB_UART_SpiUartGetRxBufferSize
  39              	.LVL0:
  40 0006 0028     		cmp	r0, #0
  41 0008 FBD0     		beq	.L2
  28:usbserialprotocol.c ****     retval = USB_UART_UartGetByte();
  42              		.loc 1 28 0
  43 000a FFF7FEFF 		bl	USB_UART_UartGetByte
  44              	.LVL1:
  29:usbserialprotocol.c ****     return retval;
  30:usbserialprotocol.c **** }
  45              		.loc 1 30 0
  46              		@ sp needed
  29:usbserialprotocol.c ****     return retval;
  47              		.loc 1 29 0
  48 000e C0B2     		uxtb	r0, r0
  49              		.loc 1 30 0
  50 0010 10BD     		pop	{r4, pc}
  51              		.cfi_endproc
  52              	.LFE34:
  53              		.size	getValidByte, .-getValidByte
  54              		.section	.text.pushMessage,"ax",%progbits
  55              		.align	1
  56              		.global	pushMessage
  57              		.code	16
  58              		.thumb_func
  59              		.type	pushMessage, %function
  60              	pushMessage:
  61              	.LFB35:
  31:usbserialprotocol.c **** 
  32:usbserialprotocol.c **** 
  33:usbserialprotocol.c **** int pushMessage(const uint8 data[], uint8 size)
  34:usbserialprotocol.c **** {
  62              		.loc 1 34 0
  63              		.cfi_startproc
  64              		@ args = 0, pretend = 0, frame = 0
  65              		@ frame_needed = 0, uses_anonymous_args = 0
  66              	.LVL2:
  67 0000 70B5     		push	{r4, r5, r6, lr}
  68              		.cfi_def_cfa_offset 16
  69              		.cfi_offset 4, -16
  70              		.cfi_offset 5, -12
  71              		.cfi_offset 6, -8
  72              		.cfi_offset 14, -4
  73              		.loc 1 34 0
  74 0002 0600     		movs	r6, r0
  35:usbserialprotocol.c ****     int i;
  36:usbserialprotocol.c **** 
  37:usbserialprotocol.c ****     USB_UART_UartPutChar(size);
  75              		.loc 1 37 0
  76 0004 0800     		movs	r0, r1
ARM GAS  C:\Users\CCPOW_~1\AppData\Local\Temp\ccoccWZj.s 			page 3


  77              	.LVL3:
  34:usbserialprotocol.c ****     int i;
  78              		.loc 1 34 0
  79 0006 0D00     		movs	r5, r1
  38:usbserialprotocol.c ****     
  39:usbserialprotocol.c ****     for (i = 0; i < size; i++) {
  80              		.loc 1 39 0
  81 0008 3400     		movs	r4, r6
  37:usbserialprotocol.c ****     
  82              		.loc 1 37 0
  83 000a FFF7FEFF 		bl	USB_UART_SpiUartWriteTxData
  84              	.LVL4:
  85              	.L7:
  86              		.loc 1 39 0 discriminator 1
  87 000e A31B     		subs	r3, r4, r6
  88 0010 9D42     		cmp	r5, r3
  89 0012 04DD     		ble	.L9
  40:usbserialprotocol.c ****         USB_UART_UartPutChar(data[i]);   
  90              		.loc 1 40 0 discriminator 3
  91 0014 2078     		ldrb	r0, [r4]
  92 0016 FFF7FEFF 		bl	USB_UART_SpiUartWriteTxData
  93              	.LVL5:
  94 001a 0134     		adds	r4, r4, #1
  95              	.LVL6:
  96 001c F7E7     		b	.L7
  97              	.L9:
  41:usbserialprotocol.c ****     }
  42:usbserialprotocol.c ****     
  43:usbserialprotocol.c ****     return RECV_OK;
  44:usbserialprotocol.c **** }
  98              		.loc 1 44 0
  99 001e 0020     		movs	r0, #0
 100              		@ sp needed
 101              	.LVL7:
 102              	.LVL8:
 103 0020 70BD     		pop	{r4, r5, r6, pc}
 104              		.cfi_endproc
 105              	.LFE35:
 106              		.size	pushMessage, .-pushMessage
 107              		.section	.text.pullMessage,"ax",%progbits
 108              		.align	1
 109              		.global	pullMessage
 110              		.code	16
 111              		.thumb_func
 112              		.type	pullMessage, %function
 113              	pullMessage:
 114              	.LFB36:
  45:usbserialprotocol.c **** 
  46:usbserialprotocol.c **** 
  47:usbserialprotocol.c **** uint8 pullMessage(uint8 data[])
  48:usbserialprotocol.c **** {
 115              		.loc 1 48 0
 116              		.cfi_startproc
 117              		@ args = 0, pretend = 0, frame = 0
 118              		@ frame_needed = 0, uses_anonymous_args = 0
 119              	.LVL9:
 120 0000 70B5     		push	{r4, r5, r6, lr}
ARM GAS  C:\Users\CCPOW_~1\AppData\Local\Temp\ccoccWZj.s 			page 4


 121              		.cfi_def_cfa_offset 16
 122              		.cfi_offset 4, -16
 123              		.cfi_offset 5, -12
 124              		.cfi_offset 6, -8
 125              		.cfi_offset 14, -4
 126              		.loc 1 48 0
 127 0002 0600     		movs	r6, r0
  49:usbserialprotocol.c ****     int i, len;
  50:usbserialprotocol.c ****     
  51:usbserialprotocol.c ****     len = getValidByte();
 128              		.loc 1 51 0
 129 0004 FFF7FEFF 		bl	getValidByte
 130              	.LVL10:
  52:usbserialprotocol.c ****     
  53:usbserialprotocol.c ****     for (i = 0; i < len; i++) {
 131              		.loc 1 53 0
 132 0008 3400     		movs	r4, r6
  51:usbserialprotocol.c ****     
 133              		.loc 1 51 0
 134 000a 0500     		movs	r5, r0
 135              	.LVL11:
 136              	.L11:
 137              		.loc 1 53 0 discriminator 1
 138 000c A31B     		subs	r3, r4, r6
 139 000e 9D42     		cmp	r5, r3
 140 0010 04DD     		ble	.L13
  54:usbserialprotocol.c ****         data[i] = getValidByte();   
 141              		.loc 1 54 0 discriminator 3
 142 0012 FFF7FEFF 		bl	getValidByte
 143              	.LVL12:
 144 0016 2070     		strb	r0, [r4]
 145              	.LVL13:
 146 0018 0134     		adds	r4, r4, #1
 147              	.LVL14:
 148 001a F7E7     		b	.L11
 149              	.L13:
  55:usbserialprotocol.c ****     }
  56:usbserialprotocol.c ****     
  57:usbserialprotocol.c ****    return len;
  58:usbserialprotocol.c **** }
 150              		.loc 1 58 0
 151 001c 2800     		movs	r0, r5
 152              		@ sp needed
 153              	.LVL15:
 154              	.LVL16:
 155              	.LVL17:
 156 001e 70BD     		pop	{r4, r5, r6, pc}
 157              		.cfi_endproc
 158              	.LFE36:
 159              		.size	pullMessage, .-pullMessage
 160              		.section	.text.pullMessage2,"ax",%progbits
 161              		.align	1
 162              		.global	pullMessage2
 163              		.code	16
 164              		.thumb_func
 165              		.type	pullMessage2, %function
 166              	pullMessage2:
ARM GAS  C:\Users\CCPOW_~1\AppData\Local\Temp\ccoccWZj.s 			page 5


 167              	.LFB37:
  59:usbserialprotocol.c **** 
  60:usbserialprotocol.c **** uint8 pullMessage2(uint8 data[], uint8 length)
  61:usbserialprotocol.c **** {
 168              		.loc 1 61 0
 169              		.cfi_startproc
 170              		@ args = 0, pretend = 0, frame = 0
 171              		@ frame_needed = 0, uses_anonymous_args = 0
 172              	.LVL18:
 173 0000 70B5     		push	{r4, r5, r6, lr}
 174              		.cfi_def_cfa_offset 16
 175              		.cfi_offset 4, -16
 176              		.cfi_offset 5, -12
 177              		.cfi_offset 6, -8
 178              		.cfi_offset 14, -4
 179              		.loc 1 61 0
 180 0002 0D00     		movs	r5, r1
 181 0004 0400     		movs	r4, r0
 182 0006 4618     		adds	r6, r0, r1
 183              	.LVL19:
 184              	.L15:
  62:usbserialprotocol.c ****     uint8 i;
  63:usbserialprotocol.c ****     for (i = 0; i < length; i++) {
 185              		.loc 1 63 0 discriminator 1
 186 0008 B442     		cmp	r4, r6
 187 000a 04D0     		beq	.L17
  64:usbserialprotocol.c ****         data[i] = getValidByte();   
 188              		.loc 1 64 0 discriminator 3
 189 000c FFF7FEFF 		bl	getValidByte
 190              	.LVL20:
 191 0010 2070     		strb	r0, [r4]
 192              	.LVL21:
 193 0012 0134     		adds	r4, r4, #1
 194              	.LVL22:
 195 0014 F8E7     		b	.L15
 196              	.LVL23:
 197              	.L17:
  65:usbserialprotocol.c ****     }
  66:usbserialprotocol.c ****     
  67:usbserialprotocol.c ****    return i;
  68:usbserialprotocol.c **** }
 198              		.loc 1 68 0
 199 0016 2800     		movs	r0, r5
 200              		@ sp needed
 201              	.LVL24:
 202 0018 70BD     		pop	{r4, r5, r6, pc}
 203              		.cfi_endproc
 204              	.LFE37:
 205              		.size	pullMessage2, .-pullMessage2
 206              		.section	.text.syncConnection,"ax",%progbits
 207              		.align	1
 208              		.global	syncConnection
 209              		.code	16
 210              		.thumb_func
 211              		.type	syncConnection, %function
 212              	syncConnection:
 213              	.LFB38:
ARM GAS  C:\Users\CCPOW_~1\AppData\Local\Temp\ccoccWZj.s 			page 6


  69:usbserialprotocol.c **** 
  70:usbserialprotocol.c **** /* 
  71:usbserialprotocol.c ****  * generic PSoC synchronization protocol:
  72:usbserialprotocol.c ****  *
  73:usbserialprotocol.c ****  * 1) ATM -> "READY" -> PSoC
  74:usbserialprotocol.c ****  * 2) if bad:  PSoC -> received bad message -> ATM; goto 1)
  75:usbserialprotocol.c ****  *    if good: PSoC -> PSoC name (prov/norm) -> ATM
  76:usbserialprotocol.c ****  * 3) ATM -> "GO" -> PSoC
  77:usbserialprotocol.c ****  * 4) if bad: goto 1)
  78:usbserialprotocol.c ****  */
  79:usbserialprotocol.c **** void syncConnection(int prov) 
  80:usbserialprotocol.c **** {
 214              		.loc 1 80 0
 215              		.cfi_startproc
 216              		@ args = 0, pretend = 0, frame = 32
 217              		@ frame_needed = 0, uses_anonymous_args = 0
 218              	.LVL25:
 219 0000 10B5     		push	{r4, lr}
 220              		.cfi_def_cfa_offset 8
 221              		.cfi_offset 4, -8
 222              		.cfi_offset 14, -4
 223 0002 0400     		movs	r4, r0
 224 0004 88B0     		sub	sp, sp, #32
 225              		.cfi_def_cfa_offset 40
 226              	.LVL26:
 227              	.L22:
  81:usbserialprotocol.c ****     uint8 message[32];
  82:usbserialprotocol.c ****     
  83:usbserialprotocol.c ****     // marco-polo with bank until connection is in sync
  84:usbserialprotocol.c ****     do {
  85:usbserialprotocol.c ****         pullMessage(message);                               // 1)
 228              		.loc 1 85 0
 229 0006 6846     		mov	r0, sp
 230 0008 FFF7FEFF 		bl	pullMessage
 231              	.LVL27:
  86:usbserialprotocol.c ****         
  87:usbserialprotocol.c ****         if (strcmp((char*)message, RDY_MSG_RECV)) {
 232              		.loc 1 87 0
 233 000c 1149     		ldr	r1, .L25
 234 000e 6846     		mov	r0, sp
 235 0010 FFF7FEFF 		bl	strcmp
 236              	.LVL28:
 237 0014 0028     		cmp	r0, #0
 238 0016 0BD0     		beq	.L19
  88:usbserialprotocol.c ****             pushMessage(message, strlen((char*)message));   // 2) bad
 239              		.loc 1 88 0
 240 0018 6846     		mov	r0, sp
 241 001a FFF7FEFF 		bl	strlen
 242              	.LVL29:
 243 001e C1B2     		uxtb	r1, r0
 244 0020 6846     		mov	r0, sp
 245 0022 FFF7FEFF 		bl	pushMessage
 246              	.LVL30:
  89:usbserialprotocol.c ****             strcpy((char*)message, RDY_BAD);
 247              		.loc 1 89 0
 248 0026 0C49     		ldr	r1, .L25+4
 249 0028 6846     		mov	r0, sp
ARM GAS  C:\Users\CCPOW_~1\AppData\Local\Temp\ccoccWZj.s 			page 7


 250 002a FFF7FEFF 		bl	strcpy
 251              	.LVL31:
 252 002e 09E0     		b	.L20
 253              	.L19:
  90:usbserialprotocol.c ****         } else if (prov) {
  91:usbserialprotocol.c ****             pushMessage((uint8*)RDY_MSG_PROV, 
 254              		.loc 1 91 0
 255 0030 0621     		movs	r1, #6
 256 0032 0A48     		ldr	r0, .L25+8
  90:usbserialprotocol.c ****         } else if (prov) {
 257              		.loc 1 90 0
 258 0034 002C     		cmp	r4, #0
 259 0036 00D1     		bne	.L24
  92:usbserialprotocol.c ****                         strlen(RDY_MSG_PROV));              // 2) good prov
  93:usbserialprotocol.c ****             
  94:usbserialprotocol.c ****             pullMessage(message);                           // 3)
  95:usbserialprotocol.c ****         } else {
  96:usbserialprotocol.c ****             pushMessage((uint8*)RDY_MSG_NORM, 
 260              		.loc 1 96 0
 261 0038 0948     		ldr	r0, .L25+12
 262              	.L24:
 263 003a FFF7FEFF 		bl	pushMessage
 264              	.LVL32:
  97:usbserialprotocol.c ****                         strlen(RDY_MSG_NORM));              // 2) good norm
  98:usbserialprotocol.c ****             
  99:usbserialprotocol.c ****             pullMessage(message);                           // 3
 265              		.loc 1 99 0
 266 003e 6846     		mov	r0, sp
 267 0040 FFF7FEFF 		bl	pullMessage
 268              	.LVL33:
 269              	.L20:
 100:usbserialprotocol.c ****         }
 101:usbserialprotocol.c ****         
 102:usbserialprotocol.c ****     } while (strcmp((char*)message, GO_MSG));               // 4)
 270              		.loc 1 102 0
 271 0044 0749     		ldr	r1, .L25+16
 272 0046 6846     		mov	r0, sp
 273 0048 FFF7FEFF 		bl	strcmp
 274              	.LVL34:
 275 004c 0028     		cmp	r0, #0
 276 004e DAD1     		bne	.L22
 103:usbserialprotocol.c **** }
 277              		.loc 1 103 0
 278 0050 08B0     		add	sp, sp, #32
 279              		@ sp needed
 280              	.LVL35:
 281 0052 10BD     		pop	{r4, pc}
 282              	.L26:
 283              		.align	2
 284              	.L25:
 285 0054 00000000 		.word	.LC2
 286 0058 06000000 		.word	.LC4
 287 005c 0A000000 		.word	.LC6
 288 0060 11000000 		.word	.LC8
 289 0064 18000000 		.word	.LC10
 290              		.cfi_endproc
 291              	.LFE38:
ARM GAS  C:\Users\CCPOW_~1\AppData\Local\Temp\ccoccWZj.s 			page 8


 292              		.size	syncConnection, .-syncConnection
 293              		.section	.rodata.str1.1,"aMS",%progbits,1
 294              	.LC2:
 295 0000 52454144 		.ascii	"READY\000"
 295      5900
 296              	.LC4:
 297 0006 42414400 		.ascii	"BAD\000"
 298              	.LC6:
 299 000a 43415244 		.ascii	"CARD_P\000"
 299      5F5000
 300              	.LC8:
 301 0011 43415244 		.ascii	"CARD_N\000"
 301      5F4E00
 302              	.LC10:
 303 0018 474F00   		.ascii	"GO\000"
 304              		.text
 305              	.Letext0:
 306              		.file 2 "Generated_Source\\PSoC4/cytypes.h"
 307              		.file 3 "Generated_Source\\PSoC4/USB_UART_SPI_UART.h"
 308              		.file 4 "d:\\programs\\psoccreator\\psoc creator\\4.1\\psoc creator\\import\\gnu\\arm\\5.4.1\\arm-