ARM GAS  C:\Users\CCPOW_~1\AppData\Local\Temp\cccTFFy7.s 			page 1


   1              		.syntax unified
   2              		.cpu cortex-m0
   3              		.fpu softvfp
   4              		.eabi_attribute 20, 1
   5              		.eabi_attribute 21, 1
   6              		.eabi_attribute 23, 3
   7              		.eabi_attribute 24, 1
   8              		.eabi_attribute 25, 1
   9              		.eabi_attribute 26, 1
  10              		.eabi_attribute 30, 1
  11              		.eabi_attribute 34, 0
  12              		.eabi_attribute 18, 4
  13              		.thumb
  14              		.syntax unified
  15              		.file	"hydrogen.c"
  16              		.text
  17              	.Ltext0:
  18              		.cfi_sections	.debug_frame
  19              		.section	.text.gimli_core,"ax",%progbits
  20              		.align	2
  21              		.code	16
  22              		.thumb_func
  23              		.type	gimli_core, %function
  24              	gimli_core:
  25              	.LFB28:
  26              		.file 1 "libhydrogen\\impl/gimli-core/portable.h"
   1:libhydrogen\impl/gimli-core/portable.h **** static void
   2:libhydrogen\impl/gimli-core/portable.h **** gimli_core(uint32_t state[gimli_BLOCKBYTES / 4])
   3:libhydrogen\impl/gimli-core/portable.h **** {
  27              		.loc 1 3 0
  28              		.cfi_startproc
  29              		@ args = 0, pretend = 0, frame = 0
  30              		@ frame_needed = 0, uses_anonymous_args = 0
  31              	.LVL0:
  32 0000 F0B5     		push	{r4, r5, r6, r7, lr}
  33              		.cfi_def_cfa_offset 20
  34              		.cfi_offset 4, -20
  35              		.cfi_offset 5, -16
  36              		.cfi_offset 6, -12
  37              		.cfi_offset 7, -8
  38              		.cfi_offset 14, -4
  39 0002 5F46     		mov	r7, fp
  40 0004 5646     		mov	r6, r10
  41 0006 4D46     		mov	r5, r9
  42 0008 4446     		mov	r4, r8
  43 000a F0B4     		push	{r4, r5, r6, r7}
  44              		.cfi_def_cfa_offset 36
  45              		.cfi_offset 8, -36
  46              		.cfi_offset 9, -32
  47              		.cfi_offset 10, -28
  48              		.cfi_offset 11, -24
  49              	.LVL1:
   4:libhydrogen\impl/gimli-core/portable.h ****     unsigned int round;
   5:libhydrogen\impl/gimli-core/portable.h ****     unsigned int column;
   6:libhydrogen\impl/gimli-core/portable.h ****     uint32_t     x;
   7:libhydrogen\impl/gimli-core/portable.h ****     uint32_t     y;
   8:libhydrogen\impl/gimli-core/portable.h ****     uint32_t     z;
ARM GAS  C:\Users\CCPOW_~1\AppData\Local\Temp\cccTFFy7.s 			page 2


   9:libhydrogen\impl/gimli-core/portable.h **** 
  10:libhydrogen\impl/gimli-core/portable.h ****     for (round = 24; round > 0; round--) {
  50              		.loc 1 10 0
  51 000c 1823     		movs	r3, #24
  52 000e 9C46     		mov	ip, r3
  53 0010 52E0     		b	.L2
  54              	.LVL2:
  55              	.L3:
  11:libhydrogen\impl/gimli-core/portable.h ****         for (column = 0; column < 4; column++) {
  12:libhydrogen\impl/gimli-core/portable.h ****             x = ROTL32(state[column], 24);
  56              		.loc 1 12 0 discriminator 3
  57 0012 B700     		lsls	r7, r6, #2
  58 0014 C719     		adds	r7, r0, r7
  59 0016 0823     		movs	r3, #8
  60 0018 3A68     		ldr	r2, [r7]
  61 001a DA41     		rors	r2, r2, r3
  62 001c 1300     		movs	r3, r2
  63              	.LVL3:
  13:libhydrogen\impl/gimli-core/portable.h ****             y = ROTL32(state[4 + column], 9);
  64              		.loc 1 13 0 discriminator 3
  65 001e 341D     		adds	r4, r6, #4
  66 0020 A400     		lsls	r4, r4, #2
  67 0022 A246     		mov	r10, r4
  68 0024 8244     		add	r10, r10, r0
  69 0026 1722     		movs	r2, #23
  70              	.LVL4:
  71 0028 5146     		mov	r1, r10
  72 002a 0968     		ldr	r1, [r1]
  73 002c D141     		rors	r1, r1, r2
  74              	.LVL5:
  14:libhydrogen\impl/gimli-core/portable.h ****             z = state[8 + column];
  75              		.loc 1 14 0 discriminator 3
  76 002e 3500     		movs	r5, r6
  77 0030 0835     		adds	r5, r5, #8
  78 0032 AD00     		lsls	r5, r5, #2
  79 0034 AB46     		mov	fp, r5
  80 0036 8344     		add	fp, fp, r0
  81 0038 5A46     		mov	r2, fp
  82 003a 1268     		ldr	r2, [r2]
  83              	.LVL6:
  15:libhydrogen\impl/gimli-core/portable.h **** 
  16:libhydrogen\impl/gimli-core/portable.h ****             state[8 + column] = x ^ (z << 1) ^ ((y & z) << 2);
  84              		.loc 1 16 0 discriminator 3
  85 003c 5400     		lsls	r4, r2, #1
  86 003e 5C40     		eors	r4, r3
  87 0040 A146     		mov	r9, r4
  88 0042 1400     		movs	r4, r2
  89 0044 0C40     		ands	r4, r1
  90 0046 A400     		lsls	r4, r4, #2
  91 0048 A046     		mov	r8, r4
  92 004a 4C46     		mov	r4, r9
  93 004c 4546     		mov	r5, r8
  94 004e 6C40     		eors	r4, r5
  95 0050 5D46     		mov	r5, fp
  96 0052 2C60     		str	r4, [r5]
  17:libhydrogen\impl/gimli-core/portable.h ****             state[4 + column] = y ^ x ^ ((x | z) << 1);
  97              		.loc 1 17 0 discriminator 3
ARM GAS  C:\Users\CCPOW_~1\AppData\Local\Temp\cccTFFy7.s 			page 3


  98 0054 1C00     		movs	r4, r3
  99 0056 4C40     		eors	r4, r1
 100 0058 1D00     		movs	r5, r3
 101 005a 1543     		orrs	r5, r2
 102 005c 6D00     		lsls	r5, r5, #1
 103 005e 6540     		eors	r5, r4
 104 0060 5446     		mov	r4, r10
 105 0062 2560     		str	r5, [r4]
  18:libhydrogen\impl/gimli-core/portable.h ****             state[column]     = z ^ y ^ ((x & y) << 3);
 106              		.loc 1 18 0 discriminator 3
 107 0064 4A40     		eors	r2, r1
 108              	.LVL7:
 109 0066 0B40     		ands	r3, r1
 110              	.LVL8:
 111 0068 DB00     		lsls	r3, r3, #3
 112 006a 5340     		eors	r3, r2
 113 006c 3B60     		str	r3, [r7]
  11:libhydrogen\impl/gimli-core/portable.h ****             x = ROTL32(state[column], 24);
 114              		.loc 1 11 0 discriminator 3
 115 006e 0136     		adds	r6, r6, #1
 116              	.LVL9:
 117 0070 00E0     		b	.L7
 118              	.LVL10:
 119              	.L8:
 120 0072 0026     		movs	r6, #0
 121              	.LVL11:
 122              	.L7:
  11:libhydrogen\impl/gimli-core/portable.h ****             x = ROTL32(state[column], 24);
 123              		.loc 1 11 0 is_stmt 0 discriminator 1
 124 0074 032E     		cmp	r6, #3
 125 0076 CCD9     		bls	.L3
  19:libhydrogen\impl/gimli-core/portable.h ****         }
  20:libhydrogen\impl/gimli-core/portable.h ****         switch (round & 3) {
 126              		.loc 1 20 0 is_stmt 1
 127 0078 0323     		movs	r3, #3
 128 007a 6246     		mov	r2, ip
 129 007c 1340     		ands	r3, r2
 130 007e 02D0     		beq	.L5
 131              	.LVL12:
 132 0080 022B     		cmp	r3, #2
 133 0082 0DD0     		beq	.L6
 134 0084 14E0     		b	.L4
 135              	.L5:
 136              	.LVL13:
  21:libhydrogen\impl/gimli-core/portable.h ****         case 0:
  22:libhydrogen\impl/gimli-core/portable.h ****             x        = state[0];
  23:libhydrogen\impl/gimli-core/portable.h ****             state[0] = state[1];
 137              		.loc 1 23 0
 138 0086 4268     		ldr	r2, [r0, #4]
 139              	.LVL14:
  24:libhydrogen\impl/gimli-core/portable.h ****             state[1] = x;
 140              		.loc 1 24 0
 141 0088 0368     		ldr	r3, [r0]
 142 008a 4360     		str	r3, [r0, #4]
  25:libhydrogen\impl/gimli-core/portable.h ****             x        = state[2];
 143              		.loc 1 25 0
 144 008c 8368     		ldr	r3, [r0, #8]
ARM GAS  C:\Users\CCPOW_~1\AppData\Local\Temp\cccTFFy7.s 			page 4


 145              	.LVL15:
  26:libhydrogen\impl/gimli-core/portable.h ****             state[2] = state[3];
 146              		.loc 1 26 0
 147 008e C168     		ldr	r1, [r0, #12]
 148 0090 8160     		str	r1, [r0, #8]
  27:libhydrogen\impl/gimli-core/portable.h ****             state[3] = x;
 149              		.loc 1 27 0
 150 0092 C360     		str	r3, [r0, #12]
  28:libhydrogen\impl/gimli-core/portable.h ****             state[0] ^= ((uint32_t) 0x9e377900 | round);
 151              		.loc 1 28 0
 152 0094 0D4B     		ldr	r3, .L9
 153              	.LVL16:
 154 0096 6146     		mov	r1, ip
 155 0098 0B43     		orrs	r3, r1
 156 009a 5340     		eors	r3, r2
 157 009c 0360     		str	r3, [r0]
  29:libhydrogen\impl/gimli-core/portable.h ****             break;
 158              		.loc 1 29 0
 159 009e 07E0     		b	.L4
 160              	.LVL17:
 161              	.L6:
  30:libhydrogen\impl/gimli-core/portable.h ****         case 2:
  31:libhydrogen\impl/gimli-core/portable.h ****             x        = state[0];
 162              		.loc 1 31 0
 163 00a0 0368     		ldr	r3, [r0]
 164              	.LVL18:
  32:libhydrogen\impl/gimli-core/portable.h ****             state[0] = state[2];
 165              		.loc 1 32 0
 166 00a2 8268     		ldr	r2, [r0, #8]
 167              	.LVL19:
 168 00a4 0260     		str	r2, [r0]
  33:libhydrogen\impl/gimli-core/portable.h ****             state[2] = x;
 169              		.loc 1 33 0
 170 00a6 8360     		str	r3, [r0, #8]
  34:libhydrogen\impl/gimli-core/portable.h ****             x        = state[1];
 171              		.loc 1 34 0
 172 00a8 4368     		ldr	r3, [r0, #4]
 173              	.LVL20:
  35:libhydrogen\impl/gimli-core/portable.h ****             state[1] = state[3];
 174              		.loc 1 35 0
 175 00aa C268     		ldr	r2, [r0, #12]
 176 00ac 4260     		str	r2, [r0, #4]
  36:libhydrogen\impl/gimli-core/portable.h ****             state[3] = x;
 177              		.loc 1 36 0
 178 00ae C360     		str	r3, [r0, #12]
 179              	.LVL21:
 180              	.L4:
  10:libhydrogen\impl/gimli-core/portable.h ****         for (column = 0; column < 4; column++) {
 181              		.loc 1 10 0 discriminator 2
 182 00b0 0123     		movs	r3, #1
 183 00b2 5B42     		rsbs	r3, r3, #0
 184 00b4 9846     		mov	r8, r3
 185 00b6 C444     		add	ip, ip, r8
 186              	.LVL22:
 187              	.L2:
  10:libhydrogen\impl/gimli-core/portable.h ****         for (column = 0; column < 4; column++) {
 188              		.loc 1 10 0 is_stmt 0 discriminator 1
ARM GAS  C:\Users\CCPOW_~1\AppData\Local\Temp\cccTFFy7.s 			page 5


 189 00b8 6346     		mov	r3, ip
 190 00ba 002B     		cmp	r3, #0
 191 00bc D9D1     		bne	.L8
  37:libhydrogen\impl/gimli-core/portable.h ****         }
  38:libhydrogen\impl/gimli-core/portable.h ****     }
  39:libhydrogen\impl/gimli-core/portable.h **** }
 192              		.loc 1 39 0 is_stmt 1
 193              		@ sp needed
 194 00be 3CBC     		pop	{r2, r3, r4, r5}
 195 00c0 9046     		mov	r8, r2
 196 00c2 9946     		mov	r9, r3
 197 00c4 A246     		mov	r10, r4
 198 00c6 AB46     		mov	fp, r5
 199 00c8 F0BD     		pop	{r4, r5, r6, r7, pc}
 200              	.L10:
 201 00ca C046     		.align	2
 202              	.L9:
 203 00cc 0079379E 		.word	-1640531712
 204              		.cfi_endproc
 205              	.LFE28:
 206              		.size	gimli_core, .-gimli_core
 207              		.section	.text.gimli_core_u8,"ax",%progbits
 208              		.align	2
 209              		.code	16
 210              		.thumb_func
 211              		.type	gimli_core_u8, %function
 212              	gimli_core_u8:
 213              	.LFB29:
 214              		.file 2 "libhydrogen\\impl/gimli-core.h"
   1:libhydrogen\impl/gimli-core.h **** #ifdef __SSSE3__
   2:libhydrogen\impl/gimli-core.h **** # include "gimli-core/ssse3.h"
   3:libhydrogen\impl/gimli-core.h **** #else
   4:libhydrogen\impl/gimli-core.h **** # include "gimli-core/portable.h"
   5:libhydrogen\impl/gimli-core.h **** #endif
   6:libhydrogen\impl/gimli-core.h **** 
   7:libhydrogen\impl/gimli-core.h **** static void
   8:libhydrogen\impl/gimli-core.h **** gimli_core_u8(uint8_t state_u8[gimli_BLOCKBYTES], uint8_t tag)
   9:libhydrogen\impl/gimli-core.h **** {
 215              		.loc 2 9 0
 216              		.cfi_startproc
 217              		@ args = 0, pretend = 0, frame = 0
 218              		@ frame_needed = 0, uses_anonymous_args = 0
 219              	.LVL23:
 220 0000 10B5     		push	{r4, lr}
 221              		.cfi_def_cfa_offset 8
 222              		.cfi_offset 4, -8
 223              		.cfi_offset 14, -4
  10:libhydrogen\impl/gimli-core.h ****     state_u8[gimli_BLOCKBYTES - 1] ^= tag;
 224              		.loc 2 10 0
 225 0002 2F22     		movs	r2, #47
 226 0004 835C     		ldrb	r3, [r0, r2]
 227 0006 5940     		eors	r1, r3
 228              	.LVL24:
 229 0008 8154     		strb	r1, [r0, r2]
  11:libhydrogen\impl/gimli-core.h **** #ifndef NATIVE_LITTLE_ENDIAN
  12:libhydrogen\impl/gimli-core.h ****     uint32_t state_u32[12];
  13:libhydrogen\impl/gimli-core.h ****     int      i;
ARM GAS  C:\Users\CCPOW_~1\AppData\Local\Temp\cccTFFy7.s 			page 6


  14:libhydrogen\impl/gimli-core.h **** 
  15:libhydrogen\impl/gimli-core.h ****     for (i = 0; i < 12; i++) {
  16:libhydrogen\impl/gimli-core.h ****         state_u32[i] = LOAD32_LE(&state_u8[i * 4]);
  17:libhydrogen\impl/gimli-core.h ****     }
  18:libhydrogen\impl/gimli-core.h ****     gimli_core(state_u32);
  19:libhydrogen\impl/gimli-core.h ****     for (i = 0; i < 12; i++) {
  20:libhydrogen\impl/gimli-core.h ****         STORE32_LE(&state_u8[i * 4], state_u32[i]);
  21:libhydrogen\impl/gimli-core.h ****     }
  22:libhydrogen\impl/gimli-core.h **** #else
  23:libhydrogen\impl/gimli-core.h ****     gimli_core((uint32_t *) (void *) state_u8); /* state_u8 must be properly aligned */
 230              		.loc 2 23 0
 231 000a FFF7FEFF 		bl	gimli_core
 232              	.LVL25:
  24:libhydrogen\impl/gimli-core.h **** #endif
  25:libhydrogen\impl/gimli-core.h **** }
 233              		.loc 2 25 0
 234              		@ sp needed
 235 000e 10BD     		pop	{r4, pc}
 236              		.cfi_endproc
 237              	.LFE29:
 238              		.size	gimli_core_u8, .-gimli_core_u8
 239              		.section	.text.hydro_secretbox_finalize,"ax",%progbits
 240              		.align	2
 241              		.code	16
 242              		.thumb_func
 243              		.type	hydro_secretbox_finalize, %function
 244              	hydro_secretbox_finalize:
 245              	.LFB51:
 246              		.file 3 "libhydrogen\\impl/secretbox.h"
   1:libhydrogen\impl/secretbox.h **** #define hydro_secretbox_IVBYTES 20
   2:libhydrogen\impl/secretbox.h **** #define hydro_secretbox_SIVBYTES 20
   3:libhydrogen\impl/secretbox.h **** #define hydro_secretbox_MACBYTES 16
   4:libhydrogen\impl/secretbox.h **** 
   5:libhydrogen\impl/secretbox.h **** void
   6:libhydrogen\impl/secretbox.h **** hydro_secretbox_keygen(uint8_t key[hydro_secretbox_KEYBYTES])
   7:libhydrogen\impl/secretbox.h **** {
   8:libhydrogen\impl/secretbox.h ****     hydro_random_buf(key, hydro_secretbox_KEYBYTES);
   9:libhydrogen\impl/secretbox.h **** }
  10:libhydrogen\impl/secretbox.h **** 
  11:libhydrogen\impl/secretbox.h **** static void
  12:libhydrogen\impl/secretbox.h **** hydro_secretbox_xor_enc(uint8_t buf[gimli_BLOCKBYTES], uint8_t *out, const uint8_t *in,
  13:libhydrogen\impl/secretbox.h ****                         size_t inlen)
  14:libhydrogen\impl/secretbox.h **** {
  15:libhydrogen\impl/secretbox.h ****     size_t i;
  16:libhydrogen\impl/secretbox.h ****     size_t leftover;
  17:libhydrogen\impl/secretbox.h **** 
  18:libhydrogen\impl/secretbox.h ****     for (i = 0; i < inlen / gimli_RATE; i++) {
  19:libhydrogen\impl/secretbox.h ****         mem_xor2(&out[i * gimli_RATE], &in[i * gimli_RATE], buf, gimli_RATE);
  20:libhydrogen\impl/secretbox.h ****         memcpy(buf, &out[i * gimli_RATE], gimli_RATE);
  21:libhydrogen\impl/secretbox.h ****         gimli_core_u8(buf, gimli_TAG_PAYLOAD);
  22:libhydrogen\impl/secretbox.h ****     }
  23:libhydrogen\impl/secretbox.h ****     leftover = inlen % gimli_RATE;
  24:libhydrogen\impl/secretbox.h ****     if (leftover != 0) {
  25:libhydrogen\impl/secretbox.h ****         mem_xor2(&out[i * gimli_RATE], &in[i * gimli_RATE], buf, leftover);
  26:libhydrogen\impl/secretbox.h ****         mem_cpy(buf, &out[i * gimli_RATE], leftover);
  27:libhydrogen\impl/secretbox.h ****     }
  28:libhydrogen\impl/secretbox.h ****     gimli_pad_u8(buf, leftover, gimli_DOMAIN_AEAD);
ARM GAS  C:\Users\CCPOW_~1\AppData\Local\Temp\cccTFFy7.s 			page 7


  29:libhydrogen\impl/secretbox.h ****     gimli_core_u8(buf, gimli_TAG_PAYLOAD);
  30:libhydrogen\impl/secretbox.h **** }
  31:libhydrogen\impl/secretbox.h **** 
  32:libhydrogen\impl/secretbox.h **** static void
  33:libhydrogen\impl/secretbox.h **** hydro_secretbox_xor_dec(uint8_t buf[gimli_BLOCKBYTES], uint8_t *out, const uint8_t *in,
  34:libhydrogen\impl/secretbox.h ****                         size_t inlen)
  35:libhydrogen\impl/secretbox.h **** {
  36:libhydrogen\impl/secretbox.h ****     size_t i;
  37:libhydrogen\impl/secretbox.h ****     size_t leftover;
  38:libhydrogen\impl/secretbox.h **** 
  39:libhydrogen\impl/secretbox.h ****     for (i = 0; i < inlen / gimli_RATE; i++) {
  40:libhydrogen\impl/secretbox.h ****         mem_xor2(&out[i * gimli_RATE], &in[i * gimli_RATE], buf, gimli_RATE);
  41:libhydrogen\impl/secretbox.h ****         memcpy(buf, &in[i * gimli_RATE], gimli_RATE);
  42:libhydrogen\impl/secretbox.h ****         gimli_core_u8(buf, gimli_TAG_PAYLOAD);
  43:libhydrogen\impl/secretbox.h ****     }
  44:libhydrogen\impl/secretbox.h ****     leftover = inlen % gimli_RATE;
  45:libhydrogen\impl/secretbox.h ****     if (leftover != 0) {
  46:libhydrogen\impl/secretbox.h ****         mem_xor2(&out[i * gimli_RATE], &in[i * gimli_RATE], buf, leftover);
  47:libhydrogen\impl/secretbox.h ****         mem_cpy(buf, &in[i * gimli_RATE], leftover);
  48:libhydrogen\impl/secretbox.h ****     }
  49:libhydrogen\impl/secretbox.h ****     gimli_pad_u8(buf, leftover, gimli_DOMAIN_AEAD);
  50:libhydrogen\impl/secretbox.h ****     gimli_core_u8(buf, gimli_TAG_PAYLOAD);
  51:libhydrogen\impl/secretbox.h **** }
  52:libhydrogen\impl/secretbox.h **** 
  53:libhydrogen\impl/secretbox.h **** static void
  54:libhydrogen\impl/secretbox.h **** hydro_secretbox_setup(uint8_t buf[gimli_BLOCKBYTES], uint64_t msg_id,
  55:libhydrogen\impl/secretbox.h ****                       const char    ctx[hydro_secretbox_CONTEXTBYTES],
  56:libhydrogen\impl/secretbox.h ****                       const uint8_t key[hydro_secretbox_KEYBYTES],
  57:libhydrogen\impl/secretbox.h ****                       const uint8_t iv[hydro_secretbox_IVBYTES], uint8_t key_tag)
  58:libhydrogen\impl/secretbox.h **** {
  59:libhydrogen\impl/secretbox.h ****     static const uint8_t prefix[] = { 6, 's', 'b', 'x', '2', '5', '6', 8 };
  60:libhydrogen\impl/secretbox.h ****     uint8_t              msg_id_le[8];
  61:libhydrogen\impl/secretbox.h **** 
  62:libhydrogen\impl/secretbox.h ****     mem_zero(buf, gimli_BLOCKBYTES);
  63:libhydrogen\impl/secretbox.h ****     COMPILER_ASSERT(hydro_secretbox_CONTEXTBYTES == 8);
  64:libhydrogen\impl/secretbox.h ****     COMPILER_ASSERT(sizeof prefix + hydro_secretbox_CONTEXTBYTES <= gimli_RATE);
  65:libhydrogen\impl/secretbox.h ****     memcpy(buf, prefix, sizeof prefix);
  66:libhydrogen\impl/secretbox.h ****     memcpy(buf + sizeof prefix, ctx, hydro_secretbox_CONTEXTBYTES);
  67:libhydrogen\impl/secretbox.h ****     COMPILER_ASSERT(sizeof prefix + hydro_secretbox_CONTEXTBYTES == gimli_RATE);
  68:libhydrogen\impl/secretbox.h ****     gimli_core_u8(buf, gimli_TAG_HEADER);
  69:libhydrogen\impl/secretbox.h **** 
  70:libhydrogen\impl/secretbox.h ****     COMPILER_ASSERT(hydro_secretbox_KEYBYTES == 2 * gimli_RATE);
  71:libhydrogen\impl/secretbox.h ****     mem_xor(buf, key, gimli_RATE);
  72:libhydrogen\impl/secretbox.h ****     gimli_core_u8(buf, key_tag);
  73:libhydrogen\impl/secretbox.h ****     mem_xor(buf, key + gimli_RATE, gimli_RATE);
  74:libhydrogen\impl/secretbox.h ****     gimli_core_u8(buf, key_tag);
  75:libhydrogen\impl/secretbox.h **** 
  76:libhydrogen\impl/secretbox.h ****     COMPILER_ASSERT(hydro_secretbox_IVBYTES < gimli_RATE * 2);
  77:libhydrogen\impl/secretbox.h ****     buf[0] ^= hydro_secretbox_IVBYTES;
  78:libhydrogen\impl/secretbox.h ****     mem_xor(&buf[1], iv, gimli_RATE - 1);
  79:libhydrogen\impl/secretbox.h ****     gimli_core_u8(buf, gimli_TAG_HEADER);
  80:libhydrogen\impl/secretbox.h ****     mem_xor(buf, iv + gimli_RATE - 1, hydro_secretbox_IVBYTES - (gimli_RATE - 1));
  81:libhydrogen\impl/secretbox.h ****     STORE64_LE(msg_id_le, msg_id);
  82:libhydrogen\impl/secretbox.h ****     COMPILER_ASSERT(hydro_secretbox_IVBYTES - gimli_RATE + 8 <= gimli_RATE);
  83:libhydrogen\impl/secretbox.h ****     mem_xor(buf + hydro_secretbox_IVBYTES - gimli_RATE, msg_id_le, 8);
  84:libhydrogen\impl/secretbox.h ****     gimli_core_u8(buf, gimli_TAG_HEADER);
  85:libhydrogen\impl/secretbox.h **** }
ARM GAS  C:\Users\CCPOW_~1\AppData\Local\Temp\cccTFFy7.s 			page 8


  86:libhydrogen\impl/secretbox.h **** 
  87:libhydrogen\impl/secretbox.h **** static void
  88:libhydrogen\impl/secretbox.h **** hydro_secretbox_finalize(uint8_t *buf, const uint8_t key[hydro_secretbox_KEYBYTES], uint8_t tag)
  89:libhydrogen\impl/secretbox.h **** {
 247              		.loc 3 89 0
 248              		.cfi_startproc
 249              		@ args = 0, pretend = 0, frame = 0
 250              		@ frame_needed = 0, uses_anonymous_args = 0
 251              	.LVL26:
 252 0000 70B5     		push	{r4, r5, r6, lr}
 253              		.cfi_def_cfa_offset 16
 254              		.cfi_offset 4, -16
 255              		.cfi_offset 5, -12
 256              		.cfi_offset 6, -8
 257              		.cfi_offset 14, -4
 258 0002 0500     		movs	r5, r0
 259 0004 0E00     		movs	r6, r1
 260 0006 1400     		movs	r4, r2
 261              	.LVL27:
 262              	.LBB201:
 263              	.LBB202:
 264              		.file 4 "libhydrogen\\impl/common.h"
   1:libhydrogen\impl/common.h **** #include <assert.h>
   2:libhydrogen\impl/common.h **** #include <errno.h>
   3:libhydrogen\impl/common.h **** #include <limits.h>
   4:libhydrogen\impl/common.h **** #include <stdbool.h>
   5:libhydrogen\impl/common.h **** #include <stdint.h>
   6:libhydrogen\impl/common.h **** #include <stdlib.h>
   7:libhydrogen\impl/common.h **** #include <string.h>
   8:libhydrogen\impl/common.h **** 
   9:libhydrogen\impl/common.h **** #include "../hydrogen.h"
  10:libhydrogen\impl/common.h **** 
  11:libhydrogen\impl/common.h **** #if !defined(__unix__) && (defined(__APPLE__) || defined(__linux__))
  12:libhydrogen\impl/common.h **** # define __unix__ 1
  13:libhydrogen\impl/common.h **** #endif
  14:libhydrogen\impl/common.h **** #ifndef __GNUC__
  15:libhydrogen\impl/common.h **** # define __restrict__
  16:libhydrogen\impl/common.h **** #endif
  17:libhydrogen\impl/common.h **** 
  18:libhydrogen\impl/common.h **** #if defined(__BYTE_ORDER__) && defined(__ORDER_BIG_ENDIAN__) && \
  19:libhydrogen\impl/common.h ****     __BYTE_ORDER__ == __ORDER_BIG_ENDIAN__
  20:libhydrogen\impl/common.h **** # define NATIVE_BIG_ENDIAN
  21:libhydrogen\impl/common.h **** #endif
  22:libhydrogen\impl/common.h **** #ifndef NATIVE_BIG_ENDIAN
  23:libhydrogen\impl/common.h **** # ifndef NATIVE_LITTLE_ENDIAN
  24:libhydrogen\impl/common.h **** #  define NATIVE_LITTLE_ENDIAN
  25:libhydrogen\impl/common.h **** # endif
  26:libhydrogen\impl/common.h **** #endif
  27:libhydrogen\impl/common.h **** 
  28:libhydrogen\impl/common.h **** #ifndef TLS
  29:libhydrogen\impl/common.h **** # ifdef _WIN32
  30:libhydrogen\impl/common.h **** #  define TLS __declspec(thread)
  31:libhydrogen\impl/common.h **** # elif (defined(__clang__) || defined(__GNUC__)) && defined(__unix__)
  32:libhydrogen\impl/common.h **** #  define TLS __thread
  33:libhydrogen\impl/common.h **** # else
  34:libhydrogen\impl/common.h **** #  define TLS
  35:libhydrogen\impl/common.h **** # endif
ARM GAS  C:\Users\CCPOW_~1\AppData\Local\Temp\cccTFFy7.s 			page 9


  36:libhydrogen\impl/common.h **** #endif
  37:libhydrogen\impl/common.h **** 
  38:libhydrogen\impl/common.h **** #ifndef SIZE_MAX
  39:libhydrogen\impl/common.h **** # define SIZE_MAX ((size_t) -1)
  40:libhydrogen\impl/common.h **** #endif
  41:libhydrogen\impl/common.h **** 
  42:libhydrogen\impl/common.h **** #define COMPILER_ASSERT(X) (void) sizeof(char[(X) ? 1 : -1])
  43:libhydrogen\impl/common.h **** 
  44:libhydrogen\impl/common.h **** #define ROTL32(x, b) (uint32_t)(((x) << (b)) | ((x) >> (32 - (b))))
  45:libhydrogen\impl/common.h **** #define ROTL64(x, b) (uint64_t)(((x) << (b)) | ((x) >> (64 - (b))))
  46:libhydrogen\impl/common.h **** #define ROTR32(x, b) (uint32_t)(((x) >> (b)) | ((x) << (32 - (b))))
  47:libhydrogen\impl/common.h **** #define ROTR64(x, b) (uint64_t)(((x) >> (b)) | ((x) << (64 - (b))))
  48:libhydrogen\impl/common.h **** 
  49:libhydrogen\impl/common.h **** #define LOAD64_LE(SRC) load64_le(SRC)
  50:libhydrogen\impl/common.h **** static inline uint64_t
  51:libhydrogen\impl/common.h **** load64_le(const uint8_t src[8])
  52:libhydrogen\impl/common.h **** {
  53:libhydrogen\impl/common.h **** #ifdef NATIVE_LITTLE_ENDIAN
  54:libhydrogen\impl/common.h ****     uint64_t w;
  55:libhydrogen\impl/common.h ****     memcpy(&w, src, sizeof w);
  56:libhydrogen\impl/common.h ****     return w;
  57:libhydrogen\impl/common.h **** #else
  58:libhydrogen\impl/common.h ****     uint64_t w = (uint64_t) src[0];
  59:libhydrogen\impl/common.h ****     w |= (uint64_t) src[1] << 8;
  60:libhydrogen\impl/common.h ****     w |= (uint64_t) src[2] << 16;
  61:libhydrogen\impl/common.h ****     w |= (uint64_t) src[3] << 24;
  62:libhydrogen\impl/common.h ****     w |= (uint64_t) src[4] << 32;
  63:libhydrogen\impl/common.h ****     w |= (uint64_t) src[5] << 40;
  64:libhydrogen\impl/common.h ****     w |= (uint64_t) src[6] << 48;
  65:libhydrogen\impl/common.h ****     w |= (uint64_t) src[7] << 56;
  66:libhydrogen\impl/common.h ****     return w;
  67:libhydrogen\impl/common.h **** #endif
  68:libhydrogen\impl/common.h **** }
  69:libhydrogen\impl/common.h **** 
  70:libhydrogen\impl/common.h **** #define STORE64_LE(DST, W) store64_le((DST), (W))
  71:libhydrogen\impl/common.h **** static inline void
  72:libhydrogen\impl/common.h **** store64_le(uint8_t dst[8], uint64_t w)
  73:libhydrogen\impl/common.h **** {
  74:libhydrogen\impl/common.h **** #ifdef NATIVE_LITTLE_ENDIAN
  75:libhydrogen\impl/common.h ****     memcpy(dst, &w, sizeof w);
  76:libhydrogen\impl/common.h **** #else
  77:libhydrogen\impl/common.h ****     dst[0] = (uint8_t) w;
  78:libhydrogen\impl/common.h ****     w >>= 8;
  79:libhydrogen\impl/common.h ****     dst[1] = (uint8_t) w;
  80:libhydrogen\impl/common.h ****     w >>= 8;
  81:libhydrogen\impl/common.h ****     dst[2] = (uint8_t) w;
  82:libhydrogen\impl/common.h ****     w >>= 8;
  83:libhydrogen\impl/common.h ****     dst[3] = (uint8_t) w;
  84:libhydrogen\impl/common.h ****     w >>= 8;
  85:libhydrogen\impl/common.h ****     dst[4] = (uint8_t) w;
  86:libhydrogen\impl/common.h ****     w >>= 8;
  87:libhydrogen\impl/common.h ****     dst[5] = (uint8_t) w;
  88:libhydrogen\impl/common.h ****     w >>= 8;
  89:libhydrogen\impl/common.h ****     dst[6] = (uint8_t) w;
  90:libhydrogen\impl/common.h ****     w >>= 8;
  91:libhydrogen\impl/common.h ****     dst[7] = (uint8_t) w;
  92:libhydrogen\impl/common.h **** #endif
ARM GAS  C:\Users\CCPOW_~1\AppData\Local\Temp\cccTFFy7.s 			page 10


  93:libhydrogen\impl/common.h **** }
  94:libhydrogen\impl/common.h **** 
  95:libhydrogen\impl/common.h **** #define LOAD32_LE(SRC) load32_le(SRC)
  96:libhydrogen\impl/common.h **** static inline uint32_t
  97:libhydrogen\impl/common.h **** load32_le(const uint8_t src[4])
  98:libhydrogen\impl/common.h **** {
  99:libhydrogen\impl/common.h **** #ifdef NATIVE_LITTLE_ENDIAN
 100:libhydrogen\impl/common.h ****     uint32_t w;
 101:libhydrogen\impl/common.h ****     memcpy(&w, src, sizeof w);
 102:libhydrogen\impl/common.h ****     return w;
 103:libhydrogen\impl/common.h **** #else
 104:libhydrogen\impl/common.h ****     uint32_t w = (uint32_t) src[0];
 105:libhydrogen\impl/common.h ****     w |= (uint32_t) src[1] << 8;
 106:libhydrogen\impl/common.h ****     w |= (uint32_t) src[2] << 16;
 107:libhydrogen\impl/common.h ****     w |= (uint32_t) src[3] << 24;
 108:libhydrogen\impl/common.h ****     return w;
 109:libhydrogen\impl/common.h **** #endif
 110:libhydrogen\impl/common.h **** }
 111:libhydrogen\impl/common.h **** 
 112:libhydrogen\impl/common.h **** #define STORE32_LE(DST, W) store32_le((DST), (W))
 113:libhydrogen\impl/common.h **** static inline void
 114:libhydrogen\impl/common.h **** store32_le(uint8_t dst[4], uint32_t w)
 115:libhydrogen\impl/common.h **** {
 116:libhydrogen\impl/common.h **** #ifdef NATIVE_LITTLE_ENDIAN
 117:libhydrogen\impl/common.h ****     memcpy(dst, &w, sizeof w);
 118:libhydrogen\impl/common.h **** #else
 119:libhydrogen\impl/common.h ****     dst[0] = (uint8_t) w;
 120:libhydrogen\impl/common.h ****     w >>= 8;
 121:libhydrogen\impl/common.h ****     dst[1] = (uint8_t) w;
 122:libhydrogen\impl/common.h ****     w >>= 8;
 123:libhydrogen\impl/common.h ****     dst[2] = (uint8_t) w;
 124:libhydrogen\impl/common.h ****     w >>= 8;
 125:libhydrogen\impl/common.h ****     dst[3] = (uint8_t) w;
 126:libhydrogen\impl/common.h **** #endif
 127:libhydrogen\impl/common.h **** }
 128:libhydrogen\impl/common.h **** 
 129:libhydrogen\impl/common.h **** #define LOAD16_LE(SRC) load16_le(SRC)
 130:libhydrogen\impl/common.h **** static inline uint16_t
 131:libhydrogen\impl/common.h **** load16_le(const uint8_t src[2])
 132:libhydrogen\impl/common.h **** {
 133:libhydrogen\impl/common.h **** #ifdef NATIVE_LITTLE_ENDIAN
 134:libhydrogen\impl/common.h ****     uint16_t w;
 135:libhydrogen\impl/common.h ****     memcpy(&w, src, sizeof w);
 136:libhydrogen\impl/common.h ****     return w;
 137:libhydrogen\impl/common.h **** #else
 138:libhydrogen\impl/common.h ****     uint16_t w = (uint16_t) src[0];
 139:libhydrogen\impl/common.h ****     w |= (uint16_t) src[1] << 8;
 140:libhydrogen\impl/common.h ****     return w;
 141:libhydrogen\impl/common.h **** #endif
 142:libhydrogen\impl/common.h **** }
 143:libhydrogen\impl/common.h **** 
 144:libhydrogen\impl/common.h **** #define STORE16_LE(DST, W) store16_le((DST), (W))
 145:libhydrogen\impl/common.h **** static inline void
 146:libhydrogen\impl/common.h **** store16_le(uint8_t dst[2], uint16_t w)
 147:libhydrogen\impl/common.h **** {
 148:libhydrogen\impl/common.h **** #ifdef NATIVE_LITTLE_ENDIAN
 149:libhydrogen\impl/common.h ****     memcpy(dst, &w, sizeof w);
ARM GAS  C:\Users\CCPOW_~1\AppData\Local\Temp\cccTFFy7.s 			page 11


 150:libhydrogen\impl/common.h **** #else
 151:libhydrogen\impl/common.h ****     dst[0] = (uint8_t) w;
 152:libhydrogen\impl/common.h ****     w >>= 8;
 153:libhydrogen\impl/common.h ****     dst[1] = (uint8_t) w;
 154:libhydrogen\impl/common.h **** #endif
 155:libhydrogen\impl/common.h **** }
 156:libhydrogen\impl/common.h **** 
 157:libhydrogen\impl/common.h **** /* ----- */
 158:libhydrogen\impl/common.h **** 
 159:libhydrogen\impl/common.h **** #define LOAD64_BE(SRC) load64_be(SRC)
 160:libhydrogen\impl/common.h **** static inline uint64_t
 161:libhydrogen\impl/common.h **** load64_be(const uint8_t src[8])
 162:libhydrogen\impl/common.h **** {
 163:libhydrogen\impl/common.h **** #ifdef NATIVE_BIG_ENDIAN
 164:libhydrogen\impl/common.h ****     uint64_t w;
 165:libhydrogen\impl/common.h ****     memcpy(&w, src, sizeof w);
 166:libhydrogen\impl/common.h ****     return w;
 167:libhydrogen\impl/common.h **** #else
 168:libhydrogen\impl/common.h ****     uint64_t w = (uint64_t) src[7];
 169:libhydrogen\impl/common.h ****     w |= (uint64_t) src[6] << 8;
 170:libhydrogen\impl/common.h ****     w |= (uint64_t) src[5] << 16;
 171:libhydrogen\impl/common.h ****     w |= (uint64_t) src[4] << 24;
 172:libhydrogen\impl/common.h ****     w |= (uint64_t) src[3] << 32;
 173:libhydrogen\impl/common.h ****     w |= (uint64_t) src[2] << 40;
 174:libhydrogen\impl/common.h ****     w |= (uint64_t) src[1] << 48;
 175:libhydrogen\impl/common.h ****     w |= (uint64_t) src[0] << 56;
 176:libhydrogen\impl/common.h ****     return w;
 177:libhydrogen\impl/common.h **** #endif
 178:libhydrogen\impl/common.h **** }
 179:libhydrogen\impl/common.h **** 
 180:libhydrogen\impl/common.h **** #define STORE64_BE(DST, W) store64_be((DST), (W))
 181:libhydrogen\impl/common.h **** static inline void
 182:libhydrogen\impl/common.h **** store64_be(uint8_t dst[8], uint64_t w)
 183:libhydrogen\impl/common.h **** {
 184:libhydrogen\impl/common.h **** #ifdef NATIVE_BIG_ENDIAN
 185:libhydrogen\impl/common.h ****     memcpy(dst, &w, sizeof w);
 186:libhydrogen\impl/common.h **** #else
 187:libhydrogen\impl/common.h ****     dst[7] = (uint8_t) w;
 188:libhydrogen\impl/common.h ****     w >>= 8;
 189:libhydrogen\impl/common.h ****     dst[6] = (uint8_t) w;
 190:libhydrogen\impl/common.h ****     w >>= 8;
 191:libhydrogen\impl/common.h ****     dst[5] = (uint8_t) w;
 192:libhydrogen\impl/common.h ****     w >>= 8;
 193:libhydrogen\impl/common.h ****     dst[4] = (uint8_t) w;
 194:libhydrogen\impl/common.h ****     w >>= 8;
 195:libhydrogen\impl/common.h ****     dst[3] = (uint8_t) w;
 196:libhydrogen\impl/common.h ****     w >>= 8;
 197:libhydrogen\impl/common.h ****     dst[2] = (uint8_t) w;
 198:libhydrogen\impl/common.h ****     w >>= 8;
 199:libhydrogen\impl/common.h ****     dst[1] = (uint8_t) w;
 200:libhydrogen\impl/common.h ****     w >>= 8;
 201:libhydrogen\impl/common.h ****     dst[0] = (uint8_t) w;
 202:libhydrogen\impl/common.h **** #endif
 203:libhydrogen\impl/common.h **** }
 204:libhydrogen\impl/common.h **** 
 205:libhydrogen\impl/common.h **** #define LOAD32_BE(SRC) load32_be(SRC)
 206:libhydrogen\impl/common.h **** static inline uint32_t
ARM GAS  C:\Users\CCPOW_~1\AppData\Local\Temp\cccTFFy7.s 			page 12


 207:libhydrogen\impl/common.h **** load32_be(const uint8_t src[4])
 208:libhydrogen\impl/common.h **** {
 209:libhydrogen\impl/common.h **** #ifdef NATIVE_BIG_ENDIAN
 210:libhydrogen\impl/common.h ****     uint32_t w;
 211:libhydrogen\impl/common.h ****     memcpy(&w, src, sizeof w);
 212:libhydrogen\impl/common.h ****     return w;
 213:libhydrogen\impl/common.h **** #else
 214:libhydrogen\impl/common.h ****     uint32_t w = (uint32_t) src[3];
 215:libhydrogen\impl/common.h ****     w |= (uint32_t) src[2] << 8;
 216:libhydrogen\impl/common.h ****     w |= (uint32_t) src[1] << 16;
 217:libhydrogen\impl/common.h ****     w |= (uint32_t) src[0] << 24;
 218:libhydrogen\impl/common.h ****     return w;
 219:libhydrogen\impl/common.h **** #endif
 220:libhydrogen\impl/common.h **** }
 221:libhydrogen\impl/common.h **** 
 222:libhydrogen\impl/common.h **** #define STORE32_BE(DST, W) store32_be((DST), (W))
 223:libhydrogen\impl/common.h **** static inline void
 224:libhydrogen\impl/common.h **** store32_be(uint8_t dst[4], uint32_t w)
 225:libhydrogen\impl/common.h **** {
 226:libhydrogen\impl/common.h **** #ifdef NATIVE_BIG_ENDIAN
 227:libhydrogen\impl/common.h ****     memcpy(dst, &w, sizeof w);
 228:libhydrogen\impl/common.h **** #else
 229:libhydrogen\impl/common.h ****     dst[3] = (uint8_t) w;
 230:libhydrogen\impl/common.h ****     w >>= 8;
 231:libhydrogen\impl/common.h ****     dst[2] = (uint8_t) w;
 232:libhydrogen\impl/common.h ****     w >>= 8;
 233:libhydrogen\impl/common.h ****     dst[1] = (uint8_t) w;
 234:libhydrogen\impl/common.h ****     w >>= 8;
 235:libhydrogen\impl/common.h ****     dst[0] = (uint8_t) w;
 236:libhydrogen\impl/common.h **** #endif
 237:libhydrogen\impl/common.h **** }
 238:libhydrogen\impl/common.h **** 
 239:libhydrogen\impl/common.h **** #define LOAD16_BE(SRC) load16_be(SRC)
 240:libhydrogen\impl/common.h **** static inline uint16_t
 241:libhydrogen\impl/common.h **** load16_be(const uint8_t src[2])
 242:libhydrogen\impl/common.h **** {
 243:libhydrogen\impl/common.h **** #ifdef NATIVE_BIG_ENDIAN
 244:libhydrogen\impl/common.h ****     uint16_t w;
 245:libhydrogen\impl/common.h ****     memcpy(&w, src, sizeof w);
 246:libhydrogen\impl/common.h ****     return w;
 247:libhydrogen\impl/common.h **** #else
 248:libhydrogen\impl/common.h ****     uint16_t w = (uint16_t) src[1];
 249:libhydrogen\impl/common.h ****     w |= (uint16_t) src[0] << 8;
 250:libhydrogen\impl/common.h ****     return w;
 251:libhydrogen\impl/common.h **** #endif
 252:libhydrogen\impl/common.h **** }
 253:libhydrogen\impl/common.h **** 
 254:libhydrogen\impl/common.h **** #define STORE16_BE(DST, W) store16_be((DST), (W))
 255:libhydrogen\impl/common.h **** static inline void
 256:libhydrogen\impl/common.h **** store16_be(uint8_t dst[2], uint16_t w)
 257:libhydrogen\impl/common.h **** {
 258:libhydrogen\impl/common.h **** #ifdef NATIVE_BIG_ENDIAN
 259:libhydrogen\impl/common.h ****     memcpy(dst, &w, sizeof w);
 260:libhydrogen\impl/common.h **** #else
 261:libhydrogen\impl/common.h ****     dst[1] = (uint8_t) w;
 262:libhydrogen\impl/common.h ****     w >>= 8;
 263:libhydrogen\impl/common.h ****     dst[0] = (uint8_t) w;
ARM GAS  C:\Users\CCPOW_~1\AppData\Local\Temp\cccTFFy7.s 			page 13


 264:libhydrogen\impl/common.h **** #endif
 265:libhydrogen\impl/common.h **** }
 266:libhydrogen\impl/common.h **** 
 267:libhydrogen\impl/common.h **** static inline void
 268:libhydrogen\impl/common.h **** mem_cpy(void *__restrict__ dst_, const void *__restrict__ src_, size_t n)
 269:libhydrogen\impl/common.h **** {
 270:libhydrogen\impl/common.h ****     unsigned char *      dst = (unsigned char *) dst_;
 271:libhydrogen\impl/common.h ****     const unsigned char *src = (const unsigned char *) src_;
 272:libhydrogen\impl/common.h ****     size_t               i;
 273:libhydrogen\impl/common.h **** 
 274:libhydrogen\impl/common.h ****     for (i = 0; i < n; i++) {
 275:libhydrogen\impl/common.h ****         dst[i] = src[i];
 276:libhydrogen\impl/common.h ****     }
 277:libhydrogen\impl/common.h **** }
 278:libhydrogen\impl/common.h **** 
 279:libhydrogen\impl/common.h **** static inline void
 280:libhydrogen\impl/common.h **** mem_zero(void *dst_, size_t n)
 281:libhydrogen\impl/common.h **** {
 282:libhydrogen\impl/common.h ****     unsigned char *dst = (unsigned char *) dst_;
 283:libhydrogen\impl/common.h ****     size_t         i;
 284:libhydrogen\impl/common.h **** 
 285:libhydrogen\impl/common.h ****     for (i = 0; i < n; i++) {
 286:libhydrogen\impl/common.h ****         dst[i] = 0;
 287:libhydrogen\impl/common.h ****     }
 288:libhydrogen\impl/common.h **** }
 289:libhydrogen\impl/common.h **** 
 290:libhydrogen\impl/common.h **** static inline void
 291:libhydrogen\impl/common.h **** mem_xor(void *__restrict__ dst_, const void *__restrict__ src_, size_t n)
 292:libhydrogen\impl/common.h **** {
 293:libhydrogen\impl/common.h ****     unsigned char *      dst = (unsigned char *) dst_;
 294:libhydrogen\impl/common.h ****     const unsigned char *src = (const unsigned char *) src_;
 295:libhydrogen\impl/common.h ****     size_t               i;
 296:libhydrogen\impl/common.h **** 
 297:libhydrogen\impl/common.h ****     for (i = 0; i < n; i++) {
 265              		.loc 4 297 0
 266 0008 0023     		movs	r3, #0
 267 000a 07E0     		b	.L13
 268              	.LVL28:
 269              	.L14:
 298:libhydrogen\impl/common.h ****         dst[i] ^= src[i];
 270              		.loc 4 298 0
 271 000c 1A00     		movs	r2, r3
 272 000e 1032     		adds	r2, r2, #16
 273 0010 AA18     		adds	r2, r5, r2
 274 0012 F05C     		ldrb	r0, [r6, r3]
 275 0014 1178     		ldrb	r1, [r2]
 276 0016 4140     		eors	r1, r0
 277 0018 1170     		strb	r1, [r2]
 297:libhydrogen\impl/common.h ****         dst[i] ^= src[i];
 278              		.loc 4 297 0
 279 001a 0133     		adds	r3, r3, #1
 280              	.LVL29:
 281              	.L13:
 282 001c 1F2B     		cmp	r3, #31
 283 001e F5D9     		bls	.L14
 284              	.LVL30:
 285              	.LBE202:
ARM GAS  C:\Users\CCPOW_~1\AppData\Local\Temp\cccTFFy7.s 			page 14


 286              	.LBE201:
  90:libhydrogen\impl/secretbox.h ****     COMPILER_ASSERT(hydro_secretbox_KEYBYTES == gimli_CAPACITY);
  91:libhydrogen\impl/secretbox.h ****     mem_xor(buf + gimli_RATE, key, hydro_secretbox_KEYBYTES);
  92:libhydrogen\impl/secretbox.h ****     gimli_core_u8(buf, tag);
 287              		.loc 3 92 0
 288 0020 2100     		movs	r1, r4
 289 0022 2800     		movs	r0, r5
 290 0024 FFF7FEFF 		bl	gimli_core_u8
 291              	.LVL31:
 292              	.LBB203:
 293              	.LBB204:
 297:libhydrogen\impl/common.h ****         dst[i] ^= src[i];
 294              		.loc 4 297 0
 295 0028 0023     		movs	r3, #0
 296 002a 07E0     		b	.L15
 297              	.LVL32:
 298              	.L16:
 299              		.loc 4 298 0
 300 002c 1A00     		movs	r2, r3
 301 002e 1032     		adds	r2, r2, #16
 302 0030 AA18     		adds	r2, r5, r2
 303 0032 F05C     		ldrb	r0, [r6, r3]
 304 0034 1178     		ldrb	r1, [r2]
 305 0036 4140     		eors	r1, r0
 306 0038 1170     		strb	r1, [r2]
 297:libhydrogen\impl/common.h ****         dst[i] ^= src[i];
 307              		.loc 4 297 0
 308 003a 0133     		adds	r3, r3, #1
 309              	.LVL33:
 310              	.L15:
 311 003c 1F2B     		cmp	r3, #31
 312 003e F5D9     		bls	.L16
 313              	.LVL34:
 314              	.LBE204:
 315              	.LBE203:
  93:libhydrogen\impl/secretbox.h ****     mem_xor(buf + gimli_RATE, key, hydro_secretbox_KEYBYTES);
  94:libhydrogen\impl/secretbox.h ****     gimli_core_u8(buf, tag);
 316              		.loc 3 94 0
 317 0040 2100     		movs	r1, r4
 318 0042 2800     		movs	r0, r5
 319 0044 FFF7FEFF 		bl	gimli_core_u8
 320              	.LVL35:
  95:libhydrogen\impl/secretbox.h **** }
 321              		.loc 3 95 0
 322              		@ sp needed
 323              	.LVL36:
 324              	.LVL37:
 325 0048 70BD     		pop	{r4, r5, r6, pc}
 326              		.cfi_endproc
 327              	.LFE51:
 328              		.size	hydro_secretbox_finalize, .-hydro_secretbox_finalize
 329 004a C046     		.section	.text.hydro_x25519_propagate,"ax",%progbits
 330              		.align	2
 331              		.code	16
 332              		.thumb_func
 333              		.type	hydro_x25519_propagate, %function
 334              	hydro_x25519_propagate:
ARM GAS  C:\Users\CCPOW_~1\AppData\Local\Temp\cccTFFy7.s 			page 15


 335              	.LFB60:
 336              		.file 5 "libhydrogen\\impl/x25519.h"
   1:libhydrogen\impl/x25519.h **** /*
   2:libhydrogen\impl/x25519.h ****  * Based on Michael Hamburg's STROBE reference implementation.
   3:libhydrogen\impl/x25519.h ****  * Copyright (c) 2015-2016 Cryptography Research, Inc.
   4:libhydrogen\impl/x25519.h ****  * MIT License (MIT)
   5:libhydrogen\impl/x25519.h ****  */
   6:libhydrogen\impl/x25519.h **** 
   7:libhydrogen\impl/x25519.h **** #if defined(__GNUC__) && defined(__SIZEOF_INT128__)
   8:libhydrogen\impl/x25519.h **** # define hydro_x25519_WBITS 64
   9:libhydrogen\impl/x25519.h **** #else
  10:libhydrogen\impl/x25519.h **** # define hydro_x25519_WBITS 32
  11:libhydrogen\impl/x25519.h **** #endif
  12:libhydrogen\impl/x25519.h **** 
  13:libhydrogen\impl/x25519.h **** #if hydro_x25519_WBITS == 64
  14:libhydrogen\impl/x25519.h **** typedef uint64_t    hydro_x25519_limb_t;
  15:libhydrogen\impl/x25519.h **** typedef __uint128_t hydro_x25519_dlimb_t;
  16:libhydrogen\impl/x25519.h **** typedef __int128_t  hydro_x25519_sdlimb_t;
  17:libhydrogen\impl/x25519.h **** # define hydro_x25519_eswap_limb(X) LOAD64_LE((const uint8_t *) &(X))
  18:libhydrogen\impl/x25519.h **** # define hydro_x25519_LIMB(x) x##ull
  19:libhydrogen\impl/x25519.h **** #elif hydro_x25519_WBITS == 32
  20:libhydrogen\impl/x25519.h **** typedef uint32_t hydro_x25519_limb_t;
  21:libhydrogen\impl/x25519.h **** typedef uint64_t hydro_x25519_dlimb_t;
  22:libhydrogen\impl/x25519.h **** typedef int64_t  hydro_x25519_sdlimb_t;
  23:libhydrogen\impl/x25519.h **** # define hydro_x25519_eswap_limb(X) LOAD32_LE((const uint8_t *) &(X))
  24:libhydrogen\impl/x25519.h **** # define hydro_x25519_LIMB(x) (uint32_t)(x##ull), (uint32_t)((x##ull) >> 32)
  25:libhydrogen\impl/x25519.h **** #else
  26:libhydrogen\impl/x25519.h **** # error "Need to know hydro_x25519_WBITS"
  27:libhydrogen\impl/x25519.h **** #endif
  28:libhydrogen\impl/x25519.h **** 
  29:libhydrogen\impl/x25519.h **** #define hydro_x25519_NLIMBS (256 / hydro_x25519_WBITS)
  30:libhydrogen\impl/x25519.h **** typedef hydro_x25519_limb_t hydro_x25519_fe[hydro_x25519_NLIMBS];
  31:libhydrogen\impl/x25519.h **** 
  32:libhydrogen\impl/x25519.h **** typedef hydro_x25519_limb_t hydro_x25519_scalar_t[hydro_x25519_NLIMBS];
  33:libhydrogen\impl/x25519.h **** 
  34:libhydrogen\impl/x25519.h **** static const hydro_x25519_limb_t hydro_x25519_MONTGOMERY_FACTOR =
  35:libhydrogen\impl/x25519.h ****     (hydro_x25519_limb_t) 0xd2b51da312547e1bull;
  36:libhydrogen\impl/x25519.h **** 
  37:libhydrogen\impl/x25519.h **** static const hydro_x25519_scalar_t hydro_x25519_sc_p = { hydro_x25519_LIMB(0x5812631a5cf5d3ed),
  38:libhydrogen\impl/x25519.h ****                                                          hydro_x25519_LIMB(0x14def9dea2f79cd6),
  39:libhydrogen\impl/x25519.h ****                                                          hydro_x25519_LIMB(0x0000000000000000),
  40:libhydrogen\impl/x25519.h ****                                                          hydro_x25519_LIMB(0x1000000000000000) };
  41:libhydrogen\impl/x25519.h **** 
  42:libhydrogen\impl/x25519.h **** static const hydro_x25519_scalar_t hydro_x25519_sc_r2 = { hydro_x25519_LIMB(0xa40611e3449c0f01),
  43:libhydrogen\impl/x25519.h ****                                                           hydro_x25519_LIMB(0xd00e1ba768859347),
  44:libhydrogen\impl/x25519.h ****                                                           hydro_x25519_LIMB(0xceec73d217f5be65),
  45:libhydrogen\impl/x25519.h ****                                                           hydro_x25519_LIMB(0x0399411b7c309a3d) };
  46:libhydrogen\impl/x25519.h **** 
  47:libhydrogen\impl/x25519.h **** static const uint8_t hydro_x25519_BASE_POINT[hydro_x25519_BYTES] = { 9 };
  48:libhydrogen\impl/x25519.h **** 
  49:libhydrogen\impl/x25519.h **** static const hydro_x25519_limb_t hydro_x25519_a24[1] = { 121665 };
  50:libhydrogen\impl/x25519.h **** 
  51:libhydrogen\impl/x25519.h **** static inline hydro_x25519_limb_t
  52:libhydrogen\impl/x25519.h **** hydro_x25519_umaal(hydro_x25519_limb_t *carry, hydro_x25519_limb_t acc, hydro_x25519_limb_t mand,
  53:libhydrogen\impl/x25519.h ****                    hydro_x25519_limb_t mier)
  54:libhydrogen\impl/x25519.h **** {
  55:libhydrogen\impl/x25519.h ****     hydro_x25519_dlimb_t tmp = (hydro_x25519_dlimb_t) mand * mier + acc + *carry;
ARM GAS  C:\Users\CCPOW_~1\AppData\Local\Temp\cccTFFy7.s 			page 16


  56:libhydrogen\impl/x25519.h **** 
  57:libhydrogen\impl/x25519.h ****     *carry = tmp >> hydro_x25519_WBITS;
  58:libhydrogen\impl/x25519.h ****     return (hydro_x25519_limb_t) tmp;
  59:libhydrogen\impl/x25519.h **** }
  60:libhydrogen\impl/x25519.h **** 
  61:libhydrogen\impl/x25519.h **** static inline hydro_x25519_limb_t
  62:libhydrogen\impl/x25519.h **** hydro_x25519_adc(hydro_x25519_limb_t *carry, hydro_x25519_limb_t acc, hydro_x25519_limb_t mand)
  63:libhydrogen\impl/x25519.h **** {
  64:libhydrogen\impl/x25519.h ****     hydro_x25519_dlimb_t total = (hydro_x25519_dlimb_t) *carry + acc + mand;
  65:libhydrogen\impl/x25519.h **** 
  66:libhydrogen\impl/x25519.h ****     *carry = total >> hydro_x25519_WBITS;
  67:libhydrogen\impl/x25519.h ****     return (hydro_x25519_limb_t) total;
  68:libhydrogen\impl/x25519.h **** }
  69:libhydrogen\impl/x25519.h **** 
  70:libhydrogen\impl/x25519.h **** static inline hydro_x25519_limb_t
  71:libhydrogen\impl/x25519.h **** hydro_x25519_adc0(hydro_x25519_limb_t *carry, hydro_x25519_limb_t acc)
  72:libhydrogen\impl/x25519.h **** {
  73:libhydrogen\impl/x25519.h ****     hydro_x25519_dlimb_t total = (hydro_x25519_dlimb_t) *carry + acc;
  74:libhydrogen\impl/x25519.h **** 
  75:libhydrogen\impl/x25519.h ****     *carry = total >> hydro_x25519_WBITS;
  76:libhydrogen\impl/x25519.h ****     return (hydro_x25519_limb_t) total;
  77:libhydrogen\impl/x25519.h **** }
  78:libhydrogen\impl/x25519.h **** 
  79:libhydrogen\impl/x25519.h **** static void
  80:libhydrogen\impl/x25519.h **** hydro_x25519_propagate(hydro_x25519_fe x, hydro_x25519_limb_t over)
  81:libhydrogen\impl/x25519.h **** {
 337              		.loc 5 81 0
 338              		.cfi_startproc
 339              		@ args = 0, pretend = 0, frame = 8
 340              		@ frame_needed = 0, uses_anonymous_args = 0
 341              	.LVL38:
 342 0000 F0B5     		push	{r4, r5, r6, r7, lr}
 343              		.cfi_def_cfa_offset 20
 344              		.cfi_offset 4, -20
 345              		.cfi_offset 5, -16
 346              		.cfi_offset 6, -12
 347              		.cfi_offset 7, -8
 348              		.cfi_offset 14, -4
 349 0002 4F46     		mov	r7, r9
 350 0004 4646     		mov	r6, r8
 351 0006 C0B4     		push	{r6, r7}
 352              		.cfi_def_cfa_offset 28
 353              		.cfi_offset 8, -28
 354              		.cfi_offset 9, -24
 355 0008 83B0     		sub	sp, sp, #12
 356              		.cfi_def_cfa_offset 40
 357 000a 8146     		mov	r9, r0
  82:libhydrogen\impl/x25519.h ****     hydro_x25519_limb_t carry;
  83:libhydrogen\impl/x25519.h ****     int                 i;
  84:libhydrogen\impl/x25519.h **** 
  85:libhydrogen\impl/x25519.h ****     over = x[hydro_x25519_NLIMBS - 1] >> (hydro_x25519_WBITS - 1) | over << 1;
 358              		.loc 5 85 0
 359 000c C669     		ldr	r6, [r0, #28]
 360 000e F00F     		lsrs	r0, r6, #31
 361              	.LVL39:
 362 0010 4900     		lsls	r1, r1, #1
 363              	.LVL40:
ARM GAS  C:\Users\CCPOW_~1\AppData\Local\Temp\cccTFFy7.s 			page 17


 364 0012 0143     		orrs	r1, r0
 365              	.LVL41:
  86:libhydrogen\impl/x25519.h ****     x[hydro_x25519_NLIMBS - 1] &= ~((hydro_x25519_limb_t) 1 << (hydro_x25519_WBITS - 1));
 366              		.loc 5 86 0
 367 0014 7600     		lsls	r6, r6, #1
 368 0016 7608     		lsrs	r6, r6, #1
 369 0018 4846     		mov	r0, r9
 370 001a C661     		str	r6, [r0, #28]
  87:libhydrogen\impl/x25519.h ****     carry = over * 19;
 371              		.loc 5 87 0
 372 001c C800     		lsls	r0, r1, #3
 373 001e 4018     		adds	r0, r0, r1
 374 0020 4000     		lsls	r0, r0, #1
 375 0022 4018     		adds	r0, r0, r1
 376              	.LVL42:
  88:libhydrogen\impl/x25519.h ****     for (i = 0; i < hydro_x25519_NLIMBS; i++) {
 377              		.loc 5 88 0
 378 0024 0021     		movs	r1, #0
 379              	.LVL43:
 380 0026 8846     		mov	r8, r1
 381 0028 12E0     		b	.L18
 382              	.LVL44:
 383              	.L19:
  89:libhydrogen\impl/x25519.h ****         x[i] = hydro_x25519_adc0(&carry, x[i]);
 384              		.loc 5 89 0 discriminator 3
 385 002a 4146     		mov	r1, r8
 386              	.LVL45:
 387 002c 8900     		lsls	r1, r1, #2
 388 002e 4944     		add	r1, r1, r9
 389              	.LVL46:
 390              	.LBB205:
 391              	.LBB206:
  73:libhydrogen\impl/x25519.h **** 
 392              		.loc 5 73 0 discriminator 3
 393 0030 0023     		movs	r3, #0
 394 0032 0C68     		ldr	r4, [r1]
 395 0034 0025     		movs	r5, #0
 396 0036 0600     		movs	r6, r0
 397 0038 1F00     		movs	r7, r3
 398 003a 3619     		adds	r6, r6, r4
 399 003c 6F41     		adcs	r7, r7, r5
 400 003e 0096     		str	r6, [sp]
 401 0040 0197     		str	r7, [sp, #4]
 402              	.LVL47:
 403              	.LBE206:
 404              	.LBE205:
 405              		.loc 5 89 0 discriminator 3
 406 0042 A446     		mov	ip, r4
 407 0044 6044     		add	r0, r0, ip
 408 0046 0860     		str	r0, [r1]
  88:libhydrogen\impl/x25519.h ****     for (i = 0; i < hydro_x25519_NLIMBS; i++) {
 409              		.loc 5 88 0 discriminator 3
 410 0048 0121     		movs	r1, #1
 411 004a 8C46     		mov	ip, r1
 412 004c E044     		add	r8, r8, ip
 413              	.LVL48:
 414              	.LBB208:
ARM GAS  C:\Users\CCPOW_~1\AppData\Local\Temp\cccTFFy7.s 			page 18


 415              	.LBB207:
  75:libhydrogen\impl/x25519.h ****     return (hydro_x25519_limb_t) total;
 416              		.loc 5 75 0 discriminator 3
 417 004e 0198     		ldr	r0, [sp, #4]
 418              	.LVL49:
 419              	.L18:
 420              	.LBE207:
 421              	.LBE208:
  88:libhydrogen\impl/x25519.h ****         x[i] = hydro_x25519_adc0(&carry, x[i]);
 422              		.loc 5 88 0 discriminator 1
 423 0050 4146     		mov	r1, r8
 424 0052 0729     		cmp	r1, #7
 425 0054 E9DD     		ble	.L19
  90:libhydrogen\impl/x25519.h ****     }
  91:libhydrogen\impl/x25519.h **** }
 426              		.loc 5 91 0
 427 0056 03B0     		add	sp, sp, #12
 428              		@ sp needed
 429              	.LVL50:
 430              	.LVL51:
 431 0058 0CBC     		pop	{r2, r3}
 432 005a 9046     		mov	r8, r2
 433 005c 9946     		mov	r9, r3
 434 005e F0BD     		pop	{r4, r5, r6, r7, pc}
 435              		.cfi_endproc
 436              	.LFE60:
 437              		.size	hydro_x25519_propagate, .-hydro_x25519_propagate
 438              		.section	.text.hydro_x25519_add,"ax",%progbits
 439              		.align	2
 440              		.code	16
 441              		.thumb_func
 442              		.type	hydro_x25519_add, %function
 443              	hydro_x25519_add:
 444              	.LFB61:
  92:libhydrogen\impl/x25519.h **** 
  93:libhydrogen\impl/x25519.h **** static void
  94:libhydrogen\impl/x25519.h **** hydro_x25519_add(hydro_x25519_fe out, const hydro_x25519_fe a, const hydro_x25519_fe b)
  95:libhydrogen\impl/x25519.h **** {
 445              		.loc 5 95 0
 446              		.cfi_startproc
 447              		@ args = 0, pretend = 0, frame = 16
 448              		@ frame_needed = 0, uses_anonymous_args = 0
 449              	.LVL52:
 450 0000 F0B5     		push	{r4, r5, r6, r7, lr}
 451              		.cfi_def_cfa_offset 20
 452              		.cfi_offset 4, -20
 453              		.cfi_offset 5, -16
 454              		.cfi_offset 6, -12
 455              		.cfi_offset 7, -8
 456              		.cfi_offset 14, -4
 457 0002 4F46     		mov	r7, r9
 458 0004 4646     		mov	r6, r8
 459 0006 C0B4     		push	{r6, r7}
 460              		.cfi_def_cfa_offset 28
 461              		.cfi_offset 8, -28
 462              		.cfi_offset 9, -24
 463 0008 85B0     		sub	sp, sp, #20
ARM GAS  C:\Users\CCPOW_~1\AppData\Local\Temp\cccTFFy7.s 			page 19


 464              		.cfi_def_cfa_offset 48
 465 000a 8446     		mov	ip, r0
 466 000c 8946     		mov	r9, r1
 467 000e 9046     		mov	r8, r2
 468              	.LVL53:
  96:libhydrogen\impl/x25519.h ****     hydro_x25519_limb_t carry = 0;
 469              		.loc 5 96 0
 470 0010 0023     		movs	r3, #0
  97:libhydrogen\impl/x25519.h ****     int                 i;
  98:libhydrogen\impl/x25519.h **** 
  99:libhydrogen\impl/x25519.h ****     for (i = 0; i < hydro_x25519_NLIMBS; i++) {
 471              		.loc 5 99 0
 472 0012 0021     		movs	r1, #0
 473              	.LVL54:
 474 0014 16E0     		b	.L21
 475              	.LVL55:
 476              	.L22:
 100:libhydrogen\impl/x25519.h ****         out[i] = hydro_x25519_adc(&carry, a[i], b[i]);
 477              		.loc 5 100 0 discriminator 3
 478 0016 8800     		lsls	r0, r1, #2
 479              	.LVL56:
 480              	.LBB209:
 481              	.LBB210:
  64:libhydrogen\impl/x25519.h **** 
 482              		.loc 5 64 0 discriminator 3
 483 0018 0093     		str	r3, [sp]
 484 001a 0023     		movs	r3, #0
 485 001c 0193     		str	r3, [sp, #4]
 486 001e 4B46     		mov	r3, r9
 487              	.LVL57:
 488 0020 1B58     		ldr	r3, [r3, r0]
 489 0022 0293     		str	r3, [sp, #8]
 490 0024 0023     		movs	r3, #0
 491 0026 0393     		str	r3, [sp, #12]
 492 0028 009A     		ldr	r2, [sp]
 493 002a 019B     		ldr	r3, [sp, #4]
 494 002c 029E     		ldr	r6, [sp, #8]
 495 002e 039F     		ldr	r7, [sp, #12]
 496 0030 9219     		adds	r2, r2, r6
 497 0032 7B41     		adcs	r3, r3, r7
 498 0034 4646     		mov	r6, r8
 499 0036 3458     		ldr	r4, [r6, r0]
 500 0038 0025     		movs	r5, #0
 501 003a 1219     		adds	r2, r2, r4
 502 003c 6B41     		adcs	r3, r3, r5
 503              	.LVL58:
 504              	.LBE210:
 505              	.LBE209:
 506              		.loc 5 100 0 discriminator 3
 507 003e 6646     		mov	r6, ip
 508 0040 3250     		str	r2, [r6, r0]
  99:libhydrogen\impl/x25519.h ****         out[i] = hydro_x25519_adc(&carry, a[i], b[i]);
 509              		.loc 5 99 0 discriminator 3
 510 0042 0131     		adds	r1, r1, #1
 511              	.LVL59:
 512              	.L21:
  99:libhydrogen\impl/x25519.h ****         out[i] = hydro_x25519_adc(&carry, a[i], b[i]);
ARM GAS  C:\Users\CCPOW_~1\AppData\Local\Temp\cccTFFy7.s 			page 20


 513              		.loc 5 99 0 is_stmt 0 discriminator 1
 514 0044 0729     		cmp	r1, #7
 515 0046 E6DD     		ble	.L22
 101:libhydrogen\impl/x25519.h ****     }
 102:libhydrogen\impl/x25519.h ****     hydro_x25519_propagate(out, carry);
 516              		.loc 5 102 0 is_stmt 1
 517 0048 1900     		movs	r1, r3
 518              	.LVL60:
 519 004a 6046     		mov	r0, ip
 520 004c FFF7FEFF 		bl	hydro_x25519_propagate
 521              	.LVL61:
 103:libhydrogen\impl/x25519.h **** }
 522              		.loc 5 103 0
 523 0050 05B0     		add	sp, sp, #20
 524              		@ sp needed
 525              	.LVL62:
 526              	.LVL63:
 527 0052 0CBC     		pop	{r2, r3}
 528 0054 9046     		mov	r8, r2
 529 0056 9946     		mov	r9, r3
 530 0058 F0BD     		pop	{r4, r5, r6, r7, pc}
 531              		.cfi_endproc
 532              	.LFE61:
 533              		.size	hydro_x25519_add, .-hydro_x25519_add
 534 005a C046     		.section	.text.hydro_x25519_sub,"ax",%progbits
 535              		.align	2
 536              		.code	16
 537              		.thumb_func
 538              		.type	hydro_x25519_sub, %function
 539              	hydro_x25519_sub:
 540              	.LFB62:
 104:libhydrogen\impl/x25519.h **** 
 105:libhydrogen\impl/x25519.h **** static void
 106:libhydrogen\impl/x25519.h **** hydro_x25519_sub(hydro_x25519_fe out, const hydro_x25519_fe a, const hydro_x25519_fe b)
 107:libhydrogen\impl/x25519.h **** {
 541              		.loc 5 107 0
 542              		.cfi_startproc
 543              		@ args = 0, pretend = 0, frame = 8
 544              		@ frame_needed = 0, uses_anonymous_args = 0
 545              	.LVL64:
 546 0000 F0B5     		push	{r4, r5, r6, r7, lr}
 547              		.cfi_def_cfa_offset 20
 548              		.cfi_offset 4, -20
 549              		.cfi_offset 5, -16
 550              		.cfi_offset 6, -12
 551              		.cfi_offset 7, -8
 552              		.cfi_offset 14, -4
 553 0002 5F46     		mov	r7, fp
 554 0004 5646     		mov	r6, r10
 555 0006 4D46     		mov	r5, r9
 556 0008 4446     		mov	r4, r8
 557 000a F0B4     		push	{r4, r5, r6, r7}
 558              		.cfi_def_cfa_offset 36
 559              		.cfi_offset 8, -36
 560              		.cfi_offset 9, -32
 561              		.cfi_offset 10, -28
 562              		.cfi_offset 11, -24
ARM GAS  C:\Users\CCPOW_~1\AppData\Local\Temp\cccTFFy7.s 			page 21


 563 000c 83B0     		sub	sp, sp, #12
 564              		.cfi_def_cfa_offset 48
 565 000e 8146     		mov	r9, r0
 566 0010 8B46     		mov	fp, r1
 567 0012 9246     		mov	r10, r2
 568              	.LVL65:
 108:libhydrogen\impl/x25519.h ****     hydro_x25519_sdlimb_t carry = -38;
 109:libhydrogen\impl/x25519.h ****     int                   i;
 110:libhydrogen\impl/x25519.h **** 
 111:libhydrogen\impl/x25519.h ****     for (i = 0; i < hydro_x25519_NLIMBS; i++) {
 569              		.loc 5 111 0
 570 0014 0023     		movs	r3, #0
 571 0016 9C46     		mov	ip, r3
 108:libhydrogen\impl/x25519.h ****     hydro_x25519_sdlimb_t carry = -38;
 572              		.loc 5 108 0
 573 0018 2620     		movs	r0, #38
 574 001a 4042     		rsbs	r0, r0, #0
 575 001c C117     		asrs	r1, r0, #31
 576              	.LVL66:
 577              		.loc 5 111 0
 578 001e 19E0     		b	.L24
 579              	.LVL67:
 580              	.L25:
 112:libhydrogen\impl/x25519.h ****         out[i] = carry = carry + a[i] - b[i];
 581              		.loc 5 112 0 discriminator 3
 582 0020 6346     		mov	r3, ip
 583              	.LVL68:
 584 0022 9B00     		lsls	r3, r3, #2
 585 0024 9846     		mov	r8, r3
 586 0026 5B46     		mov	r3, fp
 587 0028 4246     		mov	r2, r8
 588 002a 9B58     		ldr	r3, [r3, r2]
 589 002c 0093     		str	r3, [sp]
 590 002e 0023     		movs	r3, #0
 591 0030 0193     		str	r3, [sp, #4]
 592 0032 009A     		ldr	r2, [sp]
 593 0034 019B     		ldr	r3, [sp, #4]
 594 0036 1218     		adds	r2, r2, r0
 595 0038 4B41     		adcs	r3, r3, r1
 596 003a 5646     		mov	r6, r10
 597 003c 4746     		mov	r7, r8
 598 003e F459     		ldr	r4, [r6, r7]
 599 0040 0025     		movs	r5, #0
 600 0042 121B     		subs	r2, r2, r4
 601 0044 AB41     		sbcs	r3, r3, r5
 602              	.LVL69:
 603 0046 4E46     		mov	r6, r9
 604 0048 F251     		str	r2, [r6, r7]
 113:libhydrogen\impl/x25519.h ****         carry >>= hydro_x25519_WBITS;
 605              		.loc 5 113 0 discriminator 3
 606 004a 1800     		movs	r0, r3
 607 004c D917     		asrs	r1, r3, #31
 608              	.LVL70:
 111:libhydrogen\impl/x25519.h ****         out[i] = carry = carry + a[i] - b[i];
 609              		.loc 5 111 0 discriminator 3
 610 004e 0123     		movs	r3, #1
 611 0050 9846     		mov	r8, r3
ARM GAS  C:\Users\CCPOW_~1\AppData\Local\Temp\cccTFFy7.s 			page 22


 612 0052 C444     		add	ip, ip, r8
 613              	.LVL71:
 614              	.L24:
 111:libhydrogen\impl/x25519.h ****         out[i] = carry = carry + a[i] - b[i];
 615              		.loc 5 111 0 is_stmt 0 discriminator 1
 616 0054 6346     		mov	r3, ip
 617 0056 072B     		cmp	r3, #7
 618 0058 E2DD     		ble	.L25
 114:libhydrogen\impl/x25519.h ****     }
 115:libhydrogen\impl/x25519.h ****     hydro_x25519_propagate(out, 1 + carry);
 619              		.loc 5 115 0 is_stmt 1
 620 005a 411C     		adds	r1, r0, #1
 621 005c 4846     		mov	r0, r9
 622              	.LVL72:
 623 005e FFF7FEFF 		bl	hydro_x25519_propagate
 624              	.LVL73:
 116:libhydrogen\impl/x25519.h **** }
 625              		.loc 5 116 0
 626 0062 03B0     		add	sp, sp, #12
 627              		@ sp needed
 628              	.LVL74:
 629              	.LVL75:
 630              	.LVL76:
 631 0064 3CBC     		pop	{r2, r3, r4, r5}
 632 0066 9046     		mov	r8, r2
 633 0068 9946     		mov	r9, r3
 634 006a A246     		mov	r10, r4
 635 006c AB46     		mov	fp, r5
 636 006e F0BD     		pop	{r4, r5, r6, r7, pc}
 637              		.cfi_endproc
 638              	.LFE62:
 639              		.size	hydro_x25519_sub, .-hydro_x25519_sub
 640              		.global	__aeabi_lmul
 641              		.section	.text.hydro_x25519_mul,"ax",%progbits
 642              		.align	2
 643              		.code	16
 644              		.thumb_func
 645              		.type	hydro_x25519_mul, %function
 646              	hydro_x25519_mul:
 647              	.LFB65:
 117:libhydrogen\impl/x25519.h **** 
 118:libhydrogen\impl/x25519.h **** static void
 119:libhydrogen\impl/x25519.h **** hydro_x25519_swapin(hydro_x25519_limb_t *x, const uint8_t *in)
 120:libhydrogen\impl/x25519.h **** {
 121:libhydrogen\impl/x25519.h ****     int i;
 122:libhydrogen\impl/x25519.h **** 
 123:libhydrogen\impl/x25519.h ****     memcpy(x, in, sizeof(hydro_x25519_fe));
 124:libhydrogen\impl/x25519.h ****     for (i = 0; i < hydro_x25519_NLIMBS; i++) {
 125:libhydrogen\impl/x25519.h ****         x[i] = hydro_x25519_eswap_limb(x[i]);
 126:libhydrogen\impl/x25519.h ****     }
 127:libhydrogen\impl/x25519.h **** }
 128:libhydrogen\impl/x25519.h **** 
 129:libhydrogen\impl/x25519.h **** static void
 130:libhydrogen\impl/x25519.h **** hydro_x25519_swapout(uint8_t *out, hydro_x25519_limb_t *x)
 131:libhydrogen\impl/x25519.h **** {
 132:libhydrogen\impl/x25519.h ****     int i;
 133:libhydrogen\impl/x25519.h **** 
ARM GAS  C:\Users\CCPOW_~1\AppData\Local\Temp\cccTFFy7.s 			page 23


 134:libhydrogen\impl/x25519.h ****     for (i = 0; i < hydro_x25519_NLIMBS; i++) {
 135:libhydrogen\impl/x25519.h ****         x[i] = hydro_x25519_eswap_limb(x[i]);
 136:libhydrogen\impl/x25519.h ****     }
 137:libhydrogen\impl/x25519.h ****     memcpy(out, x, sizeof(hydro_x25519_fe));
 138:libhydrogen\impl/x25519.h **** }
 139:libhydrogen\impl/x25519.h **** 
 140:libhydrogen\impl/x25519.h **** static void
 141:libhydrogen\impl/x25519.h **** hydro_x25519_mul(hydro_x25519_fe out, const hydro_x25519_fe a, const hydro_x25519_fe b, int nb)
 142:libhydrogen\impl/x25519.h **** {
 648              		.loc 5 142 0
 649              		.cfi_startproc
 650              		@ args = 0, pretend = 0, frame = 112
 651              		@ frame_needed = 0, uses_anonymous_args = 0
 652              	.LVL77:
 653 0000 F0B5     		push	{r4, r5, r6, r7, lr}
 654              		.cfi_def_cfa_offset 20
 655              		.cfi_offset 4, -20
 656              		.cfi_offset 5, -16
 657              		.cfi_offset 6, -12
 658              		.cfi_offset 7, -8
 659              		.cfi_offset 14, -4
 660 0002 5F46     		mov	r7, fp
 661 0004 5646     		mov	r6, r10
 662 0006 4D46     		mov	r5, r9
 663 0008 4446     		mov	r4, r8
 664 000a F0B4     		push	{r4, r5, r6, r7}
 665              		.cfi_def_cfa_offset 36
 666              		.cfi_offset 8, -36
 667              		.cfi_offset 9, -32
 668              		.cfi_offset 10, -28
 669              		.cfi_offset 11, -24
 670 000c 9DB0     		sub	sp, sp, #116
 671              		.cfi_def_cfa_offset 152
 672 000e 8246     		mov	r10, r0
 673 0010 0C00     		movs	r4, r1
 674 0012 9346     		mov	fp, r2
 675 0014 9946     		mov	r9, r3
 143:libhydrogen\impl/x25519.h ****     hydro_x25519_limb_t accum[2 * hydro_x25519_NLIMBS] = { 0 };
 676              		.loc 5 143 0
 677 0016 4022     		movs	r2, #64
 678              	.LVL78:
 679 0018 0021     		movs	r1, #0
 680              	.LVL79:
 681 001a 0CA8     		add	r0, sp, #48
 682              	.LVL80:
 683 001c FFF7FEFF 		bl	memset
 684              	.LVL81:
 144:libhydrogen\impl/x25519.h ****     hydro_x25519_limb_t carry2;
 145:libhydrogen\impl/x25519.h ****     int                 i, j;
 146:libhydrogen\impl/x25519.h **** 
 147:libhydrogen\impl/x25519.h ****     for (i = 0; i < nb; i++) {
 685              		.loc 5 147 0
 686 0020 0023     		movs	r3, #0
 687 0022 5246     		mov	r2, r10
 688 0024 0992     		str	r2, [sp, #36]
 689 0026 A246     		mov	r10, r4
 690              	.LVL82:
ARM GAS  C:\Users\CCPOW_~1\AppData\Local\Temp\cccTFFy7.s 			page 24


 691 0028 5A46     		mov	r2, fp
 692              	.LVL83:
 693 002a 0892     		str	r2, [sp, #32]
 694 002c 9B46     		mov	fp, r3
 695              	.LVL84:
 696 002e 4B46     		mov	r3, r9
 697 0030 0793     		str	r3, [sp, #28]
 698 0032 33E0     		b	.L27
 699              	.LVL85:
 700              	.L30:
 701              	.LBB211:
 148:libhydrogen\impl/x25519.h ****         carry2                   = 0;
 149:libhydrogen\impl/x25519.h ****         hydro_x25519_limb_t mand = b[i];
 702              		.loc 5 149 0
 703 0034 5B46     		mov	r3, fp
 704 0036 9B00     		lsls	r3, r3, #2
 705 0038 089A     		ldr	r2, [sp, #32]
 706 003a D358     		ldr	r3, [r2, r3]
 707 003c 0693     		str	r3, [sp, #24]
 708              	.LVL86:
 148:libhydrogen\impl/x25519.h ****         carry2                   = 0;
 709              		.loc 5 148 0
 710 003e 0023     		movs	r3, #0
 711              	.LVL87:
 712 0040 0093     		str	r3, [sp]
 150:libhydrogen\impl/x25519.h ****         for (j = 0; j < hydro_x25519_NLIMBS; j++) {
 713              		.loc 5 150 0
 714 0042 9846     		mov	r8, r3
 715 0044 1FE0     		b	.L28
 716              	.LVL88:
 717              	.L29:
 151:libhydrogen\impl/x25519.h ****             accum[i + j] = hydro_x25519_umaal(&carry2, accum[i + j], mand, a[j]);
 718              		.loc 5 151 0 discriminator 3
 719 0046 5B46     		mov	r3, fp
 720              	.LVL89:
 721 0048 4344     		add	r3, r3, r8
 722 004a 9B00     		lsls	r3, r3, #2
 723 004c 9946     		mov	r9, r3
 724 004e 0CAB     		add	r3, sp, #48
 725 0050 4A46     		mov	r2, r9
 726 0052 D358     		ldr	r3, [r2, r3]
 727 0054 0393     		str	r3, [sp, #12]
 728 0056 4246     		mov	r2, r8
 729 0058 9300     		lsls	r3, r2, #2
 730 005a 5246     		mov	r2, r10
 731 005c D058     		ldr	r0, [r2, r3]
 732              	.LVL90:
 733              	.LBB212:
 734              	.LBB213:
  55:libhydrogen\impl/x25519.h **** 
 735              		.loc 5 55 0 discriminator 3
 736 005e 069A     		ldr	r2, [sp, #24]
 737 0060 0023     		movs	r3, #0
 738 0062 0021     		movs	r1, #0
 739 0064 FFF7FEFF 		bl	__aeabi_lmul
 740              	.LVL91:
 741 0068 039C     		ldr	r4, [sp, #12]
ARM GAS  C:\Users\CCPOW_~1\AppData\Local\Temp\cccTFFy7.s 			page 25


 742 006a 0025     		movs	r5, #0
 743 006c 0019     		adds	r0, r0, r4
 744 006e 6941     		adcs	r1, r1, r5
 745 0070 009E     		ldr	r6, [sp]
 746 0072 0027     		movs	r7, #0
 747 0074 8019     		adds	r0, r0, r6
 748 0076 7941     		adcs	r1, r1, r7
 749              	.LVL92:
  57:libhydrogen\impl/x25519.h ****     return (hydro_x25519_limb_t) tmp;
 750              		.loc 5 57 0 discriminator 3
 751 0078 0091     		str	r1, [sp]
 752              	.LVL93:
 753              	.LBE213:
 754              	.LBE212:
 755              		.loc 5 151 0 discriminator 3
 756 007a 0CAB     		add	r3, sp, #48
 757 007c 4A46     		mov	r2, r9
 758 007e D050     		str	r0, [r2, r3]
 150:libhydrogen\impl/x25519.h ****             accum[i + j] = hydro_x25519_umaal(&carry2, accum[i + j], mand, a[j]);
 759              		.loc 5 150 0 discriminator 3
 760 0080 0123     		movs	r3, #1
 761 0082 9C46     		mov	ip, r3
 762 0084 E044     		add	r8, r8, ip
 763              	.LVL94:
 764              	.L28:
 150:libhydrogen\impl/x25519.h ****             accum[i + j] = hydro_x25519_umaal(&carry2, accum[i + j], mand, a[j]);
 765              		.loc 5 150 0 is_stmt 0 discriminator 1
 766 0086 4346     		mov	r3, r8
 767 0088 072B     		cmp	r3, #7
 768 008a DCDD     		ble	.L29
 152:libhydrogen\impl/x25519.h ****         }
 153:libhydrogen\impl/x25519.h ****         accum[i + j] = carry2;
 769              		.loc 5 153 0 is_stmt 1 discriminator 2
 770 008c 5B44     		add	r3, r3, fp
 771 008e 9B00     		lsls	r3, r3, #2
 772 0090 0CAA     		add	r2, sp, #48
 773 0092 0099     		ldr	r1, [sp]
 774 0094 9950     		str	r1, [r3, r2]
 775              	.LBE211:
 147:libhydrogen\impl/x25519.h ****         carry2                   = 0;
 776              		.loc 5 147 0 discriminator 2
 777 0096 0123     		movs	r3, #1
 778 0098 9C46     		mov	ip, r3
 779 009a E344     		add	fp, fp, ip
 780              	.LVL95:
 781              	.L27:
 147:libhydrogen\impl/x25519.h ****         carry2                   = 0;
 782              		.loc 5 147 0 is_stmt 0 discriminator 1
 783 009c 079B     		ldr	r3, [sp, #28]
 784 009e 9B45     		cmp	fp, r3
 785 00a0 C8DB     		blt	.L30
 786 00a2 099B     		ldr	r3, [sp, #36]
 787 00a4 0024     		movs	r4, #0
 788 00a6 0094     		str	r4, [sp]
 789 00a8 1D00     		movs	r5, r3
 790 00aa 1EE0     		b	.L31
 791              	.LVL96:
ARM GAS  C:\Users\CCPOW_~1\AppData\Local\Temp\cccTFFy7.s 			page 26


 792              	.L32:
 793              	.LBB214:
 154:libhydrogen\impl/x25519.h ****     }
 155:libhydrogen\impl/x25519.h ****     carry2 = 0;
 156:libhydrogen\impl/x25519.h ****     for (j = 0; j < hydro_x25519_NLIMBS; j++) {
 157:libhydrogen\impl/x25519.h ****         const hydro_x25519_limb_t mand = 38;
 158:libhydrogen\impl/x25519.h **** 
 159:libhydrogen\impl/x25519.h ****         out[j] = hydro_x25519_umaal(&carry2, accum[j], mand, accum[j + hydro_x25519_NLIMBS]);
 794              		.loc 5 159 0 is_stmt 1 discriminator 3
 795 00ac A300     		lsls	r3, r4, #2
 796 00ae EA18     		adds	r2, r5, r3
 797 00b0 9146     		mov	r9, r2
 798 00b2 0CAA     		add	r2, sp, #48
 799 00b4 9B58     		ldr	r3, [r3, r2]
 800 00b6 9B46     		mov	fp, r3
 801 00b8 2300     		movs	r3, r4
 802 00ba 0833     		adds	r3, r3, #8
 803 00bc 9B00     		lsls	r3, r3, #2
 804 00be 9858     		ldr	r0, [r3, r2]
 805              	.LVL97:
 806              	.LBB215:
 807              	.LBB216:
  55:libhydrogen\impl/x25519.h **** 
 808              		.loc 5 55 0 discriminator 3
 809 00c0 2622     		movs	r2, #38
 810 00c2 0023     		movs	r3, #0
 811 00c4 0021     		movs	r1, #0
 812 00c6 FFF7FEFF 		bl	__aeabi_lmul
 813              	.LVL98:
 814 00ca 5B46     		mov	r3, fp
 815 00cc 0493     		str	r3, [sp, #16]
 816 00ce 0023     		movs	r3, #0
 817 00d0 0593     		str	r3, [sp, #20]
 818 00d2 049A     		ldr	r2, [sp, #16]
 819 00d4 059B     		ldr	r3, [sp, #20]
 820 00d6 8018     		adds	r0, r0, r2
 821 00d8 5941     		adcs	r1, r1, r3
 822 00da 009E     		ldr	r6, [sp]
 823 00dc 0027     		movs	r7, #0
 824 00de 8019     		adds	r0, r0, r6
 825 00e0 7941     		adcs	r1, r1, r7
 826              	.LVL99:
  57:libhydrogen\impl/x25519.h ****     return (hydro_x25519_limb_t) tmp;
 827              		.loc 5 57 0 discriminator 3
 828 00e2 0091     		str	r1, [sp]
 829              	.LVL100:
 830              	.LBE216:
 831              	.LBE215:
 832              		.loc 5 159 0 discriminator 3
 833 00e4 4B46     		mov	r3, r9
 834 00e6 1860     		str	r0, [r3]
 835              	.LBE214:
 156:libhydrogen\impl/x25519.h ****         const hydro_x25519_limb_t mand = 38;
 836              		.loc 5 156 0 discriminator 3
 837 00e8 0134     		adds	r4, r4, #1
 838              	.LVL101:
 839              	.L31:
ARM GAS  C:\Users\CCPOW_~1\AppData\Local\Temp\cccTFFy7.s 			page 27


 156:libhydrogen\impl/x25519.h ****         const hydro_x25519_limb_t mand = 38;
 840              		.loc 5 156 0 is_stmt 0 discriminator 1
 841 00ea 072C     		cmp	r4, #7
 842 00ec DEDD     		ble	.L32
 843 00ee 009C     		ldr	r4, [sp]
 844              	.LVL102:
 160:libhydrogen\impl/x25519.h ****     }
 161:libhydrogen\impl/x25519.h ****     hydro_x25519_propagate(out, carry2);
 845              		.loc 5 161 0 is_stmt 1
 846 00f0 2100     		movs	r1, r4
 847 00f2 2800     		movs	r0, r5
 848 00f4 FFF7FEFF 		bl	hydro_x25519_propagate
 849              	.LVL103:
 162:libhydrogen\impl/x25519.h **** }
 850              		.loc 5 162 0
 851 00f8 1DB0     		add	sp, sp, #116
 852              		@ sp needed
 853              	.LVL104:
 854 00fa 3CBC     		pop	{r2, r3, r4, r5}
 855 00fc 9046     		mov	r8, r2
 856 00fe 9946     		mov	r9, r3
 857 0100 A246     		mov	r10, r4
 858 0102 AB46     		mov	fp, r5
 859 0104 F0BD     		pop	{r4, r5, r6, r7, pc}
 860              		.cfi_endproc
 861              	.LFE65:
 862              		.size	hydro_x25519_mul, .-hydro_x25519_mul
 863 0106 C046     		.section	.text.hydro_x25519_sqr,"ax",%progbits
 864              		.align	2
 865              		.code	16
 866              		.thumb_func
 867              		.type	hydro_x25519_sqr, %function
 868              	hydro_x25519_sqr:
 869              	.LFB66:
 163:libhydrogen\impl/x25519.h **** 
 164:libhydrogen\impl/x25519.h **** static void
 165:libhydrogen\impl/x25519.h **** hydro_x25519_sqr(hydro_x25519_fe out, const hydro_x25519_fe a)
 166:libhydrogen\impl/x25519.h **** {
 870              		.loc 5 166 0
 871              		.cfi_startproc
 872              		@ args = 0, pretend = 0, frame = 0
 873              		@ frame_needed = 0, uses_anonymous_args = 0
 874              	.LVL105:
 875 0000 10B5     		push	{r4, lr}
 876              		.cfi_def_cfa_offset 8
 877              		.cfi_offset 4, -8
 878              		.cfi_offset 14, -4
 167:libhydrogen\impl/x25519.h ****     hydro_x25519_mul(out, a, a, hydro_x25519_NLIMBS);
 879              		.loc 5 167 0
 880 0002 0823     		movs	r3, #8
 881 0004 0A00     		movs	r2, r1
 882 0006 FFF7FEFF 		bl	hydro_x25519_mul
 883              	.LVL106:
 168:libhydrogen\impl/x25519.h **** }
 884              		.loc 5 168 0
 885              		@ sp needed
 886 000a 10BD     		pop	{r4, pc}
ARM GAS  C:\Users\CCPOW_~1\AppData\Local\Temp\cccTFFy7.s 			page 28


 887              		.cfi_endproc
 888              	.LFE66:
 889              		.size	hydro_x25519_sqr, .-hydro_x25519_sqr
 890              		.section	.text.hydro_x25519_mul1,"ax",%progbits
 891              		.align	2
 892              		.code	16
 893              		.thumb_func
 894              		.type	hydro_x25519_mul1, %function
 895              	hydro_x25519_mul1:
 896              	.LFB67:
 169:libhydrogen\impl/x25519.h **** 
 170:libhydrogen\impl/x25519.h **** static void
 171:libhydrogen\impl/x25519.h **** hydro_x25519_mul1(hydro_x25519_fe out, const hydro_x25519_fe a)
 172:libhydrogen\impl/x25519.h **** {
 897              		.loc 5 172 0
 898              		.cfi_startproc
 899              		@ args = 0, pretend = 0, frame = 0
 900              		@ frame_needed = 0, uses_anonymous_args = 0
 901              	.LVL107:
 902 0000 10B5     		push	{r4, lr}
 903              		.cfi_def_cfa_offset 8
 904              		.cfi_offset 4, -8
 905              		.cfi_offset 14, -4
 173:libhydrogen\impl/x25519.h ****     hydro_x25519_mul(out, a, out, hydro_x25519_NLIMBS);
 906              		.loc 5 173 0
 907 0002 0823     		movs	r3, #8
 908 0004 0200     		movs	r2, r0
 909 0006 FFF7FEFF 		bl	hydro_x25519_mul
 910              	.LVL108:
 174:libhydrogen\impl/x25519.h **** }
 911              		.loc 5 174 0
 912              		@ sp needed
 913 000a 10BD     		pop	{r4, pc}
 914              		.cfi_endproc
 915              	.LFE67:
 916              		.size	hydro_x25519_mul1, .-hydro_x25519_mul1
 917              		.section	.text.hydro_x25519_sqr1,"ax",%progbits
 918              		.align	2
 919              		.code	16
 920              		.thumb_func
 921              		.type	hydro_x25519_sqr1, %function
 922              	hydro_x25519_sqr1:
 923              	.LFB68:
 175:libhydrogen\impl/x25519.h **** 
 176:libhydrogen\impl/x25519.h **** static void
 177:libhydrogen\impl/x25519.h **** hydro_x25519_sqr1(hydro_x25519_fe a)
 178:libhydrogen\impl/x25519.h **** {
 924              		.loc 5 178 0
 925              		.cfi_startproc
 926              		@ args = 0, pretend = 0, frame = 0
 927              		@ frame_needed = 0, uses_anonymous_args = 0
 928              	.LVL109:
 929 0000 10B5     		push	{r4, lr}
 930              		.cfi_def_cfa_offset 8
 931              		.cfi_offset 4, -8
 932              		.cfi_offset 14, -4
 179:libhydrogen\impl/x25519.h ****     hydro_x25519_mul1(a, a);
ARM GAS  C:\Users\CCPOW_~1\AppData\Local\Temp\cccTFFy7.s 			page 29


 933              		.loc 5 179 0
 934 0002 0100     		movs	r1, r0
 935 0004 FFF7FEFF 		bl	hydro_x25519_mul1
 936              	.LVL110:
 180:libhydrogen\impl/x25519.h **** }
 937              		.loc 5 180 0
 938              		@ sp needed
 939 0008 10BD     		pop	{r4, pc}
 940              		.cfi_endproc
 941              	.LFE68:
 942              		.size	hydro_x25519_sqr1, .-hydro_x25519_sqr1
 943 000a C046     		.section	.text.hydro_x25519_condswap,"ax",%progbits
 944              		.align	2
 945              		.code	16
 946              		.thumb_func
 947              		.type	hydro_x25519_condswap, %function
 948              	hydro_x25519_condswap:
 949              	.LFB69:
 181:libhydrogen\impl/x25519.h **** 
 182:libhydrogen\impl/x25519.h **** static void
 183:libhydrogen\impl/x25519.h **** hydro_x25519_condswap(hydro_x25519_limb_t a[2 * hydro_x25519_NLIMBS],
 184:libhydrogen\impl/x25519.h ****                       hydro_x25519_limb_t b[2 * hydro_x25519_NLIMBS], hydro_x25519_limb_t doswap)
 185:libhydrogen\impl/x25519.h **** {
 950              		.loc 5 185 0
 951              		.cfi_startproc
 952              		@ args = 0, pretend = 0, frame = 0
 953              		@ frame_needed = 0, uses_anonymous_args = 0
 954              	.LVL111:
 955 0000 F0B5     		push	{r4, r5, r6, r7, lr}
 956              		.cfi_def_cfa_offset 20
 957              		.cfi_offset 4, -20
 958              		.cfi_offset 5, -16
 959              		.cfi_offset 6, -12
 960              		.cfi_offset 7, -8
 961              		.cfi_offset 14, -4
 962              	.LVL112:
 186:libhydrogen\impl/x25519.h ****     int i;
 187:libhydrogen\impl/x25519.h **** 
 188:libhydrogen\impl/x25519.h ****     for (i = 0; i < 2 * hydro_x25519_NLIMBS; i++) {
 963              		.loc 5 188 0
 964 0002 0026     		movs	r6, #0
 965 0004 0CE0     		b	.L37
 966              	.LVL113:
 967              	.L38:
 968              	.LBB217:
 189:libhydrogen\impl/x25519.h ****         hydro_x25519_limb_t xorv = (a[i] ^ b[i]) & doswap;
 969              		.loc 5 189 0 discriminator 3
 970 0006 B400     		lsls	r4, r6, #2
 971 0008 0719     		adds	r7, r0, r4
 972 000a 3D68     		ldr	r5, [r7]
 973 000c 0C19     		adds	r4, r1, r4
 974 000e 2368     		ldr	r3, [r4]
 975 0010 6B40     		eors	r3, r5
 976 0012 1340     		ands	r3, r2
 977              	.LVL114:
 190:libhydrogen\impl/x25519.h ****         a[i] ^= xorv;
 978              		.loc 5 190 0 discriminator 3
ARM GAS  C:\Users\CCPOW_~1\AppData\Local\Temp\cccTFFy7.s 			page 30


 979 0014 5D40     		eors	r5, r3
 980 0016 3D60     		str	r5, [r7]
 191:libhydrogen\impl/x25519.h ****         b[i] ^= xorv;
 981              		.loc 5 191 0 discriminator 3
 982 0018 2568     		ldr	r5, [r4]
 983 001a 6B40     		eors	r3, r5
 984              	.LVL115:
 985 001c 2360     		str	r3, [r4]
 986              	.LBE217:
 188:libhydrogen\impl/x25519.h ****         hydro_x25519_limb_t xorv = (a[i] ^ b[i]) & doswap;
 987              		.loc 5 188 0 discriminator 3
 988 001e 0136     		adds	r6, r6, #1
 989              	.LVL116:
 990              	.L37:
 188:libhydrogen\impl/x25519.h ****         hydro_x25519_limb_t xorv = (a[i] ^ b[i]) & doswap;
 991              		.loc 5 188 0 is_stmt 0 discriminator 1
 992 0020 0F2E     		cmp	r6, #15
 993 0022 F0DD     		ble	.L38
 192:libhydrogen\impl/x25519.h ****     }
 193:libhydrogen\impl/x25519.h **** }
 994              		.loc 5 193 0 is_stmt 1
 995              		@ sp needed
 996              	.LVL117:
 997 0024 F0BD     		pop	{r4, r5, r6, r7, pc}
 998              		.cfi_endproc
 999              	.LFE69:
 1000              		.size	hydro_x25519_condswap, .-hydro_x25519_condswap
 1001 0026 C046     		.section	.text.hydro_x25519_canon,"ax",%progbits
 1002              		.align	2
 1003              		.code	16
 1004              		.thumb_func
 1005              		.type	hydro_x25519_canon, %function
 1006              	hydro_x25519_canon:
 1007              	.LFB70:
 194:libhydrogen\impl/x25519.h **** 
 195:libhydrogen\impl/x25519.h **** static int
 196:libhydrogen\impl/x25519.h **** hydro_x25519_canon(hydro_x25519_fe x)
 197:libhydrogen\impl/x25519.h **** {
 1008              		.loc 5 197 0
 1009              		.cfi_startproc
 1010              		@ args = 0, pretend = 0, frame = 16
 1011              		@ frame_needed = 0, uses_anonymous_args = 0
 1012              	.LVL118:
 1013 0000 F0B5     		push	{r4, r5, r6, r7, lr}
 1014              		.cfi_def_cfa_offset 20
 1015              		.cfi_offset 4, -20
 1016              		.cfi_offset 5, -16
 1017              		.cfi_offset 6, -12
 1018              		.cfi_offset 7, -8
 1019              		.cfi_offset 14, -4
 1020 0002 5F46     		mov	r7, fp
 1021 0004 5646     		mov	r6, r10
 1022 0006 4D46     		mov	r5, r9
 1023 0008 4446     		mov	r4, r8
 1024 000a F0B4     		push	{r4, r5, r6, r7}
 1025              		.cfi_def_cfa_offset 36
 1026              		.cfi_offset 8, -36
ARM GAS  C:\Users\CCPOW_~1\AppData\Local\Temp\cccTFFy7.s 			page 31


 1027              		.cfi_offset 9, -32
 1028              		.cfi_offset 10, -28
 1029              		.cfi_offset 11, -24
 1030 000c 85B0     		sub	sp, sp, #20
 1031              		.cfi_def_cfa_offset 56
 1032 000e 8046     		mov	r8, r0
 1033              	.LVL119:
 198:libhydrogen\impl/x25519.h ****     hydro_x25519_sdlimb_t carry;
 199:libhydrogen\impl/x25519.h ****     hydro_x25519_limb_t   carry0 = 19;
 1034              		.loc 5 199 0
 1035 0010 1321     		movs	r1, #19
 1036 0012 0191     		str	r1, [sp, #4]
 200:libhydrogen\impl/x25519.h ****     hydro_x25519_limb_t   res;
 201:libhydrogen\impl/x25519.h ****     int                   i;
 202:libhydrogen\impl/x25519.h **** 
 203:libhydrogen\impl/x25519.h ****     for (i = 0; i < hydro_x25519_NLIMBS; i++) {
 1037              		.loc 5 203 0
 1038 0014 0021     		movs	r1, #0
 1039 0016 8946     		mov	r9, r1
 1040 0018 18E0     		b	.L40
 1041              	.LVL120:
 1042              	.L41:
 204:libhydrogen\impl/x25519.h ****         x[i] = hydro_x25519_adc0(&carry0, x[i]);
 1043              		.loc 5 204 0 discriminator 3
 1044 001a 4946     		mov	r1, r9
 1045              	.LVL121:
 1046 001c 8900     		lsls	r1, r1, #2
 1047 001e 4144     		add	r1, r1, r8
 1048 0020 8C46     		mov	ip, r1
 1049              	.LVL122:
 1050              	.LBB218:
 1051              	.LBB219:
  73:libhydrogen\impl/x25519.h **** 
 1052              		.loc 5 73 0 discriminator 3
 1053 0022 019E     		ldr	r6, [sp, #4]
 1054 0024 0027     		movs	r7, #0
 1055 0026 0A68     		ldr	r2, [r1]
 1056 0028 0023     		movs	r3, #0
 1057 002a 3000     		movs	r0, r6
 1058 002c 3900     		movs	r1, r7
 1059              	.LVL123:
 1060 002e 8018     		adds	r0, r0, r2
 1061 0030 5941     		adcs	r1, r1, r3
 1062 0032 0290     		str	r0, [sp, #8]
 1063 0034 0391     		str	r1, [sp, #12]
 1064              	.LVL124:
 1065              	.LBE219:
 1066              	.LBE218:
 1067              		.loc 5 204 0 discriminator 3
 1068 0036 B346     		mov	fp, r6
 1069 0038 9246     		mov	r10, r2
 1070 003a D344     		add	fp, fp, r10
 1071 003c 5846     		mov	r0, fp
 1072 003e 6146     		mov	r1, ip
 1073 0040 0860     		str	r0, [r1]
 203:libhydrogen\impl/x25519.h ****         x[i] = hydro_x25519_adc0(&carry0, x[i]);
 1074              		.loc 5 203 0 discriminator 3
ARM GAS  C:\Users\CCPOW_~1\AppData\Local\Temp\cccTFFy7.s 			page 32


 1075 0042 0121     		movs	r1, #1
 1076 0044 8C46     		mov	ip, r1
 1077 0046 E144     		add	r9, r9, ip
 1078              	.LVL125:
 1079              	.LBB221:
 1080              	.LBB220:
  75:libhydrogen\impl/x25519.h ****     return (hydro_x25519_limb_t) total;
 1081              		.loc 5 75 0 discriminator 3
 1082 0048 0399     		ldr	r1, [sp, #12]
 1083 004a 0191     		str	r1, [sp, #4]
 1084              	.LVL126:
 1085              	.L40:
 1086              	.LBE220:
 1087              	.LBE221:
 203:libhydrogen\impl/x25519.h ****         x[i] = hydro_x25519_adc0(&carry0, x[i]);
 1088              		.loc 5 203 0 discriminator 1
 1089 004c 4946     		mov	r1, r9
 1090 004e 0729     		cmp	r1, #7
 1091 0050 E3DD     		ble	.L41
 205:libhydrogen\impl/x25519.h ****     }
 206:libhydrogen\impl/x25519.h ****     hydro_x25519_propagate(x, carry0);
 1092              		.loc 5 206 0
 1093 0052 0199     		ldr	r1, [sp, #4]
 1094 0054 4046     		mov	r0, r8
 1095 0056 FFF7FEFF 		bl	hydro_x25519_propagate
 1096              	.LVL127:
 207:libhydrogen\impl/x25519.h ****     carry = -19;
 208:libhydrogen\impl/x25519.h ****     res   = 0;
 209:libhydrogen\impl/x25519.h ****     for (i = 0; i < hydro_x25519_NLIMBS; i++) {
 1097              		.loc 5 209 0
 1098 005a 0027     		movs	r7, #0
 208:libhydrogen\impl/x25519.h ****     for (i = 0; i < hydro_x25519_NLIMBS; i++) {
 1099              		.loc 5 208 0
 1100 005c 0023     		movs	r3, #0
 1101 005e 9C46     		mov	ip, r3
 207:libhydrogen\impl/x25519.h ****     carry = -19;
 1102              		.loc 5 207 0
 1103 0060 1320     		movs	r0, #19
 1104 0062 4042     		rsbs	r0, r0, #0
 1105 0064 C117     		asrs	r1, r0, #31
 1106              		.loc 5 209 0
 1107 0066 0EE0     		b	.L42
 1108              	.LVL128:
 1109              	.L43:
 210:libhydrogen\impl/x25519.h ****         res |= x[i] = carry += x[i];
 1110              		.loc 5 210 0 discriminator 3
 1111 0068 BE00     		lsls	r6, r7, #2
 1112 006a 4644     		add	r6, r6, r8
 1113 006c 3468     		ldr	r4, [r6]
 1114 006e 0025     		movs	r5, #0
 1115 0070 2200     		movs	r2, r4
 1116 0072 2B00     		movs	r3, r5
 1117 0074 1218     		adds	r2, r2, r0
 1118 0076 4B41     		adcs	r3, r3, r1
 1119              	.LVL129:
 1120 0078 3260     		str	r2, [r6]
 1121 007a 6646     		mov	r6, ip
ARM GAS  C:\Users\CCPOW_~1\AppData\Local\Temp\cccTFFy7.s 			page 33


 1122 007c 1643     		orrs	r6, r2
 1123 007e B446     		mov	ip, r6
 1124              	.LVL130:
 211:libhydrogen\impl/x25519.h ****         carry >>= hydro_x25519_WBITS;
 1125              		.loc 5 211 0 discriminator 3
 1126 0080 1800     		movs	r0, r3
 1127 0082 D917     		asrs	r1, r3, #31
 1128              	.LVL131:
 209:libhydrogen\impl/x25519.h ****         res |= x[i] = carry += x[i];
 1129              		.loc 5 209 0 discriminator 3
 1130 0084 0137     		adds	r7, r7, #1
 1131              	.LVL132:
 1132              	.L42:
 209:libhydrogen\impl/x25519.h ****         res |= x[i] = carry += x[i];
 1133              		.loc 5 209 0 is_stmt 0 discriminator 1
 1134 0086 072F     		cmp	r7, #7
 1135 0088 EEDD     		ble	.L43
 212:libhydrogen\impl/x25519.h ****     }
 213:libhydrogen\impl/x25519.h ****     return ((hydro_x25519_dlimb_t) res - 1) >> hydro_x25519_WBITS;
 1136              		.loc 5 213 0 is_stmt 1
 1137 008a 6046     		mov	r0, ip
 1138              	.LVL133:
 1139 008c 0021     		movs	r1, #0
 1140 008e 0122     		movs	r2, #1
 1141 0090 5242     		rsbs	r2, r2, #0
 1142 0092 D317     		asrs	r3, r2, #31
 1143 0094 1218     		adds	r2, r2, r0
 1144 0096 4B41     		adcs	r3, r3, r1
 1145              	.LVL134:
 214:libhydrogen\impl/x25519.h **** }
 1146              		.loc 5 214 0
 1147 0098 1800     		movs	r0, r3
 1148 009a 05B0     		add	sp, sp, #20
 1149              		@ sp needed
 1150              	.LVL135:
 1151              	.LVL136:
 1152 009c 3CBC     		pop	{r2, r3, r4, r5}
 1153 009e 9046     		mov	r8, r2
 1154 00a0 9946     		mov	r9, r3
 1155 00a2 A246     		mov	r10, r4
 1156 00a4 AB46     		mov	fp, r5
 1157 00a6 F0BD     		pop	{r4, r5, r6, r7, pc}
 1158              		.cfi_endproc
 1159              	.LFE70:
 1160              		.size	hydro_x25519_canon, .-hydro_x25519_canon
 1161              		.section	.text.hydro_x25519_ladder_part1,"ax",%progbits
 1162              		.align	2
 1163              		.code	16
 1164              		.thumb_func
 1165              		.type	hydro_x25519_ladder_part1, %function
 1166              	hydro_x25519_ladder_part1:
 1167              	.LFB71:
 215:libhydrogen\impl/x25519.h **** 
 216:libhydrogen\impl/x25519.h **** static void
 217:libhydrogen\impl/x25519.h **** hydro_x25519_ladder_part1(hydro_x25519_fe xs[5])
 218:libhydrogen\impl/x25519.h **** {
 1168              		.loc 5 218 0
ARM GAS  C:\Users\CCPOW_~1\AppData\Local\Temp\cccTFFy7.s 			page 34


 1169              		.cfi_startproc
 1170              		@ args = 0, pretend = 0, frame = 8
 1171              		@ frame_needed = 0, uses_anonymous_args = 0
 1172              	.LVL137:
 1173 0000 F0B5     		push	{r4, r5, r6, r7, lr}
 1174              		.cfi_def_cfa_offset 20
 1175              		.cfi_offset 4, -20
 1176              		.cfi_offset 5, -16
 1177              		.cfi_offset 6, -12
 1178              		.cfi_offset 7, -8
 1179              		.cfi_offset 14, -4
 1180 0002 83B0     		sub	sp, sp, #12
 1181              		.cfi_def_cfa_offset 32
 1182 0004 0400     		movs	r4, r0
 1183              	.LVL138:
 219:libhydrogen\impl/x25519.h ****     hydro_x25519_limb_t *x2 = xs[0], *z2 = xs[1], *x3 = xs[2], *z3 = xs[3], *t1 = xs[4];
 1184              		.loc 5 219 0
 1185 0006 0500     		movs	r5, r0
 1186 0008 2035     		adds	r5, r5, #32
 1187              	.LVL139:
 1188 000a 4023     		movs	r3, #64
 1189 000c 9C46     		mov	ip, r3
 1190 000e 8444     		add	ip, ip, r0
 1191 0010 6346     		mov	r3, ip
 1192 0012 0193     		str	r3, [sp, #4]
 1193              	.LVL140:
 1194 0014 0600     		movs	r6, r0
 1195 0016 6036     		adds	r6, r6, #96
 1196              	.LVL141:
 1197 0018 0700     		movs	r7, r0
 1198 001a 8037     		adds	r7, r7, #128
 1199              	.LVL142:
 220:libhydrogen\impl/x25519.h **** 
 221:libhydrogen\impl/x25519.h ****     hydro_x25519_add(t1, x2, z2);              // t1 = A
 1200              		.loc 5 221 0
 1201 001c 2A00     		movs	r2, r5
 1202 001e 0100     		movs	r1, r0
 1203 0020 3800     		movs	r0, r7
 1204              	.LVL143:
 1205 0022 FFF7FEFF 		bl	hydro_x25519_add
 1206              	.LVL144:
 222:libhydrogen\impl/x25519.h ****     hydro_x25519_sub(z2, x2, z2);              // z2 = B
 1207              		.loc 5 222 0
 1208 0026 2A00     		movs	r2, r5
 1209 0028 2100     		movs	r1, r4
 1210 002a 2800     		movs	r0, r5
 1211 002c FFF7FEFF 		bl	hydro_x25519_sub
 1212              	.LVL145:
 223:libhydrogen\impl/x25519.h ****     hydro_x25519_add(x2, x3, z3);              // x2 = C
 1213              		.loc 5 223 0
 1214 0030 3200     		movs	r2, r6
 1215 0032 0199     		ldr	r1, [sp, #4]
 1216 0034 2000     		movs	r0, r4
 1217 0036 FFF7FEFF 		bl	hydro_x25519_add
 1218              	.LVL146:
 224:libhydrogen\impl/x25519.h ****     hydro_x25519_sub(z3, x3, z3);              // z3 = D
 1219              		.loc 5 224 0
ARM GAS  C:\Users\CCPOW_~1\AppData\Local\Temp\cccTFFy7.s 			page 35


 1220 003a 3200     		movs	r2, r6
 1221 003c 0199     		ldr	r1, [sp, #4]
 1222 003e 3000     		movs	r0, r6
 1223 0040 FFF7FEFF 		bl	hydro_x25519_sub
 1224              	.LVL147:
 225:libhydrogen\impl/x25519.h ****     hydro_x25519_mul1(z3, t1);                 // z3 = DA
 1225              		.loc 5 225 0
 1226 0044 3900     		movs	r1, r7
 1227 0046 3000     		movs	r0, r6
 1228 0048 FFF7FEFF 		bl	hydro_x25519_mul1
 1229              	.LVL148:
 226:libhydrogen\impl/x25519.h ****     hydro_x25519_mul1(x2, z2);                 // x3 = BC
 1230              		.loc 5 226 0
 1231 004c 2900     		movs	r1, r5
 1232 004e 2000     		movs	r0, r4
 1233 0050 FFF7FEFF 		bl	hydro_x25519_mul1
 1234              	.LVL149:
 227:libhydrogen\impl/x25519.h ****     hydro_x25519_add(x3, z3, x2);              // x3 = DA+CB
 1235              		.loc 5 227 0
 1236 0054 2200     		movs	r2, r4
 1237 0056 3100     		movs	r1, r6
 1238 0058 0198     		ldr	r0, [sp, #4]
 1239 005a FFF7FEFF 		bl	hydro_x25519_add
 1240              	.LVL150:
 228:libhydrogen\impl/x25519.h ****     hydro_x25519_sub(z3, z3, x2);              // z3 = DA-CB
 1241              		.loc 5 228 0
 1242 005e 2200     		movs	r2, r4
 1243 0060 3100     		movs	r1, r6
 1244 0062 3000     		movs	r0, r6
 1245 0064 FFF7FEFF 		bl	hydro_x25519_sub
 1246              	.LVL151:
 229:libhydrogen\impl/x25519.h ****     hydro_x25519_sqr1(t1);                     // t1 = AA
 1247              		.loc 5 229 0
 1248 0068 3800     		movs	r0, r7
 1249 006a FFF7FEFF 		bl	hydro_x25519_sqr1
 1250              	.LVL152:
 230:libhydrogen\impl/x25519.h ****     hydro_x25519_sqr1(z2);                     // z2 = BB
 1251              		.loc 5 230 0
 1252 006e 2800     		movs	r0, r5
 1253 0070 FFF7FEFF 		bl	hydro_x25519_sqr1
 1254              	.LVL153:
 231:libhydrogen\impl/x25519.h ****     hydro_x25519_sub(x2, t1, z2);              // x2 = E = AA-BB
 1255              		.loc 5 231 0
 1256 0074 2A00     		movs	r2, r5
 1257 0076 3900     		movs	r1, r7
 1258 0078 2000     		movs	r0, r4
 1259 007a FFF7FEFF 		bl	hydro_x25519_sub
 1260              	.LVL154:
 232:libhydrogen\impl/x25519.h ****     hydro_x25519_mul(z2, x2, hydro_x25519_a24, // z2 = E*a24
 1261              		.loc 5 232 0
 1262 007e 0123     		movs	r3, #1
 1263 0080 054A     		ldr	r2, .L45
 1264 0082 2100     		movs	r1, r4
 1265 0084 2800     		movs	r0, r5
 1266 0086 FFF7FEFF 		bl	hydro_x25519_mul
 1267              	.LVL155:
 233:libhydrogen\impl/x25519.h ****                      sizeof(hydro_x25519_a24) / sizeof(hydro_x25519_a24[0]));
ARM GAS  C:\Users\CCPOW_~1\AppData\Local\Temp\cccTFFy7.s 			page 36


 234:libhydrogen\impl/x25519.h ****     hydro_x25519_add(z2, z2, t1); // z2 = E*a24 + AA
 1268              		.loc 5 234 0
 1269 008a 3A00     		movs	r2, r7
 1270 008c 2900     		movs	r1, r5
 1271 008e 2800     		movs	r0, r5
 1272 0090 FFF7FEFF 		bl	hydro_x25519_add
 1273              	.LVL156:
 235:libhydrogen\impl/x25519.h **** }
 1274              		.loc 5 235 0
 1275 0094 03B0     		add	sp, sp, #12
 1276              		@ sp needed
 1277              	.LVL157:
 1278              	.LVL158:
 1279              	.LVL159:
 1280              	.LVL160:
 1281 0096 F0BD     		pop	{r4, r5, r6, r7, pc}
 1282              	.L46:
 1283              		.align	2
 1284              	.L45:
 1285 0098 00000000 		.word	.LANCHOR0
 1286              		.cfi_endproc
 1287              	.LFE71:
 1288              		.size	hydro_x25519_ladder_part1, .-hydro_x25519_ladder_part1
 1289              		.section	.text.hydro_x25519_ladder_part2,"ax",%progbits
 1290              		.align	2
 1291              		.code	16
 1292              		.thumb_func
 1293              		.type	hydro_x25519_ladder_part2, %function
 1294              	hydro_x25519_ladder_part2:
 1295              	.LFB72:
 236:libhydrogen\impl/x25519.h **** 
 237:libhydrogen\impl/x25519.h **** static void
 238:libhydrogen\impl/x25519.h **** hydro_x25519_ladder_part2(hydro_x25519_fe xs[5], const hydro_x25519_fe x1)
 239:libhydrogen\impl/x25519.h **** {
 1296              		.loc 5 239 0
 1297              		.cfi_startproc
 1298              		@ args = 0, pretend = 0, frame = 8
 1299              		@ frame_needed = 0, uses_anonymous_args = 0
 1300              	.LVL161:
 1301 0000 F0B5     		push	{r4, r5, r6, r7, lr}
 1302              		.cfi_def_cfa_offset 20
 1303              		.cfi_offset 4, -20
 1304              		.cfi_offset 5, -16
 1305              		.cfi_offset 6, -12
 1306              		.cfi_offset 7, -8
 1307              		.cfi_offset 14, -4
 1308 0002 4F46     		mov	r7, r9
 1309 0004 80B4     		push	{r7}
 1310              		.cfi_def_cfa_offset 24
 1311              		.cfi_offset 9, -24
 1312 0006 82B0     		sub	sp, sp, #8
 1313              		.cfi_def_cfa_offset 32
 1314 0008 0400     		movs	r4, r0
 1315 000a 0191     		str	r1, [sp, #4]
 1316              	.LVL162:
 240:libhydrogen\impl/x25519.h ****     hydro_x25519_limb_t *x2 = xs[0], *z2 = xs[1], *x3 = xs[2], *z3 = xs[3], *t1 = xs[4];
 1317              		.loc 5 240 0
ARM GAS  C:\Users\CCPOW_~1\AppData\Local\Temp\cccTFFy7.s 			page 37


 1318 000c 0700     		movs	r7, r0
 1319 000e 2037     		adds	r7, r7, #32
 1320              	.LVL163:
 1321 0010 4023     		movs	r3, #64
 1322 0012 9946     		mov	r9, r3
 1323 0014 8144     		add	r9, r9, r0
 1324              	.LVL164:
 1325 0016 0600     		movs	r6, r0
 1326 0018 6036     		adds	r6, r6, #96
 1327              	.LVL165:
 1328 001a 0500     		movs	r5, r0
 1329 001c 8035     		adds	r5, r5, #128
 1330              	.LVL166:
 241:libhydrogen\impl/x25519.h **** 
 242:libhydrogen\impl/x25519.h ****     hydro_x25519_sqr1(z3);        // z3 = (DA-CB)^2
 1331              		.loc 5 242 0
 1332 001e 3000     		movs	r0, r6
 1333              	.LVL167:
 1334 0020 FFF7FEFF 		bl	hydro_x25519_sqr1
 1335              	.LVL168:
 243:libhydrogen\impl/x25519.h ****     hydro_x25519_mul1(z3, x1);    // z3 = x1 * (DA-CB)^2
 1336              		.loc 5 243 0
 1337 0024 0199     		ldr	r1, [sp, #4]
 1338 0026 3000     		movs	r0, r6
 1339 0028 FFF7FEFF 		bl	hydro_x25519_mul1
 1340              	.LVL169:
 244:libhydrogen\impl/x25519.h ****     hydro_x25519_sqr1(x3);        // x3 = (DA+CB)^2
 1341              		.loc 5 244 0
 1342 002c 4846     		mov	r0, r9
 1343 002e FFF7FEFF 		bl	hydro_x25519_sqr1
 1344              	.LVL170:
 245:libhydrogen\impl/x25519.h ****     hydro_x25519_mul1(z2, x2);    // z2 = AA*(E*a24+AA)
 1345              		.loc 5 245 0
 1346 0032 2100     		movs	r1, r4
 1347 0034 3800     		movs	r0, r7
 1348 0036 FFF7FEFF 		bl	hydro_x25519_mul1
 1349              	.LVL171:
 246:libhydrogen\impl/x25519.h ****     hydro_x25519_sub(x2, t1, x2); // x2 = BB again
 1350              		.loc 5 246 0
 1351 003a 2200     		movs	r2, r4
 1352 003c 2900     		movs	r1, r5
 1353 003e 2000     		movs	r0, r4
 1354 0040 FFF7FEFF 		bl	hydro_x25519_sub
 1355              	.LVL172:
 247:libhydrogen\impl/x25519.h ****     hydro_x25519_mul1(x2, t1);    // x2 = AA*BB
 1356              		.loc 5 247 0
 1357 0044 2900     		movs	r1, r5
 1358 0046 2000     		movs	r0, r4
 1359 0048 FFF7FEFF 		bl	hydro_x25519_mul1
 1360              	.LVL173:
 248:libhydrogen\impl/x25519.h **** }
 1361              		.loc 5 248 0
 1362 004c 02B0     		add	sp, sp, #8
 1363              		@ sp needed
 1364              	.LVL174:
 1365              	.LVL175:
 1366              	.LVL176:
ARM GAS  C:\Users\CCPOW_~1\AppData\Local\Temp\cccTFFy7.s 			page 38


 1367              	.LVL177:
 1368              	.LVL178:
 1369 004e 04BC     		pop	{r2}
 1370 0050 9146     		mov	r9, r2
 1371 0052 F0BD     		pop	{r4, r5, r6, r7, pc}
 1372              		.cfi_endproc
 1373              	.LFE72:
 1374              		.size	hydro_x25519_ladder_part2, .-hydro_x25519_ladder_part2
 1375              		.section	.text.hydro_x25519_sc_montmul,"ax",%progbits
 1376              		.align	2
 1377              		.code	16
 1378              		.thumb_func
 1379              		.type	hydro_x25519_sc_montmul, %function
 1380              	hydro_x25519_sc_montmul:
 1381              	.LFB77:
 249:libhydrogen\impl/x25519.h **** 
 250:libhydrogen\impl/x25519.h **** static void
 251:libhydrogen\impl/x25519.h **** hydro_x25519_core(hydro_x25519_fe xs[5], const uint8_t scalar[hydro_x25519_BYTES],
 252:libhydrogen\impl/x25519.h ****                   const uint8_t *x1, bool clamp)
 253:libhydrogen\impl/x25519.h **** {
 254:libhydrogen\impl/x25519.h ****     hydro_x25519_limb_t  swap;
 255:libhydrogen\impl/x25519.h ****     hydro_x25519_limb_t *x2 = xs[0], *x3 = xs[2], *z3 = xs[3];
 256:libhydrogen\impl/x25519.h ****     hydro_x25519_fe      x1i;
 257:libhydrogen\impl/x25519.h ****     int                  i;
 258:libhydrogen\impl/x25519.h **** 
 259:libhydrogen\impl/x25519.h ****     hydro_x25519_swapin(x1i, x1);
 260:libhydrogen\impl/x25519.h ****     x1   = (const uint8_t *) x1i;
 261:libhydrogen\impl/x25519.h ****     swap = 0;
 262:libhydrogen\impl/x25519.h ****     mem_zero(xs, 4 * sizeof(hydro_x25519_fe));
 263:libhydrogen\impl/x25519.h ****     x2[0] = z3[0] = 1;
 264:libhydrogen\impl/x25519.h ****     memcpy(x3, x1, sizeof(hydro_x25519_fe));
 265:libhydrogen\impl/x25519.h ****     for (i = 255; i >= 0; i--) {
 266:libhydrogen\impl/x25519.h ****         uint8_t             bytei = scalar[i / 8];
 267:libhydrogen\impl/x25519.h ****         hydro_x25519_limb_t doswap;
 268:libhydrogen\impl/x25519.h ****         hydro_x25519_fe     x1_dup;
 269:libhydrogen\impl/x25519.h **** 
 270:libhydrogen\impl/x25519.h ****         if (clamp) {
 271:libhydrogen\impl/x25519.h ****             if (i / 8 == 0) {
 272:libhydrogen\impl/x25519.h ****                 bytei &= ~7;
 273:libhydrogen\impl/x25519.h ****             } else if (i / 8 == hydro_x25519_BYTES - 1) {
 274:libhydrogen\impl/x25519.h ****                 bytei &= 0x7F;
 275:libhydrogen\impl/x25519.h ****                 bytei |= 0x40;
 276:libhydrogen\impl/x25519.h ****             }
 277:libhydrogen\impl/x25519.h ****         }
 278:libhydrogen\impl/x25519.h ****         doswap = 1U + ~(hydro_x25519_limb_t)((bytei >> (i % 8)) & 1);
 279:libhydrogen\impl/x25519.h ****         hydro_x25519_condswap(x2, x3, swap ^ doswap);
 280:libhydrogen\impl/x25519.h ****         swap = doswap;
 281:libhydrogen\impl/x25519.h ****         hydro_x25519_ladder_part1(xs);
 282:libhydrogen\impl/x25519.h ****         memcpy(x1_dup, x1, sizeof x1_dup);
 283:libhydrogen\impl/x25519.h ****         hydro_x25519_ladder_part2(xs, x1_dup);
 284:libhydrogen\impl/x25519.h ****     }
 285:libhydrogen\impl/x25519.h ****     hydro_x25519_condswap(x2, x3, swap);
 286:libhydrogen\impl/x25519.h **** }
 287:libhydrogen\impl/x25519.h **** 
 288:libhydrogen\impl/x25519.h **** static int
 289:libhydrogen\impl/x25519.h **** hydro_x25519_scalarmult(uint8_t out[hydro_x25519_BYTES], const uint8_t scalar[hydro_x25519_BYTES],
 290:libhydrogen\impl/x25519.h ****                         const uint8_t x1[hydro_x25519_BYTES], bool clamp)
ARM GAS  C:\Users\CCPOW_~1\AppData\Local\Temp\cccTFFy7.s 			page 39


 291:libhydrogen\impl/x25519.h **** {
 292:libhydrogen\impl/x25519.h ****     hydro_x25519_fe      xs[5];
 293:libhydrogen\impl/x25519.h ****     hydro_x25519_limb_t *x2, *z2, *z3;
 294:libhydrogen\impl/x25519.h ****     hydro_x25519_limb_t *prev;
 295:libhydrogen\impl/x25519.h ****     int                  i;
 296:libhydrogen\impl/x25519.h ****     int                  ret;
 297:libhydrogen\impl/x25519.h **** 
 298:libhydrogen\impl/x25519.h ****     hydro_x25519_core(xs, scalar, x1, clamp);
 299:libhydrogen\impl/x25519.h **** 
 300:libhydrogen\impl/x25519.h ****     /* Precomputed inversion chain */
 301:libhydrogen\impl/x25519.h ****     x2   = xs[0];
 302:libhydrogen\impl/x25519.h ****     z2   = xs[1];
 303:libhydrogen\impl/x25519.h ****     z3   = xs[3];
 304:libhydrogen\impl/x25519.h ****     prev = z2;
 305:libhydrogen\impl/x25519.h **** 
 306:libhydrogen\impl/x25519.h ****     /* Raise to the p-2 = 0x7f..ffeb */
 307:libhydrogen\impl/x25519.h ****     for (i = 253; i >= 0; i--) {
 308:libhydrogen\impl/x25519.h ****         hydro_x25519_sqr(z3, prev);
 309:libhydrogen\impl/x25519.h ****         prev = z3;
 310:libhydrogen\impl/x25519.h ****         if (i >= 8 || (0xeb >> i & 1)) {
 311:libhydrogen\impl/x25519.h ****             hydro_x25519_mul1(z3, z2);
 312:libhydrogen\impl/x25519.h ****         }
 313:libhydrogen\impl/x25519.h ****     }
 314:libhydrogen\impl/x25519.h **** 
 315:libhydrogen\impl/x25519.h ****     /* Here prev = z3 */
 316:libhydrogen\impl/x25519.h ****     /* x2 /= z2 */
 317:libhydrogen\impl/x25519.h ****     hydro_x25519_mul1(x2, z3);
 318:libhydrogen\impl/x25519.h ****     ret = hydro_x25519_canon(x2);
 319:libhydrogen\impl/x25519.h ****     hydro_x25519_swapout(out, x2);
 320:libhydrogen\impl/x25519.h **** 
 321:libhydrogen\impl/x25519.h ****     if (clamp == 0) {
 322:libhydrogen\impl/x25519.h ****         return 0;
 323:libhydrogen\impl/x25519.h ****     }
 324:libhydrogen\impl/x25519.h ****     return ret;
 325:libhydrogen\impl/x25519.h **** }
 326:libhydrogen\impl/x25519.h **** 
 327:libhydrogen\impl/x25519.h **** static inline int
 328:libhydrogen\impl/x25519.h **** hydro_x25519_scalarmult_base(uint8_t       pk[hydro_x25519_PUBLICKEYBYTES],
 329:libhydrogen\impl/x25519.h ****                              const uint8_t sk[hydro_x25519_SECRETKEYBYTES])
 330:libhydrogen\impl/x25519.h **** {
 331:libhydrogen\impl/x25519.h ****     return hydro_x25519_scalarmult(pk, sk, hydro_x25519_BASE_POINT, 1);
 332:libhydrogen\impl/x25519.h **** }
 333:libhydrogen\impl/x25519.h **** 
 334:libhydrogen\impl/x25519.h **** static inline void
 335:libhydrogen\impl/x25519.h **** hydro_x25519_scalarmult_base_uniform(uint8_t       pk[hydro_x25519_PUBLICKEYBYTES],
 336:libhydrogen\impl/x25519.h ****                                      const uint8_t sk[hydro_x25519_SECRETKEYBYTES])
 337:libhydrogen\impl/x25519.h **** {
 338:libhydrogen\impl/x25519.h ****     if (hydro_x25519_scalarmult(pk, sk, hydro_x25519_BASE_POINT, 0) != 0) {
 339:libhydrogen\impl/x25519.h ****         abort();
 340:libhydrogen\impl/x25519.h ****     }
 341:libhydrogen\impl/x25519.h **** }
 342:libhydrogen\impl/x25519.h **** 
 343:libhydrogen\impl/x25519.h **** static void
 344:libhydrogen\impl/x25519.h **** hydro_x25519_sc_montmul(hydro_x25519_scalar_t out, const hydro_x25519_scalar_t a,
 345:libhydrogen\impl/x25519.h ****                         const hydro_x25519_scalar_t b)
 346:libhydrogen\impl/x25519.h **** {
 1382              		.loc 5 346 0
ARM GAS  C:\Users\CCPOW_~1\AppData\Local\Temp\cccTFFy7.s 			page 40


 1383              		.cfi_startproc
 1384              		@ args = 0, pretend = 0, frame = 112
 1385              		@ frame_needed = 0, uses_anonymous_args = 0
 1386              	.LVL179:
 1387 0000 F0B5     		push	{r4, r5, r6, r7, lr}
 1388              		.cfi_def_cfa_offset 20
 1389              		.cfi_offset 4, -20
 1390              		.cfi_offset 5, -16
 1391              		.cfi_offset 6, -12
 1392              		.cfi_offset 7, -8
 1393              		.cfi_offset 14, -4
 1394 0002 5F46     		mov	r7, fp
 1395 0004 5646     		mov	r6, r10
 1396 0006 4D46     		mov	r5, r9
 1397 0008 4446     		mov	r4, r8
 1398 000a F0B4     		push	{r4, r5, r6, r7}
 1399              		.cfi_def_cfa_offset 36
 1400              		.cfi_offset 8, -36
 1401              		.cfi_offset 9, -32
 1402              		.cfi_offset 10, -28
 1403              		.cfi_offset 11, -24
 1404 000c 9DB0     		sub	sp, sp, #116
 1405              		.cfi_def_cfa_offset 152
 1406 000e 8246     		mov	r10, r0
 1407 0010 8B46     		mov	fp, r1
 1408 0012 9146     		mov	r9, r2
 1409              	.LVL180:
 347:libhydrogen\impl/x25519.h ****     hydro_x25519_limb_t hic = 0;
 1410              		.loc 5 347 0
 1411 0014 0023     		movs	r3, #0
 1412 0016 1593     		str	r3, [sp, #84]
 348:libhydrogen\impl/x25519.h ****     int                 i, j;
 349:libhydrogen\impl/x25519.h **** 
 350:libhydrogen\impl/x25519.h ****     for (i = 0; i < hydro_x25519_NLIMBS; i++) {
 1413              		.loc 5 350 0
 1414 0018 9846     		mov	r8, r3
 1415 001a 6BE0     		b	.L49
 1416              	.LVL181:
 1417              	.L54:
 1418              	.LBB222:
 351:libhydrogen\impl/x25519.h ****         hydro_x25519_limb_t carry = 0, carry2 = 0, mand = a[i],
 1419              		.loc 5 351 0
 1420 001c 4346     		mov	r3, r8
 1421              	.LVL182:
 1422 001e 9B00     		lsls	r3, r3, #2
 1423 0020 5A46     		mov	r2, fp
 1424 0022 D358     		ldr	r3, [r2, r3]
 1425 0024 1493     		str	r3, [sp, #80]
 1426              	.LVL183:
 1427 0026 0023     		movs	r3, #0
 1428              	.LVL184:
 1429 0028 0A93     		str	r3, [sp, #40]
 1430 002a 0993     		str	r3, [sp, #36]
 352:libhydrogen\impl/x25519.h ****                             mand2 = hydro_x25519_MONTGOMERY_FACTOR;
 1431              		.loc 5 352 0
 1432 002c 5F4B     		ldr	r3, .L59
 1433 002e 0B93     		str	r3, [sp, #44]
ARM GAS  C:\Users\CCPOW_~1\AppData\Local\Temp\cccTFFy7.s 			page 41


 353:libhydrogen\impl/x25519.h **** 
 354:libhydrogen\impl/x25519.h ****         for (j = 0; j < hydro_x25519_NLIMBS; j++) {
 1434              		.loc 5 354 0
 1435 0030 0024     		movs	r4, #0
 1436 0032 41E0     		b	.L50
 1437              	.LVL185:
 1438              	.L53:
 1439              	.LBB223:
 355:libhydrogen\impl/x25519.h ****             hydro_x25519_limb_t acc = out[j];
 1440              		.loc 5 355 0
 1441 0034 2500     		movs	r5, r4
 1442 0036 A300     		lsls	r3, r4, #2
 1443 0038 5246     		mov	r2, r10
 1444 003a D658     		ldr	r6, [r2, r3]
 1445              	.LVL186:
 356:libhydrogen\impl/x25519.h **** 
 357:libhydrogen\impl/x25519.h ****             acc = hydro_x25519_umaal(&carry, acc, mand, b[j]);
 1446              		.loc 5 357 0
 1447 003c 4A46     		mov	r2, r9
 1448 003e D058     		ldr	r0, [r2, r3]
 1449              	.LVL187:
 1450              	.LBB224:
 1451              	.LBB225:
  55:libhydrogen\impl/x25519.h **** 
 1452              		.loc 5 55 0
 1453 0040 149A     		ldr	r2, [sp, #80]
 1454 0042 0023     		movs	r3, #0
 1455 0044 0021     		movs	r1, #0
 1456 0046 FFF7FEFF 		bl	__aeabi_lmul
 1457              	.LVL188:
 1458 004a 0496     		str	r6, [sp, #16]
 1459 004c 0023     		movs	r3, #0
 1460 004e 0593     		str	r3, [sp, #20]
 1461 0050 049E     		ldr	r6, [sp, #16]
 1462 0052 059F     		ldr	r7, [sp, #20]
 1463              	.LVL189:
 1464 0054 3618     		adds	r6, r6, r0
 1465 0056 4F41     		adcs	r7, r7, r1
 1466 0058 099B     		ldr	r3, [sp, #36]
 1467 005a 0093     		str	r3, [sp]
 1468 005c 0023     		movs	r3, #0
 1469 005e 0193     		str	r3, [sp, #4]
 1470 0060 009A     		ldr	r2, [sp]
 1471 0062 019B     		ldr	r3, [sp, #4]
 1472 0064 B618     		adds	r6, r6, r2
 1473 0066 5F41     		adcs	r7, r7, r3
 1474              	.LVL190:
  57:libhydrogen\impl/x25519.h ****     return (hydro_x25519_limb_t) tmp;
 1475              		.loc 5 57 0
 1476 0068 0997     		str	r7, [sp, #36]
 1477              	.LVL191:
 1478              	.LBE225:
 1479              	.LBE224:
 358:libhydrogen\impl/x25519.h ****             if (j == 0) {
 1480              		.loc 5 358 0
 1481 006a 002C     		cmp	r4, #0
 1482 006c 02D1     		bne	.L51
ARM GAS  C:\Users\CCPOW_~1\AppData\Local\Temp\cccTFFy7.s 			page 42


 1483              	.LVL192:
 359:libhydrogen\impl/x25519.h ****                 mand2 *= acc;
 1484              		.loc 5 359 0
 1485 006e 0B9B     		ldr	r3, [sp, #44]
 1486 0070 7343     		muls	r3, r6
 1487 0072 0B93     		str	r3, [sp, #44]
 1488              	.LVL193:
 1489              	.L51:
 360:libhydrogen\impl/x25519.h ****             }
 361:libhydrogen\impl/x25519.h ****             acc = hydro_x25519_umaal(&carry2, acc, mand2, hydro_x25519_sc_p[j]);
 1490              		.loc 5 361 0
 1491 0074 A300     		lsls	r3, r4, #2
 1492 0076 4E4A     		ldr	r2, .L59+4
 1493 0078 D318     		adds	r3, r2, r3
 1494 007a 5868     		ldr	r0, [r3, #4]
 1495              	.LVL194:
 1496              	.LBB226:
 1497              	.LBB227:
  55:libhydrogen\impl/x25519.h **** 
 1498              		.loc 5 55 0
 1499 007c 0B9A     		ldr	r2, [sp, #44]
 1500 007e 0023     		movs	r3, #0
 1501 0080 0021     		movs	r1, #0
 1502 0082 FFF7FEFF 		bl	__aeabi_lmul
 1503              	.LVL195:
 1504 0086 0696     		str	r6, [sp, #24]
 1505 0088 0023     		movs	r3, #0
 1506 008a 0793     		str	r3, [sp, #28]
 1507 008c 069A     		ldr	r2, [sp, #24]
 1508 008e 079B     		ldr	r3, [sp, #28]
 1509 0090 8018     		adds	r0, r0, r2
 1510 0092 5941     		adcs	r1, r1, r3
 1511 0094 0A9B     		ldr	r3, [sp, #40]
 1512 0096 0293     		str	r3, [sp, #8]
 1513 0098 0023     		movs	r3, #0
 1514 009a 0393     		str	r3, [sp, #12]
 1515 009c 029A     		ldr	r2, [sp, #8]
 1516 009e 039B     		ldr	r3, [sp, #12]
 1517 00a0 8018     		adds	r0, r0, r2
 1518 00a2 5941     		adcs	r1, r1, r3
 1519              	.LVL196:
  57:libhydrogen\impl/x25519.h ****     return (hydro_x25519_limb_t) tmp;
 1520              		.loc 5 57 0
 1521 00a4 0A91     		str	r1, [sp, #40]
 1522              	.LVL197:
 1523              	.LBE227:
 1524              	.LBE226:
 362:libhydrogen\impl/x25519.h ****             if (j > 0) {
 1525              		.loc 5 362 0
 1526 00a6 002C     		cmp	r4, #0
 1527 00a8 05DD     		ble	.L52
 363:libhydrogen\impl/x25519.h ****                 out[j - 1] = acc;
 1528              		.loc 5 363 0
 1529 00aa 424B     		ldr	r3, .L59+8
 1530 00ac 9C46     		mov	ip, r3
 1531 00ae 6544     		add	r5, r5, ip
 1532 00b0 AD00     		lsls	r5, r5, #2
ARM GAS  C:\Users\CCPOW_~1\AppData\Local\Temp\cccTFFy7.s 			page 43


 1533 00b2 5346     		mov	r3, r10
 1534 00b4 5851     		str	r0, [r3, r5]
 1535              	.L52:
 1536              	.LBE223:
 354:libhydrogen\impl/x25519.h ****             hydro_x25519_limb_t acc = out[j];
 1537              		.loc 5 354 0 discriminator 2
 1538 00b6 0134     		adds	r4, r4, #1
 1539              	.LVL198:
 1540              	.L50:
 354:libhydrogen\impl/x25519.h ****             hydro_x25519_limb_t acc = out[j];
 1541              		.loc 5 354 0 is_stmt 0 discriminator 1
 1542 00b8 072C     		cmp	r4, #7
 1543 00ba BBDD     		ble	.L53
 1544              	.LVL199:
 1545              	.LBB228:
 1546              	.LBB229:
  64:libhydrogen\impl/x25519.h **** 
 1547              		.loc 5 64 0 is_stmt 1 discriminator 2
 1548 00bc 159B     		ldr	r3, [sp, #84]
 1549 00be 0E93     		str	r3, [sp, #56]
 1550 00c0 0023     		movs	r3, #0
 1551 00c2 0F93     		str	r3, [sp, #60]
 1552 00c4 099B     		ldr	r3, [sp, #36]
 1553 00c6 1293     		str	r3, [sp, #72]
 1554 00c8 0023     		movs	r3, #0
 1555 00ca 1393     		str	r3, [sp, #76]
 1556 00cc 129A     		ldr	r2, [sp, #72]
 1557 00ce 139B     		ldr	r3, [sp, #76]
 1558 00d0 0E98     		ldr	r0, [sp, #56]
 1559 00d2 0F99     		ldr	r1, [sp, #60]
 1560 00d4 1218     		adds	r2, r2, r0
 1561 00d6 4B41     		adcs	r3, r3, r1
 1562 00d8 0A99     		ldr	r1, [sp, #40]
 1563 00da 1091     		str	r1, [sp, #64]
 1564 00dc 0021     		movs	r1, #0
 1565 00de 1191     		str	r1, [sp, #68]
 1566 00e0 1098     		ldr	r0, [sp, #64]
 1567 00e2 1199     		ldr	r1, [sp, #68]
 1568 00e4 1218     		adds	r2, r2, r0
 1569 00e6 4B41     		adcs	r3, r3, r1
 1570              	.LVL200:
  66:libhydrogen\impl/x25519.h ****     return (hydro_x25519_limb_t) total;
 1571              		.loc 5 66 0 discriminator 2
 1572 00e8 1593     		str	r3, [sp, #84]
 1573              	.LVL201:
 1574              	.LBE229:
 1575              	.LBE228:
 364:libhydrogen\impl/x25519.h ****             }
 365:libhydrogen\impl/x25519.h ****         }
 366:libhydrogen\impl/x25519.h **** 
 367:libhydrogen\impl/x25519.h ****         /* Add two carry registers and high carry */
 368:libhydrogen\impl/x25519.h ****         out[hydro_x25519_NLIMBS - 1] = hydro_x25519_adc(&hic, carry, carry2);
 1576              		.loc 5 368 0 discriminator 2
 1577 00ea 5146     		mov	r1, r10
 1578 00ec CA61     		str	r2, [r1, #28]
 1579              	.LVL202:
 1580              	.LBE222:
ARM GAS  C:\Users\CCPOW_~1\AppData\Local\Temp\cccTFFy7.s 			page 44


 350:libhydrogen\impl/x25519.h ****         hydro_x25519_limb_t carry = 0, carry2 = 0, mand = a[i],
 1581              		.loc 5 350 0 discriminator 2
 1582 00ee 0123     		movs	r3, #1
 1583 00f0 9C46     		mov	ip, r3
 1584 00f2 E044     		add	r8, r8, ip
 1585              	.LVL203:
 1586              	.L49:
 350:libhydrogen\impl/x25519.h ****         hydro_x25519_limb_t carry = 0, carry2 = 0, mand = a[i],
 1587              		.loc 5 350 0 is_stmt 0 discriminator 1
 1588 00f4 4346     		mov	r3, r8
 1589 00f6 072B     		cmp	r3, #7
 1590 00f8 90DD     		ble	.L54
 1591 00fa 0020     		movs	r0, #0
 1592 00fc 0021     		movs	r1, #0
 1593 00fe 0025     		movs	r5, #0
 1594 0100 A846     		mov	r8, r5
 1595              	.LVL204:
 1596 0102 1EE0     		b	.L55
 1597              	.LVL205:
 1598              	.L56:
 369:libhydrogen\impl/x25519.h ****     }
 370:libhydrogen\impl/x25519.h **** 
 371:libhydrogen\impl/x25519.h ****     /* Reduce */
 372:libhydrogen\impl/x25519.h ****     hydro_x25519_sdlimb_t scarry = 0;
 373:libhydrogen\impl/x25519.h ****     for (i = 0; i < hydro_x25519_NLIMBS; i++) {
 374:libhydrogen\impl/x25519.h ****         out[i] = scarry = scarry + out[i] - hydro_x25519_sc_p[i];
 1599              		.loc 5 374 0 is_stmt 1 discriminator 3
 1600 0104 4346     		mov	r3, r8
 1601              	.LVL206:
 1602 0106 9B00     		lsls	r3, r3, #2
 1603 0108 9C46     		mov	ip, r3
 1604 010a D146     		mov	r9, r10
 1605 010c E144     		add	r9, r9, ip
 1606 010e 4B46     		mov	r3, r9
 1607 0110 1E68     		ldr	r6, [r3]
 1608 0112 0027     		movs	r7, #0
 1609 0114 3200     		movs	r2, r6
 1610 0116 3B00     		movs	r3, r7
 1611 0118 1218     		adds	r2, r2, r0
 1612 011a 4B41     		adcs	r3, r3, r1
 1613 011c 244C     		ldr	r4, .L59+4
 1614 011e A346     		mov	fp, r4
 1615 0120 DC44     		add	ip, ip, fp
 1616 0122 6446     		mov	r4, ip
 1617 0124 6468     		ldr	r4, [r4, #4]
 1618 0126 0C94     		str	r4, [sp, #48]
 1619 0128 0024     		movs	r4, #0
 1620 012a 0D94     		str	r4, [sp, #52]
 1621 012c 0C9C     		ldr	r4, [sp, #48]
 1622 012e 0D9D     		ldr	r5, [sp, #52]
 1623 0130 121B     		subs	r2, r2, r4
 1624 0132 AB41     		sbcs	r3, r3, r5
 1625              	.LVL207:
 1626 0134 4C46     		mov	r4, r9
 1627 0136 2260     		str	r2, [r4]
 375:libhydrogen\impl/x25519.h ****         scarry >>= hydro_x25519_WBITS;
 1628              		.loc 5 375 0 discriminator 3
ARM GAS  C:\Users\CCPOW_~1\AppData\Local\Temp\cccTFFy7.s 			page 45


 1629 0138 1800     		movs	r0, r3
 1630 013a D917     		asrs	r1, r3, #31
 1631              	.LVL208:
 373:libhydrogen\impl/x25519.h ****         out[i] = scarry = scarry + out[i] - hydro_x25519_sc_p[i];
 1632              		.loc 5 373 0 discriminator 3
 1633 013c 0123     		movs	r3, #1
 1634 013e 9C46     		mov	ip, r3
 1635 0140 E044     		add	r8, r8, ip
 1636              	.LVL209:
 1637              	.L55:
 373:libhydrogen\impl/x25519.h ****         out[i] = scarry = scarry + out[i] - hydro_x25519_sc_p[i];
 1638              		.loc 5 373 0 is_stmt 0 discriminator 1
 1639 0142 4346     		mov	r3, r8
 1640 0144 072B     		cmp	r3, #7
 1641 0146 DDDD     		ble	.L56
 376:libhydrogen\impl/x25519.h ****     }
 377:libhydrogen\impl/x25519.h ****     hydro_x25519_limb_t need_add = -(scarry + hic);
 1642              		.loc 5 377 0 is_stmt 1
 1643 0148 159B     		ldr	r3, [sp, #84]
 1644 014a 9C46     		mov	ip, r3
 1645 014c 6044     		add	r0, r0, ip
 1646              	.LVL210:
 1647 014e 4342     		rsbs	r3, r0, #0
 1648 0150 0293     		str	r3, [sp, #8]
 1649              	.LVL211:
 378:libhydrogen\impl/x25519.h **** 
 379:libhydrogen\impl/x25519.h ****     hydro_x25519_limb_t carry = 0;
 1650              		.loc 5 379 0
 1651 0152 0025     		movs	r5, #0
 380:libhydrogen\impl/x25519.h ****     for (i = 0; i < hydro_x25519_NLIMBS; i++) {
 1652              		.loc 5 380 0
 1653 0154 0026     		movs	r6, #0
 1654 0156 B046     		mov	r8, r6
 1655 0158 0095     		str	r5, [sp]
 1656 015a 1CE0     		b	.L57
 1657              	.LVL212:
 1658              	.L58:
 381:libhydrogen\impl/x25519.h ****         out[i] = hydro_x25519_umaal(&carry, out[i], need_add, hydro_x25519_sc_p[i]);
 1659              		.loc 5 381 0 discriminator 3
 1660 015c 4346     		mov	r3, r8
 1661              	.LVL213:
 1662 015e 9B00     		lsls	r3, r3, #2
 1663 0160 9946     		mov	r9, r3
 1664 0162 D144     		add	r9, r9, r10
 1665 0164 4A46     		mov	r2, r9
 1666 0166 1268     		ldr	r2, [r2]
 1667 0168 9346     		mov	fp, r2
 1668 016a 114A     		ldr	r2, .L59+4
 1669 016c D318     		adds	r3, r2, r3
 1670 016e 5868     		ldr	r0, [r3, #4]
 1671              	.LVL214:
 1672              	.LBB230:
 1673              	.LBB231:
  55:libhydrogen\impl/x25519.h **** 
 1674              		.loc 5 55 0 discriminator 3
 1675 0170 029A     		ldr	r2, [sp, #8]
 1676 0172 0023     		movs	r3, #0
ARM GAS  C:\Users\CCPOW_~1\AppData\Local\Temp\cccTFFy7.s 			page 46


 1677 0174 0021     		movs	r1, #0
 1678 0176 FFF7FEFF 		bl	__aeabi_lmul
 1679              	.LVL215:
 1680 017a 5C46     		mov	r4, fp
 1681 017c 0025     		movs	r5, #0
 1682 017e 0019     		adds	r0, r0, r4
 1683 0180 6941     		adcs	r1, r1, r5
 1684 0182 009E     		ldr	r6, [sp]
 1685 0184 0027     		movs	r7, #0
 1686 0186 8019     		adds	r0, r0, r6
 1687 0188 7941     		adcs	r1, r1, r7
 1688              	.LVL216:
  57:libhydrogen\impl/x25519.h ****     return (hydro_x25519_limb_t) tmp;
 1689              		.loc 5 57 0 discriminator 3
 1690 018a 0091     		str	r1, [sp]
 1691              	.LVL217:
 1692              	.LBE231:
 1693              	.LBE230:
 1694              		.loc 5 381 0 discriminator 3
 1695 018c 4B46     		mov	r3, r9
 1696 018e 1860     		str	r0, [r3]
 380:libhydrogen\impl/x25519.h ****         out[i] = hydro_x25519_umaal(&carry, out[i], need_add, hydro_x25519_sc_p[i]);
 1697              		.loc 5 380 0 discriminator 3
 1698 0190 0123     		movs	r3, #1
 1699 0192 9C46     		mov	ip, r3
 1700 0194 E044     		add	r8, r8, ip
 1701              	.LVL218:
 1702              	.L57:
 380:libhydrogen\impl/x25519.h ****         out[i] = hydro_x25519_umaal(&carry, out[i], need_add, hydro_x25519_sc_p[i]);
 1703              		.loc 5 380 0 is_stmt 0 discriminator 1
 1704 0196 4346     		mov	r3, r8
 1705 0198 072B     		cmp	r3, #7
 1706 019a DFDD     		ble	.L58
 382:libhydrogen\impl/x25519.h ****     }
 383:libhydrogen\impl/x25519.h **** }
 1707              		.loc 5 383 0 is_stmt 1
 1708 019c 1DB0     		add	sp, sp, #116
 1709              	.LVL219:
 1710              		@ sp needed
 1711              	.LVL220:
 1712              	.LVL221:
 1713 019e 3CBC     		pop	{r2, r3, r4, r5}
 1714 01a0 9046     		mov	r8, r2
 1715 01a2 9946     		mov	r9, r3
 1716 01a4 A246     		mov	r10, r4
 1717 01a6 AB46     		mov	fp, r5
 1718 01a8 F0BD     		pop	{r4, r5, r6, r7, pc}
 1719              	.L60:
 1720 01aa C046     		.align	2
 1721              	.L59:
 1722 01ac 1B7E5412 		.word	307527195
 1723 01b0 00000000 		.word	.LANCHOR0
 1724 01b4 FFFFFF3F 		.word	1073741823
 1725              		.cfi_endproc
 1726              	.LFE77:
 1727              		.size	hydro_x25519_sc_montmul, .-hydro_x25519_sc_montmul
 1728              		.section	.text.hydro_kx_aead_setup,"ax",%progbits
ARM GAS  C:\Users\CCPOW_~1\AppData\Local\Temp\cccTFFy7.s 			page 47


 1729              		.align	2
 1730              		.code	16
 1731              		.thumb_func
 1732              		.type	hydro_kx_aead_setup, %function
 1733              	hydro_kx_aead_setup:
 1734              	.LFB80:
 1735              		.file 6 "libhydrogen\\impl/kx.h"
   1:libhydrogen\impl/kx.h **** #define hydro_kx_AEAD_KEYBYTES hydro_hash_KEYBYTES
   2:libhydrogen\impl/kx.h **** #define hydro_kx_AEAD_MACBYTES 16
   3:libhydrogen\impl/kx.h **** #define hydro_kx_AEAD_HEADERBYTES hydro_kx_AEAD_MACBYTES
   4:libhydrogen\impl/kx.h **** 
   5:libhydrogen\impl/kx.h **** #define hydro_kx_CONTEXT "hydro_kx"
   6:libhydrogen\impl/kx.h **** #define hydro_kx_CONTEXT_CK_K "kdf_ck_k"
   7:libhydrogen\impl/kx.h **** 
   8:libhydrogen\impl/kx.h **** void
   9:libhydrogen\impl/kx.h **** hydro_kx_keygen(hydro_kx_keypair *static_kp)
  10:libhydrogen\impl/kx.h **** {
  11:libhydrogen\impl/kx.h ****     hydro_random_buf(static_kp->sk, hydro_kx_SECRETKEYBYTES);
  12:libhydrogen\impl/kx.h ****     if (hydro_x25519_scalarmult_base(static_kp->pk, static_kp->sk) != 0) {
  13:libhydrogen\impl/kx.h ****         abort();
  14:libhydrogen\impl/kx.h ****     }
  15:libhydrogen\impl/kx.h **** }
  16:libhydrogen\impl/kx.h **** 
  17:libhydrogen\impl/kx.h **** void
  18:libhydrogen\impl/kx.h **** hydro_kx_keygen_deterministic(hydro_kx_keypair *static_kp, const uint8_t seed[hydro_kx_SEEDBYTES])
  19:libhydrogen\impl/kx.h **** {
  20:libhydrogen\impl/kx.h ****     COMPILER_ASSERT(hydro_kx_SEEDBYTES >= hydro_random_SEEDBYTES);
  21:libhydrogen\impl/kx.h ****     hydro_random_buf_deterministic(static_kp->sk, hydro_kx_SECRETKEYBYTES, seed);
  22:libhydrogen\impl/kx.h ****     if (hydro_x25519_scalarmult_base(static_kp->pk, static_kp->sk) != 0) {
  23:libhydrogen\impl/kx.h ****         abort();
  24:libhydrogen\impl/kx.h ****     }
  25:libhydrogen\impl/kx.h **** }
  26:libhydrogen\impl/kx.h **** 
  27:libhydrogen\impl/kx.h **** static void
  28:libhydrogen\impl/kx.h **** hydro_kx_aead_setup(uint8_t buf[gimli_BLOCKBYTES], const hydro_kx_state *state,
  29:libhydrogen\impl/kx.h ****                     const uint8_t psk[hydro_kx_PSKBYTES])
  30:libhydrogen\impl/kx.h **** {
 1736              		.loc 6 30 0
 1737              		.cfi_startproc
 1738              		@ args = 0, pretend = 0, frame = 0
 1739              		@ frame_needed = 0, uses_anonymous_args = 0
 1740              	.LVL222:
 1741 0000 F8B5     		push	{r3, r4, r5, r6, r7, lr}
 1742              		.cfi_def_cfa_offset 24
 1743              		.cfi_offset 3, -24
 1744              		.cfi_offset 4, -20
 1745              		.cfi_offset 5, -16
 1746              		.cfi_offset 6, -12
 1747              		.cfi_offset 7, -8
 1748              		.cfi_offset 14, -4
 1749 0002 0400     		movs	r4, r0
 1750 0004 0E00     		movs	r6, r1
 1751 0006 1500     		movs	r5, r2
 1752              	.LVL223:
 1753              	.LBB232:
 1754              	.LBB233:
 285:libhydrogen\impl/common.h ****         dst[i] = 0;
ARM GAS  C:\Users\CCPOW_~1\AppData\Local\Temp\cccTFFy7.s 			page 48


 1755              		.loc 4 285 0
 1756 0008 0023     		movs	r3, #0
 1757 000a 05E0     		b	.L62
 1758              	.LVL224:
 1759              	.L63:
 286:libhydrogen\impl/common.h ****     }
 1760              		.loc 4 286 0
 1761 000c 1A00     		movs	r2, r3
 1762 000e 0832     		adds	r2, r2, #8
 1763 0010 A218     		adds	r2, r4, r2
 1764 0012 0021     		movs	r1, #0
 1765 0014 1170     		strb	r1, [r2]
 285:libhydrogen\impl/common.h ****         dst[i] = 0;
 1766              		.loc 4 285 0
 1767 0016 0133     		adds	r3, r3, #1
 1768              	.LVL225:
 1769              	.L62:
 1770 0018 272B     		cmp	r3, #39
 1771 001a F7D9     		bls	.L63
 1772              	.LVL226:
 1773              	.LBE233:
 1774              	.LBE232:
  31:libhydrogen\impl/kx.h ****     static const uint8_t prefix[] = { 6, 'k', 'x', 'x', '2', '5', '6', 0 };
  32:libhydrogen\impl/kx.h **** 
  33:libhydrogen\impl/kx.h ****     mem_zero(buf + sizeof prefix, gimli_BLOCKBYTES - sizeof prefix);
  34:libhydrogen\impl/kx.h ****     memcpy(buf, prefix, sizeof prefix);
 1775              		.loc 6 34 0
 1776 001c 0822     		movs	r2, #8
 1777 001e 3449     		ldr	r1, .L78
 1778 0020 2431     		adds	r1, r1, #36
 1779 0022 2000     		movs	r0, r4
 1780              	.LVL227:
 1781 0024 FFF7FEFF 		bl	memcpy
 1782              	.LVL228:
  35:libhydrogen\impl/kx.h ****     gimli_core_u8(buf, gimli_TAG_HEADER);
 1783              		.loc 6 35 0
 1784 0028 0121     		movs	r1, #1
 1785 002a 2000     		movs	r0, r4
 1786 002c FFF7FEFF 		bl	gimli_core_u8
 1787              	.LVL229:
  36:libhydrogen\impl/kx.h **** 
  37:libhydrogen\impl/kx.h ****     COMPILER_ASSERT(hydro_kx_AEAD_KEYBYTES == 2 * gimli_RATE);
  38:libhydrogen\impl/kx.h ****     mem_xor(buf, state->k, gimli_RATE);
 1788              		.loc 6 38 0
 1789 0030 3700     		movs	r7, r6
 1790 0032 8037     		adds	r7, r7, #128
 1791              	.LVL230:
 1792              	.LBB234:
 1793              	.LBB235:
 297:libhydrogen\impl/common.h ****         dst[i] ^= src[i];
 1794              		.loc 4 297 0
 1795 0034 0023     		movs	r3, #0
 1796 0036 05E0     		b	.L64
 1797              	.LVL231:
 1798              	.L65:
 1799              		.loc 4 298 0
 1800 0038 E118     		adds	r1, r4, r3
ARM GAS  C:\Users\CCPOW_~1\AppData\Local\Temp\cccTFFy7.s 			page 49


 1801 003a F85C     		ldrb	r0, [r7, r3]
 1802 003c 0A78     		ldrb	r2, [r1]
 1803 003e 4240     		eors	r2, r0
 1804 0040 0A70     		strb	r2, [r1]
 297:libhydrogen\impl/common.h ****         dst[i] ^= src[i];
 1805              		.loc 4 297 0
 1806 0042 0133     		adds	r3, r3, #1
 1807              	.LVL232:
 1808              	.L64:
 1809 0044 0F2B     		cmp	r3, #15
 1810 0046 F7D9     		bls	.L65
 1811              	.LVL233:
 1812              	.LBE235:
 1813              	.LBE234:
  39:libhydrogen\impl/kx.h ****     gimli_core_u8(buf, gimli_TAG_KEY);
 1814              		.loc 6 39 0
 1815 0048 FF21     		movs	r1, #255
 1816 004a 2000     		movs	r0, r4
 1817 004c FFF7FEFF 		bl	gimli_core_u8
 1818              	.LVL234:
  40:libhydrogen\impl/kx.h ****     mem_xor(buf, state->k + gimli_RATE, gimli_RATE);
 1819              		.loc 6 40 0
 1820 0050 3700     		movs	r7, r6
 1821 0052 9037     		adds	r7, r7, #144
 1822              	.LVL235:
 1823              	.LBB236:
 1824              	.LBB237:
 297:libhydrogen\impl/common.h ****         dst[i] ^= src[i];
 1825              		.loc 4 297 0
 1826 0054 0023     		movs	r3, #0
 1827 0056 05E0     		b	.L66
 1828              	.LVL236:
 1829              	.L67:
 1830              		.loc 4 298 0
 1831 0058 E118     		adds	r1, r4, r3
 1832 005a F85C     		ldrb	r0, [r7, r3]
 1833 005c 0A78     		ldrb	r2, [r1]
 1834 005e 4240     		eors	r2, r0
 1835 0060 0A70     		strb	r2, [r1]
 297:libhydrogen\impl/common.h ****         dst[i] ^= src[i];
 1836              		.loc 4 297 0
 1837 0062 0133     		adds	r3, r3, #1
 1838              	.LVL237:
 1839              	.L66:
 1840 0064 0F2B     		cmp	r3, #15
 1841 0066 F7D9     		bls	.L67
 1842              	.LVL238:
 1843              	.LBE237:
 1844              	.LBE236:
  41:libhydrogen\impl/kx.h ****     gimli_core_u8(buf, gimli_TAG_KEY);
 1845              		.loc 6 41 0
 1846 0068 FF21     		movs	r1, #255
 1847 006a 2000     		movs	r0, r4
 1848 006c FFF7FEFF 		bl	gimli_core_u8
 1849              	.LVL239:
  42:libhydrogen\impl/kx.h **** 
  43:libhydrogen\impl/kx.h ****     COMPILER_ASSERT(sizeof state->h == 2 * gimli_RATE);
ARM GAS  C:\Users\CCPOW_~1\AppData\Local\Temp\cccTFFy7.s 			page 50


  44:libhydrogen\impl/kx.h ****     mem_xor(buf, state->h, gimli_RATE);
 1850              		.loc 6 44 0
 1851 0070 3700     		movs	r7, r6
 1852 0072 4037     		adds	r7, r7, #64
 1853              	.LVL240:
 1854              	.LBB238:
 1855              	.LBB239:
 297:libhydrogen\impl/common.h ****         dst[i] ^= src[i];
 1856              		.loc 4 297 0
 1857 0074 0023     		movs	r3, #0
 1858 0076 05E0     		b	.L68
 1859              	.LVL241:
 1860              	.L69:
 1861              		.loc 4 298 0
 1862 0078 E118     		adds	r1, r4, r3
 1863 007a F85C     		ldrb	r0, [r7, r3]
 1864 007c 0A78     		ldrb	r2, [r1]
 1865 007e 4240     		eors	r2, r0
 1866 0080 0A70     		strb	r2, [r1]
 297:libhydrogen\impl/common.h ****         dst[i] ^= src[i];
 1867              		.loc 4 297 0
 1868 0082 0133     		adds	r3, r3, #1
 1869              	.LVL242:
 1870              	.L68:
 1871 0084 0F2B     		cmp	r3, #15
 1872 0086 F7D9     		bls	.L69
 1873              	.LVL243:
 1874              	.LBE239:
 1875              	.LBE238:
  45:libhydrogen\impl/kx.h ****     gimli_core_u8(buf, gimli_TAG_HEADER);
 1876              		.loc 6 45 0
 1877 0088 0121     		movs	r1, #1
 1878 008a 2000     		movs	r0, r4
 1879 008c FFF7FEFF 		bl	gimli_core_u8
 1880              	.LVL244:
  46:libhydrogen\impl/kx.h ****     mem_xor(buf, state->h + gimli_RATE, gimli_RATE);
 1881              		.loc 6 46 0
 1882 0090 5036     		adds	r6, r6, #80
 1883              	.LVL245:
 1884              	.LBB240:
 1885              	.LBB241:
 297:libhydrogen\impl/common.h ****         dst[i] ^= src[i];
 1886              		.loc 4 297 0
 1887 0092 0023     		movs	r3, #0
 1888 0094 05E0     		b	.L70
 1889              	.LVL246:
 1890              	.L71:
 1891              		.loc 4 298 0
 1892 0096 E118     		adds	r1, r4, r3
 1893 0098 F05C     		ldrb	r0, [r6, r3]
 1894 009a 0A78     		ldrb	r2, [r1]
 1895 009c 4240     		eors	r2, r0
 1896 009e 0A70     		strb	r2, [r1]
 297:libhydrogen\impl/common.h ****         dst[i] ^= src[i];
 1897              		.loc 4 297 0
 1898 00a0 0133     		adds	r3, r3, #1
 1899              	.LVL247:
ARM GAS  C:\Users\CCPOW_~1\AppData\Local\Temp\cccTFFy7.s 			page 51


 1900              	.L70:
 1901 00a2 0F2B     		cmp	r3, #15
 1902 00a4 F7D9     		bls	.L71
 1903              	.LVL248:
 1904              	.LBE241:
 1905              	.LBE240:
  47:libhydrogen\impl/kx.h ****     gimli_core_u8(buf, gimli_TAG_HEADER);
 1906              		.loc 6 47 0
 1907 00a6 0121     		movs	r1, #1
 1908 00a8 2000     		movs	r0, r4
 1909 00aa FFF7FEFF 		bl	gimli_core_u8
 1910              	.LVL249:
  48:libhydrogen\impl/kx.h **** 
  49:libhydrogen\impl/kx.h ****     if (psk != NULL) {
 1911              		.loc 6 49 0
 1912 00ae 002D     		cmp	r5, #0
 1913 00b0 07D1     		bne	.L77
 1914 00b2 1CE0     		b	.L61
 1915              	.LVL250:
 1916              	.L74:
 1917              	.LBB242:
 1918              	.LBB243:
 1919              		.loc 4 298 0
 1920 00b4 E118     		adds	r1, r4, r3
 1921 00b6 E85C     		ldrb	r0, [r5, r3]
 1922 00b8 0A78     		ldrb	r2, [r1]
 1923 00ba 4240     		eors	r2, r0
 1924 00bc 0A70     		strb	r2, [r1]
 297:libhydrogen\impl/common.h ****         dst[i] ^= src[i];
 1925              		.loc 4 297 0
 1926 00be 0133     		adds	r3, r3, #1
 1927              	.LVL251:
 1928 00c0 00E0     		b	.L72
 1929              	.LVL252:
 1930              	.L77:
 1931              	.LBE243:
 1932              	.LBE242:
 1933 00c2 0023     		movs	r3, #0
 1934              	.L72:
 1935              	.LVL253:
 1936              	.LBB245:
 1937              	.LBB244:
 1938 00c4 0F2B     		cmp	r3, #15
 1939 00c6 F5D9     		bls	.L74
 1940              	.LVL254:
 1941              	.LBE244:
 1942              	.LBE245:
  50:libhydrogen\impl/kx.h ****         COMPILER_ASSERT(hydro_kx_PSKBYTES == 2 * gimli_RATE);
  51:libhydrogen\impl/kx.h ****         mem_xor(buf, psk, gimli_RATE);
  52:libhydrogen\impl/kx.h ****         gimli_core_u8(buf, gimli_TAG_HEADER);
 1943              		.loc 6 52 0
 1944 00c8 0121     		movs	r1, #1
 1945 00ca 2000     		movs	r0, r4
 1946 00cc FFF7FEFF 		bl	gimli_core_u8
 1947              	.LVL255:
 1948              	.LBB246:
 1949              	.LBB247:
ARM GAS  C:\Users\CCPOW_~1\AppData\Local\Temp\cccTFFy7.s 			page 52


 297:libhydrogen\impl/common.h ****         dst[i] ^= src[i];
 1950              		.loc 4 297 0
 1951 00d0 0023     		movs	r3, #0
 1952 00d2 06E0     		b	.L75
 1953              	.LVL256:
 1954              	.L76:
 1955              		.loc 4 298 0
 1956 00d4 E118     		adds	r1, r4, r3
 1957 00d6 EA18     		adds	r2, r5, r3
 1958 00d8 107C     		ldrb	r0, [r2, #16]
 1959 00da 0A78     		ldrb	r2, [r1]
 1960 00dc 4240     		eors	r2, r0
 1961 00de 0A70     		strb	r2, [r1]
 297:libhydrogen\impl/common.h ****         dst[i] ^= src[i];
 1962              		.loc 4 297 0
 1963 00e0 0133     		adds	r3, r3, #1
 1964              	.LVL257:
 1965              	.L75:
 1966 00e2 0F2B     		cmp	r3, #15
 1967 00e4 F6D9     		bls	.L76
 1968              	.LVL258:
 1969              	.LBE247:
 1970              	.LBE246:
  53:libhydrogen\impl/kx.h ****         mem_xor(buf, psk + gimli_RATE, gimli_RATE);
  54:libhydrogen\impl/kx.h ****         gimli_core_u8(buf, gimli_TAG_HEADER);
 1971              		.loc 6 54 0
 1972 00e6 0121     		movs	r1, #1
 1973 00e8 2000     		movs	r0, r4
 1974 00ea FFF7FEFF 		bl	gimli_core_u8
 1975              	.LVL259:
 1976              	.L61:
  55:libhydrogen\impl/kx.h ****     }
  56:libhydrogen\impl/kx.h **** }
 1977              		.loc 6 56 0
 1978              		@ sp needed
 1979              	.LVL260:
 1980              	.LVL261:
 1981              	.LVL262:
 1982 00ee F8BD     		pop	{r3, r4, r5, r6, r7, pc}
 1983              	.L79:
 1984              		.align	2
 1985              	.L78:
 1986 00f0 00000000 		.word	.LANCHOR0
 1987              		.cfi_endproc
 1988              	.LFE80:
 1989              		.size	hydro_kx_aead_setup, .-hydro_kx_aead_setup
 1990              		.section	.text.hydro_kx_finalize,"ax",%progbits
 1991              		.align	2
 1992              		.code	16
 1993              		.thumb_func
 1994              		.type	hydro_kx_finalize, %function
 1995              	hydro_kx_finalize:
 1996              	.LFB81:
  57:libhydrogen\impl/kx.h **** 
  58:libhydrogen\impl/kx.h **** static void
  59:libhydrogen\impl/kx.h **** hydro_kx_finalize(uint8_t *buf, const uint8_t key[hydro_kx_AEAD_KEYBYTES])
  60:libhydrogen\impl/kx.h **** {
ARM GAS  C:\Users\CCPOW_~1\AppData\Local\Temp\cccTFFy7.s 			page 53


 1997              		.loc 6 60 0
 1998              		.cfi_startproc
 1999              		@ args = 0, pretend = 0, frame = 0
 2000              		@ frame_needed = 0, uses_anonymous_args = 0
 2001              	.LVL263:
 2002 0000 70B5     		push	{r4, r5, r6, lr}
 2003              		.cfi_def_cfa_offset 16
 2004              		.cfi_offset 4, -16
 2005              		.cfi_offset 5, -12
 2006              		.cfi_offset 6, -8
 2007              		.cfi_offset 14, -4
 2008 0002 0400     		movs	r4, r0
 2009 0004 0D00     		movs	r5, r1
 2010              	.LVL264:
 2011              	.LBB248:
 2012              	.LBB249:
 297:libhydrogen\impl/common.h ****         dst[i] ^= src[i];
 2013              		.loc 4 297 0
 2014 0006 0023     		movs	r3, #0
 2015 0008 07E0     		b	.L81
 2016              	.LVL265:
 2017              	.L82:
 2018              		.loc 4 298 0
 2019 000a 1A00     		movs	r2, r3
 2020 000c 1032     		adds	r2, r2, #16
 2021 000e A218     		adds	r2, r4, r2
 2022 0010 E85C     		ldrb	r0, [r5, r3]
 2023 0012 1178     		ldrb	r1, [r2]
 2024 0014 4140     		eors	r1, r0
 2025 0016 1170     		strb	r1, [r2]
 297:libhydrogen\impl/common.h ****         dst[i] ^= src[i];
 2026              		.loc 4 297 0
 2027 0018 0133     		adds	r3, r3, #1
 2028              	.LVL266:
 2029              	.L81:
 2030 001a 1F2B     		cmp	r3, #31
 2031 001c F5D9     		bls	.L82
 2032              	.LVL267:
 2033              	.LBE249:
 2034              	.LBE248:
  61:libhydrogen\impl/kx.h ****     COMPILER_ASSERT(hydro_kx_AEAD_KEYBYTES == gimli_CAPACITY);
  62:libhydrogen\impl/kx.h ****     mem_xor(buf + gimli_RATE, key, hydro_kx_AEAD_KEYBYTES);
  63:libhydrogen\impl/kx.h ****     gimli_core_u8(buf, gimli_TAG_FINAL);
 2035              		.loc 6 63 0
 2036 001e 0821     		movs	r1, #8
 2037 0020 2000     		movs	r0, r4
 2038 0022 FFF7FEFF 		bl	gimli_core_u8
 2039              	.LVL268:
 2040              	.LBB250:
 2041              	.LBB251:
 297:libhydrogen\impl/common.h ****         dst[i] ^= src[i];
 2042              		.loc 4 297 0
 2043 0026 0023     		movs	r3, #0
 2044 0028 07E0     		b	.L83
 2045              	.LVL269:
 2046              	.L84:
 2047              		.loc 4 298 0
ARM GAS  C:\Users\CCPOW_~1\AppData\Local\Temp\cccTFFy7.s 			page 54


 2048 002a 1A00     		movs	r2, r3
 2049 002c 1032     		adds	r2, r2, #16
 2050 002e A218     		adds	r2, r4, r2
 2051 0030 E85C     		ldrb	r0, [r5, r3]
 2052 0032 1178     		ldrb	r1, [r2]
 2053 0034 4140     		eors	r1, r0
 2054 0036 1170     		strb	r1, [r2]
 297:libhydrogen\impl/common.h ****         dst[i] ^= src[i];
 2055              		.loc 4 297 0
 2056 0038 0133     		adds	r3, r3, #1
 2057              	.LVL270:
 2058              	.L83:
 2059 003a 1F2B     		cmp	r3, #31
 2060 003c F5D9     		bls	.L84
 2061              	.LVL271:
 2062              	.LBE251:
 2063              	.LBE250:
  64:libhydrogen\impl/kx.h ****     mem_xor(buf + gimli_RATE, key, hydro_kx_AEAD_KEYBYTES);
  65:libhydrogen\impl/kx.h ****     gimli_core_u8(buf, gimli_TAG_FINAL);
 2064              		.loc 6 65 0
 2065 003e 0821     		movs	r1, #8
 2066 0040 2000     		movs	r0, r4
 2067 0042 FFF7FEFF 		bl	gimli_core_u8
 2068              	.LVL272:
  66:libhydrogen\impl/kx.h **** }
 2069              		.loc 6 66 0
 2070              		@ sp needed
 2071              	.LVL273:
 2072              	.LVL274:
 2073 0046 70BD     		pop	{r4, r5, r6, pc}
 2074              		.cfi_endproc
 2075              	.LFE81:
 2076              		.size	hydro_kx_finalize, .-hydro_kx_finalize
 2077              		.section	.text.hydro_secretbox_setup,"ax",%progbits
 2078              		.align	2
 2079              		.code	16
 2080              		.thumb_func
 2081              		.type	hydro_secretbox_setup, %function
 2082              	hydro_secretbox_setup:
 2083              	.LFB50:
  58:libhydrogen\impl/secretbox.h ****     static const uint8_t prefix[] = { 6, 's', 'b', 'x', '2', '5', '6', 8 };
 2084              		.loc 3 58 0
 2085              		.cfi_startproc
 2086              		@ args = 16, pretend = 0, frame = 24
 2087              		@ frame_needed = 0, uses_anonymous_args = 0
 2088              	.LVL275:
 2089 0000 F0B5     		push	{r4, r5, r6, r7, lr}
 2090              		.cfi_def_cfa_offset 20
 2091              		.cfi_offset 4, -20
 2092              		.cfi_offset 5, -16
 2093              		.cfi_offset 6, -12
 2094              		.cfi_offset 7, -8
 2095              		.cfi_offset 14, -4
 2096 0002 87B0     		sub	sp, sp, #28
 2097              		.cfi_def_cfa_offset 48
 2098 0004 0700     		movs	r7, r0
 2099 0006 0092     		str	r2, [sp]
ARM GAS  C:\Users\CCPOW_~1\AppData\Local\Temp\cccTFFy7.s 			page 55


 2100 0008 0193     		str	r3, [sp, #4]
 2101 000a 0D9C     		ldr	r4, [sp, #52]
 2102 000c 0E9E     		ldr	r6, [sp, #56]
 2103 000e 0FAB     		add	r3, sp, #60
 2104              	.LVL276:
 2105 0010 1D78     		ldrb	r5, [r3]
 2106              	.LVL277:
 2107              	.LBB252:
 2108              	.LBB253:
 285:libhydrogen\impl/common.h ****         dst[i] = 0;
 2109              		.loc 4 285 0
 2110 0012 0023     		movs	r3, #0
 2111              	.LVL278:
 2112 0014 03E0     		b	.L86
 2113              	.LVL279:
 2114              	.L87:
 286:libhydrogen\impl/common.h ****     }
 2115              		.loc 4 286 0
 2116 0016 FA18     		adds	r2, r7, r3
 2117 0018 0021     		movs	r1, #0
 2118 001a 1170     		strb	r1, [r2]
 285:libhydrogen\impl/common.h ****         dst[i] = 0;
 2119              		.loc 4 285 0
 2120 001c 0133     		adds	r3, r3, #1
 2121              	.LVL280:
 2122              	.L86:
 2123 001e 2F2B     		cmp	r3, #47
 2124 0020 F9D9     		bls	.L87
 2125              	.LVL281:
 2126              	.LBE253:
 2127              	.LBE252:
  65:libhydrogen\impl/secretbox.h ****     memcpy(buf + sizeof prefix, ctx, hydro_secretbox_CONTEXTBYTES);
 2128              		.loc 3 65 0
 2129 0022 0822     		movs	r2, #8
 2130 0024 3249     		ldr	r1, .L98
 2131 0026 2C31     		adds	r1, r1, #44
 2132 0028 3800     		movs	r0, r7
 2133              	.LVL282:
 2134 002a FFF7FEFF 		bl	memcpy
 2135              	.LVL283:
  66:libhydrogen\impl/secretbox.h ****     COMPILER_ASSERT(sizeof prefix + hydro_secretbox_CONTEXTBYTES == gimli_RATE);
 2136              		.loc 3 66 0
 2137 002e 3800     		movs	r0, r7
 2138 0030 0830     		adds	r0, r0, #8
 2139 0032 0822     		movs	r2, #8
 2140 0034 0C99     		ldr	r1, [sp, #48]
 2141 0036 FFF7FEFF 		bl	memcpy
 2142              	.LVL284:
  68:libhydrogen\impl/secretbox.h **** 
 2143              		.loc 3 68 0
 2144 003a 0121     		movs	r1, #1
 2145 003c 3800     		movs	r0, r7
 2146 003e FFF7FEFF 		bl	gimli_core_u8
 2147              	.LVL285:
 2148              	.LBB254:
 2149              	.LBB255:
 297:libhydrogen\impl/common.h ****         dst[i] ^= src[i];
ARM GAS  C:\Users\CCPOW_~1\AppData\Local\Temp\cccTFFy7.s 			page 56


 2150              		.loc 4 297 0
 2151 0042 0023     		movs	r3, #0
 2152 0044 05E0     		b	.L88
 2153              	.LVL286:
 2154              	.L89:
 2155              		.loc 4 298 0
 2156 0046 F918     		adds	r1, r7, r3
 2157 0048 E05C     		ldrb	r0, [r4, r3]
 2158 004a 0A78     		ldrb	r2, [r1]
 2159 004c 4240     		eors	r2, r0
 2160 004e 0A70     		strb	r2, [r1]
 297:libhydrogen\impl/common.h ****         dst[i] ^= src[i];
 2161              		.loc 4 297 0
 2162 0050 0133     		adds	r3, r3, #1
 2163              	.LVL287:
 2164              	.L88:
 2165 0052 0F2B     		cmp	r3, #15
 2166 0054 F7D9     		bls	.L89
 2167              	.LVL288:
 2168              	.LBE255:
 2169              	.LBE254:
  72:libhydrogen\impl/secretbox.h ****     mem_xor(buf, key + gimli_RATE, gimli_RATE);
 2170              		.loc 3 72 0
 2171 0056 2900     		movs	r1, r5
 2172 0058 3800     		movs	r0, r7
 2173 005a FFF7FEFF 		bl	gimli_core_u8
 2174              	.LVL289:
 2175              	.LBB256:
 2176              	.LBB257:
 297:libhydrogen\impl/common.h ****         dst[i] ^= src[i];
 2177              		.loc 4 297 0
 2178 005e 0023     		movs	r3, #0
 2179 0060 06E0     		b	.L90
 2180              	.LVL290:
 2181              	.L91:
 2182              		.loc 4 298 0
 2183 0062 F918     		adds	r1, r7, r3
 2184 0064 E218     		adds	r2, r4, r3
 2185 0066 107C     		ldrb	r0, [r2, #16]
 2186 0068 0A78     		ldrb	r2, [r1]
 2187 006a 4240     		eors	r2, r0
 2188 006c 0A70     		strb	r2, [r1]
 297:libhydrogen\impl/common.h ****         dst[i] ^= src[i];
 2189              		.loc 4 297 0
 2190 006e 0133     		adds	r3, r3, #1
 2191              	.LVL291:
 2192              	.L90:
 2193 0070 0F2B     		cmp	r3, #15
 2194 0072 F6D9     		bls	.L91
 2195              	.LVL292:
 2196              	.LBE257:
 2197              	.LBE256:
  74:libhydrogen\impl/secretbox.h **** 
 2198              		.loc 3 74 0
 2199 0074 2900     		movs	r1, r5
 2200 0076 3800     		movs	r0, r7
 2201 0078 FFF7FEFF 		bl	gimli_core_u8
ARM GAS  C:\Users\CCPOW_~1\AppData\Local\Temp\cccTFFy7.s 			page 57


 2202              	.LVL293:
  77:libhydrogen\impl/secretbox.h ****     mem_xor(&buf[1], iv, gimli_RATE - 1);
 2203              		.loc 3 77 0
 2204 007c 3A78     		ldrb	r2, [r7]
 2205 007e 1423     		movs	r3, #20
 2206 0080 5340     		eors	r3, r2
 2207 0082 3B70     		strb	r3, [r7]
 2208              	.LVL294:
 2209              	.LBB258:
 2210              	.LBB259:
 297:libhydrogen\impl/common.h ****         dst[i] ^= src[i];
 2211              		.loc 4 297 0
 2212 0084 0023     		movs	r3, #0
 2213 0086 06E0     		b	.L92
 2214              	.LVL295:
 2215              	.L93:
 2216 0088 5A1C     		adds	r2, r3, #1
 2217              		.loc 4 298 0
 2218 008a B918     		adds	r1, r7, r2
 2219 008c F05C     		ldrb	r0, [r6, r3]
 2220 008e 0B78     		ldrb	r3, [r1]
 2221              	.LVL296:
 2222 0090 4340     		eors	r3, r0
 2223 0092 0B70     		strb	r3, [r1]
 2224              	.LVL297:
 297:libhydrogen\impl/common.h ****         dst[i] ^= src[i];
 2225              		.loc 4 297 0
 2226 0094 1300     		movs	r3, r2
 2227              	.LVL298:
 2228              	.L92:
 2229 0096 0E2B     		cmp	r3, #14
 2230 0098 F6D9     		bls	.L93
 2231              	.LVL299:
 2232              	.LBE259:
 2233              	.LBE258:
  79:libhydrogen\impl/secretbox.h ****     mem_xor(buf, iv + gimli_RATE - 1, hydro_secretbox_IVBYTES - (gimli_RATE - 1));
 2234              		.loc 3 79 0
 2235 009a 0121     		movs	r1, #1
 2236 009c 3800     		movs	r0, r7
 2237 009e FFF7FEFF 		bl	gimli_core_u8
 2238              	.LVL300:
 2239              	.LBB260:
 2240              	.LBB261:
 297:libhydrogen\impl/common.h ****         dst[i] ^= src[i];
 2241              		.loc 4 297 0
 2242 00a2 0023     		movs	r3, #0
 2243 00a4 06E0     		b	.L94
 2244              	.LVL301:
 2245              	.L95:
 2246              		.loc 4 298 0
 2247 00a6 F918     		adds	r1, r7, r3
 2248 00a8 F218     		adds	r2, r6, r3
 2249 00aa D07B     		ldrb	r0, [r2, #15]
 2250 00ac 0A78     		ldrb	r2, [r1]
 2251 00ae 4240     		eors	r2, r0
 2252 00b0 0A70     		strb	r2, [r1]
 297:libhydrogen\impl/common.h ****         dst[i] ^= src[i];
ARM GAS  C:\Users\CCPOW_~1\AppData\Local\Temp\cccTFFy7.s 			page 58


 2253              		.loc 4 297 0
 2254 00b2 0133     		adds	r3, r3, #1
 2255              	.LVL302:
 2256              	.L94:
 2257 00b4 042B     		cmp	r3, #4
 2258 00b6 F6D9     		bls	.L95
 2259              	.LVL303:
 2260              	.LBE261:
 2261              	.LBE260:
 2262              	.LBB262:
 2263              	.LBB263:
  75:libhydrogen\impl/common.h **** #else
 2264              		.loc 4 75 0
 2265 00b8 009B     		ldr	r3, [sp]
 2266 00ba 019C     		ldr	r4, [sp, #4]
 2267 00bc 0293     		str	r3, [sp, #8]
 2268 00be 0394     		str	r4, [sp, #12]
 2269 00c0 0822     		movs	r2, #8
 2270 00c2 02A9     		add	r1, sp, #8
 2271 00c4 04A8     		add	r0, sp, #16
 2272              	.LVL304:
 2273 00c6 FFF7FEFF 		bl	memcpy
 2274              	.LVL305:
 2275              	.LBE263:
 2276              	.LBE262:
 2277              	.LBB264:
 2278              	.LBB265:
 297:libhydrogen\impl/common.h ****         dst[i] ^= src[i];
 2279              		.loc 4 297 0
 2280 00ca 0023     		movs	r3, #0
 2281 00cc 07E0     		b	.L96
 2282              	.LVL306:
 2283              	.L97:
 2284              		.loc 4 298 0
 2285 00ce 1A1D     		adds	r2, r3, #4
 2286 00d0 BA18     		adds	r2, r7, r2
 2287 00d2 04A9     		add	r1, sp, #16
 2288              	.LVL307:
 2289 00d4 C85C     		ldrb	r0, [r1, r3]
 2290 00d6 1178     		ldrb	r1, [r2]
 2291              	.LVL308:
 2292 00d8 4140     		eors	r1, r0
 2293 00da 1170     		strb	r1, [r2]
 297:libhydrogen\impl/common.h ****         dst[i] ^= src[i];
 2294              		.loc 4 297 0
 2295 00dc 0133     		adds	r3, r3, #1
 2296              	.LVL309:
 2297              	.L96:
 2298 00de 072B     		cmp	r3, #7
 2299 00e0 F5D9     		bls	.L97
 2300              	.LVL310:
 2301              	.LBE265:
 2302              	.LBE264:
  84:libhydrogen\impl/secretbox.h **** }
 2303              		.loc 3 84 0
 2304 00e2 0121     		movs	r1, #1
 2305 00e4 3800     		movs	r0, r7
ARM GAS  C:\Users\CCPOW_~1\AppData\Local\Temp\cccTFFy7.s 			page 59


 2306 00e6 FFF7FEFF 		bl	gimli_core_u8
 2307              	.LVL311:
  85:libhydrogen\impl/secretbox.h **** 
 2308              		.loc 3 85 0
 2309 00ea 07B0     		add	sp, sp, #28
 2310              	.LVL312:
 2311              		@ sp needed
 2312              	.LVL313:
 2313 00ec F0BD     		pop	{r4, r5, r6, r7, pc}
 2314              	.L99:
 2315 00ee C046     		.align	2
 2316              	.L98:
 2317 00f0 00000000 		.word	.LANCHOR0
 2318              		.cfi_endproc
 2319              	.LFE50:
 2320              		.size	hydro_secretbox_setup, .-hydro_secretbox_setup
 2321              		.section	.text.hydro_secretbox_xor_enc,"ax",%progbits
 2322              		.align	2
 2323              		.code	16
 2324              		.thumb_func
 2325              		.type	hydro_secretbox_xor_enc, %function
 2326              	hydro_secretbox_xor_enc:
 2327              	.LFB48:
  14:libhydrogen\impl/secretbox.h ****     size_t i;
 2328              		.loc 3 14 0
 2329              		.cfi_startproc
 2330              		@ args = 0, pretend = 0, frame = 0
 2331              		@ frame_needed = 0, uses_anonymous_args = 0
 2332              	.LVL314:
 2333 0000 F8B5     		push	{r3, r4, r5, r6, r7, lr}
 2334              		.cfi_def_cfa_offset 24
 2335              		.cfi_offset 3, -24
 2336              		.cfi_offset 4, -20
 2337              		.cfi_offset 5, -16
 2338              		.cfi_offset 6, -12
 2339              		.cfi_offset 7, -8
 2340              		.cfi_offset 14, -4
 2341 0002 4F46     		mov	r7, r9
 2342 0004 4646     		mov	r6, r8
 2343 0006 C0B4     		push	{r6, r7}
 2344              		.cfi_def_cfa_offset 32
 2345              		.cfi_offset 8, -32
 2346              		.cfi_offset 9, -28
 2347 0008 0400     		movs	r4, r0
 2348 000a 0D00     		movs	r5, r1
 2349 000c 1600     		movs	r6, r2
 2350 000e 9846     		mov	r8, r3
 2351              	.LVL315:
  18:libhydrogen\impl/secretbox.h ****         mem_xor2(&out[i * gimli_RATE], &in[i * gimli_RATE], buf, gimli_RATE);
 2352              		.loc 3 18 0
 2353 0010 0023     		movs	r3, #0
 2354              	.LVL316:
 2355 0012 9946     		mov	r9, r3
 2356 0014 17E0     		b	.L101
 2357              	.LVL317:
 2358              	.L104:
  19:libhydrogen\impl/secretbox.h ****         memcpy(buf, &out[i * gimli_RATE], gimli_RATE);
ARM GAS  C:\Users\CCPOW_~1\AppData\Local\Temp\cccTFFy7.s 			page 60


 2359              		.loc 3 19 0 discriminator 3
 2360 0016 4B46     		mov	r3, r9
 2361 0018 1F01     		lsls	r7, r3, #4
 2362              	.LVL318:
 2363              	.LBB266:
 2364              	.LBB267:
 299:libhydrogen\impl/common.h ****     }
 300:libhydrogen\impl/common.h **** }
 301:libhydrogen\impl/common.h **** 
 302:libhydrogen\impl/common.h **** static inline void
 303:libhydrogen\impl/common.h **** mem_xor2(void *__restrict__ dst_, const void *__restrict__ src1_, const void *__restrict__ src2_,
 304:libhydrogen\impl/common.h ****          size_t n)
 305:libhydrogen\impl/common.h **** {
 306:libhydrogen\impl/common.h ****     unsigned char *      dst  = (unsigned char *) dst_;
 307:libhydrogen\impl/common.h ****     const unsigned char *src1 = (const unsigned char *) src1_;
 308:libhydrogen\impl/common.h ****     const unsigned char *src2 = (const unsigned char *) src2_;
 309:libhydrogen\impl/common.h ****     size_t               i;
 310:libhydrogen\impl/common.h **** 
 311:libhydrogen\impl/common.h ****     for (i = 0; i < n; i++) {
 2365              		.loc 4 311 0 discriminator 3
 2366 001a 0023     		movs	r3, #0
 2367 001c 05E0     		b	.L102
 2368              	.LVL319:
 2369              	.L103:
 2370 001e F818     		adds	r0, r7, r3
 312:libhydrogen\impl/common.h ****         dst[i] = src1[i] ^ src2[i];
 2371              		.loc 4 312 0
 2372 0020 315C     		ldrb	r1, [r6, r0]
 2373 0022 E25C     		ldrb	r2, [r4, r3]
 2374 0024 4A40     		eors	r2, r1
 2375 0026 2A54     		strb	r2, [r5, r0]
 311:libhydrogen\impl/common.h ****         dst[i] = src1[i] ^ src2[i];
 2376              		.loc 4 311 0
 2377 0028 0133     		adds	r3, r3, #1
 2378              	.LVL320:
 2379              	.L102:
 2380 002a 0F2B     		cmp	r3, #15
 2381 002c F7D9     		bls	.L103
 2382              	.LVL321:
 2383              	.LBE267:
 2384              	.LBE266:
  20:libhydrogen\impl/secretbox.h ****         gimli_core_u8(buf, gimli_TAG_PAYLOAD);
 2385              		.loc 3 20 0 discriminator 3
 2386 002e E919     		adds	r1, r5, r7
 2387 0030 1022     		movs	r2, #16
 2388 0032 2000     		movs	r0, r4
 2389 0034 FFF7FEFF 		bl	memcpy
 2390              	.LVL322:
  21:libhydrogen\impl/secretbox.h ****     }
 2391              		.loc 3 21 0 discriminator 3
 2392 0038 0221     		movs	r1, #2
 2393 003a 2000     		movs	r0, r4
 2394 003c FFF7FEFF 		bl	gimli_core_u8
 2395              	.LVL323:
  18:libhydrogen\impl/secretbox.h ****         mem_xor2(&out[i * gimli_RATE], &in[i * gimli_RATE], buf, gimli_RATE);
 2396              		.loc 3 18 0 discriminator 3
 2397 0040 0123     		movs	r3, #1
ARM GAS  C:\Users\CCPOW_~1\AppData\Local\Temp\cccTFFy7.s 			page 61


 2398 0042 9C46     		mov	ip, r3
 2399 0044 E144     		add	r9, r9, ip
 2400              	.LVL324:
 2401              	.L101:
  18:libhydrogen\impl/secretbox.h ****         mem_xor2(&out[i * gimli_RATE], &in[i * gimli_RATE], buf, gimli_RATE);
 2402              		.loc 3 18 0 is_stmt 0 discriminator 1
 2403 0046 4346     		mov	r3, r8
 2404 0048 1B09     		lsrs	r3, r3, #4
 2405 004a 9945     		cmp	r9, r3
 2406 004c E3D3     		bcc	.L104
  23:libhydrogen\impl/secretbox.h ****     if (leftover != 0) {
 2407              		.loc 3 23 0 is_stmt 1
 2408 004e 0F21     		movs	r1, #15
 2409 0050 4346     		mov	r3, r8
 2410 0052 1940     		ands	r1, r3
 2411              	.LVL325:
  24:libhydrogen\impl/secretbox.h ****         mem_xor2(&out[i * gimli_RATE], &in[i * gimli_RATE], buf, leftover);
 2412              		.loc 3 24 0
 2413 0054 18D0     		beq	.L105
 2414              	.LVL326:
  25:libhydrogen\impl/secretbox.h ****         mem_cpy(buf, &out[i * gimli_RATE], leftover);
 2415              		.loc 3 25 0
 2416 0056 4B46     		mov	r3, r9
 2417              	.LVL327:
 2418 0058 1B01     		lsls	r3, r3, #4
 2419 005a 9846     		mov	r8, r3
 2420              	.LVL328:
 2421              	.LBB268:
 2422              	.LBB269:
 311:libhydrogen\impl/common.h ****         dst[i] = src1[i] ^ src2[i];
 2423              		.loc 4 311 0
 2424 005c 0023     		movs	r3, #0
 2425              	.LVL329:
 2426 005e 08E0     		b	.L106
 2427              	.LVL330:
 2428              	.L107:
 2429 0060 4246     		mov	r2, r8
 2430 0062 D018     		adds	r0, r2, r3
 2431              		.loc 4 312 0
 2432 0064 325C     		ldrb	r2, [r6, r0]
 2433 0066 9446     		mov	ip, r2
 2434 0068 E25C     		ldrb	r2, [r4, r3]
 2435 006a 6746     		mov	r7, ip
 2436 006c 7A40     		eors	r2, r7
 2437 006e 2A54     		strb	r2, [r5, r0]
 311:libhydrogen\impl/common.h ****         dst[i] = src1[i] ^ src2[i];
 2438              		.loc 4 311 0
 2439 0070 0133     		adds	r3, r3, #1
 2440              	.LVL331:
 2441              	.L106:
 2442 0072 9942     		cmp	r1, r3
 2443 0074 F4D8     		bhi	.L107
 2444 0076 0023     		movs	r3, #0
 2445              	.LVL332:
 2446 0078 04E0     		b	.L108
 2447              	.LVL333:
 2448              	.L109:
ARM GAS  C:\Users\CCPOW_~1\AppData\Local\Temp\cccTFFy7.s 			page 62


 2449              	.LBE269:
 2450              	.LBE268:
 2451              	.LBB270:
 2452              	.LBB271:
 275:libhydrogen\impl/common.h ****     }
 2453              		.loc 4 275 0
 2454 007a EA18     		adds	r2, r5, r3
 2455 007c 4046     		mov	r0, r8
 2456 007e 125C     		ldrb	r2, [r2, r0]
 2457 0080 E254     		strb	r2, [r4, r3]
 274:libhydrogen\impl/common.h ****         dst[i] = src[i];
 2458              		.loc 4 274 0
 2459 0082 0133     		adds	r3, r3, #1
 2460              	.LVL334:
 2461              	.L108:
 2462 0084 8B42     		cmp	r3, r1
 2463 0086 F8D3     		bcc	.L109
 2464              	.LVL335:
 2465              	.L105:
 2466              	.LBE271:
 2467              	.LBE270:
 2468              	.LBB272:
 2469              	.LBB273:
 2470              		.file 7 "libhydrogen\\impl/hydrogen_p.h"
   1:libhydrogen\impl/hydrogen_p.h **** static int hydro_random_init(void);
   2:libhydrogen\impl/hydrogen_p.h **** 
   3:libhydrogen\impl/hydrogen_p.h **** /* ---------------- */
   4:libhydrogen\impl/hydrogen_p.h **** 
   5:libhydrogen\impl/hydrogen_p.h **** #define gimli_BLOCKBYTES 48
   6:libhydrogen\impl/hydrogen_p.h **** #define gimli_CAPACITY   32
   7:libhydrogen\impl/hydrogen_p.h **** #define gimli_RATE       16
   8:libhydrogen\impl/hydrogen_p.h **** 
   9:libhydrogen\impl/hydrogen_p.h **** #define gimli_TAG_HEADER  0x01
  10:libhydrogen\impl/hydrogen_p.h **** #define gimli_TAG_PAYLOAD 0x02
  11:libhydrogen\impl/hydrogen_p.h **** #define gimli_TAG_FINAL   0x08
  12:libhydrogen\impl/hydrogen_p.h **** #define gimli_TAG_FINAL0  0xf8
  13:libhydrogen\impl/hydrogen_p.h **** #define gimli_TAG_KEY0    0xfe
  14:libhydrogen\impl/hydrogen_p.h **** #define gimli_TAG_KEY     0xff
  15:libhydrogen\impl/hydrogen_p.h **** 
  16:libhydrogen\impl/hydrogen_p.h **** #define gimli_DOMAIN_AEAD 0x0
  17:libhydrogen\impl/hydrogen_p.h **** #define gimli_DOMAIN_XOF  0xf
  18:libhydrogen\impl/hydrogen_p.h **** 
  19:libhydrogen\impl/hydrogen_p.h **** static void gimli_core_u8(uint8_t state_u8[gimli_BLOCKBYTES], uint8_t tag);
  20:libhydrogen\impl/hydrogen_p.h **** 
  21:libhydrogen\impl/hydrogen_p.h **** static inline void
  22:libhydrogen\impl/hydrogen_p.h **** gimli_pad_u8(uint8_t buf[gimli_BLOCKBYTES], size_t pos, uint8_t domain)
  23:libhydrogen\impl/hydrogen_p.h **** {
  24:libhydrogen\impl/hydrogen_p.h ****     buf[pos] ^= (domain << 1) | 1;
 2471              		.loc 7 24 0
 2472 0088 6118     		adds	r1, r4, r1
 2473              	.LVL336:
 2474 008a 0A78     		ldrb	r2, [r1]
 2475 008c 0123     		movs	r3, #1
 2476 008e 5340     		eors	r3, r2
 2477 0090 0B70     		strb	r3, [r1]
  25:libhydrogen\impl/hydrogen_p.h ****     buf[gimli_RATE - 1] ^= 0x80;
 2478              		.loc 7 25 0
ARM GAS  C:\Users\CCPOW_~1\AppData\Local\Temp\cccTFFy7.s 			page 63


 2479 0092 E37B     		ldrb	r3, [r4, #15]
 2480 0094 8022     		movs	r2, #128
 2481 0096 5242     		rsbs	r2, r2, #0
 2482 0098 5340     		eors	r3, r2
 2483 009a E373     		strb	r3, [r4, #15]
 2484              	.LVL337:
 2485              	.LBE273:
 2486              	.LBE272:
  29:libhydrogen\impl/secretbox.h **** }
 2487              		.loc 3 29 0
 2488 009c 0221     		movs	r1, #2
 2489 009e 2000     		movs	r0, r4
 2490 00a0 FFF7FEFF 		bl	gimli_core_u8
 2491              	.LVL338:
  30:libhydrogen\impl/secretbox.h **** 
 2492              		.loc 3 30 0
 2493              		@ sp needed
 2494              	.LVL339:
 2495              	.LVL340:
 2496              	.LVL341:
 2497              	.LVL342:
 2498 00a4 0CBC     		pop	{r2, r3}
 2499 00a6 9046     		mov	r8, r2
 2500 00a8 9946     		mov	r9, r3
 2501 00aa F8BD     		pop	{r3, r4, r5, r6, r7, pc}
 2502              		.cfi_endproc
 2503              	.LFE48:
 2504              		.size	hydro_secretbox_xor_enc, .-hydro_secretbox_xor_enc
 2505              		.section	.text.hydro_secretbox_xor_dec,"ax",%progbits
 2506              		.align	2
 2507              		.code	16
 2508              		.thumb_func
 2509              		.type	hydro_secretbox_xor_dec, %function
 2510              	hydro_secretbox_xor_dec:
 2511              	.LFB49:
  35:libhydrogen\impl/secretbox.h ****     size_t i;
 2512              		.loc 3 35 0
 2513              		.cfi_startproc
 2514              		@ args = 0, pretend = 0, frame = 0
 2515              		@ frame_needed = 0, uses_anonymous_args = 0
 2516              	.LVL343:
 2517 0000 F8B5     		push	{r3, r4, r5, r6, r7, lr}
 2518              		.cfi_def_cfa_offset 24
 2519              		.cfi_offset 3, -24
 2520              		.cfi_offset 4, -20
 2521              		.cfi_offset 5, -16
 2522              		.cfi_offset 6, -12
 2523              		.cfi_offset 7, -8
 2524              		.cfi_offset 14, -4
 2525 0002 4F46     		mov	r7, r9
 2526 0004 4646     		mov	r6, r8
 2527 0006 C0B4     		push	{r6, r7}
 2528              		.cfi_def_cfa_offset 32
 2529              		.cfi_offset 8, -32
 2530              		.cfi_offset 9, -28
 2531 0008 0400     		movs	r4, r0
 2532 000a 0E00     		movs	r6, r1
ARM GAS  C:\Users\CCPOW_~1\AppData\Local\Temp\cccTFFy7.s 			page 64


 2533 000c 1500     		movs	r5, r2
 2534 000e 9846     		mov	r8, r3
 2535              	.LVL344:
  39:libhydrogen\impl/secretbox.h ****         mem_xor2(&out[i * gimli_RATE], &in[i * gimli_RATE], buf, gimli_RATE);
 2536              		.loc 3 39 0
 2537 0010 0023     		movs	r3, #0
 2538              	.LVL345:
 2539 0012 9946     		mov	r9, r3
 2540 0014 17E0     		b	.L111
 2541              	.LVL346:
 2542              	.L114:
  40:libhydrogen\impl/secretbox.h ****         memcpy(buf, &in[i * gimli_RATE], gimli_RATE);
 2543              		.loc 3 40 0 discriminator 3
 2544 0016 4B46     		mov	r3, r9
 2545 0018 1F01     		lsls	r7, r3, #4
 2546              	.LVL347:
 2547              	.LBB274:
 2548              	.LBB275:
 311:libhydrogen\impl/common.h ****         dst[i] = src1[i] ^ src2[i];
 2549              		.loc 4 311 0 discriminator 3
 2550 001a 0023     		movs	r3, #0
 2551 001c 05E0     		b	.L112
 2552              	.LVL348:
 2553              	.L113:
 2554 001e F818     		adds	r0, r7, r3
 2555              		.loc 4 312 0
 2556 0020 295C     		ldrb	r1, [r5, r0]
 2557 0022 E25C     		ldrb	r2, [r4, r3]
 2558 0024 4A40     		eors	r2, r1
 2559 0026 3254     		strb	r2, [r6, r0]
 311:libhydrogen\impl/common.h ****         dst[i] = src1[i] ^ src2[i];
 2560              		.loc 4 311 0
 2561 0028 0133     		adds	r3, r3, #1
 2562              	.LVL349:
 2563              	.L112:
 2564 002a 0F2B     		cmp	r3, #15
 2565 002c F7D9     		bls	.L113
 2566              	.LVL350:
 2567              	.LBE275:
 2568              	.LBE274:
  41:libhydrogen\impl/secretbox.h ****         gimli_core_u8(buf, gimli_TAG_PAYLOAD);
 2569              		.loc 3 41 0 discriminator 3
 2570 002e E919     		adds	r1, r5, r7
 2571 0030 1022     		movs	r2, #16
 2572 0032 2000     		movs	r0, r4
 2573 0034 FFF7FEFF 		bl	memcpy
 2574              	.LVL351:
  42:libhydrogen\impl/secretbox.h ****     }
 2575              		.loc 3 42 0 discriminator 3
 2576 0038 0221     		movs	r1, #2
 2577 003a 2000     		movs	r0, r4
 2578 003c FFF7FEFF 		bl	gimli_core_u8
 2579              	.LVL352:
  39:libhydrogen\impl/secretbox.h ****         mem_xor2(&out[i * gimli_RATE], &in[i * gimli_RATE], buf, gimli_RATE);
 2580              		.loc 3 39 0 discriminator 3
 2581 0040 0123     		movs	r3, #1
 2582 0042 9C46     		mov	ip, r3
ARM GAS  C:\Users\CCPOW_~1\AppData\Local\Temp\cccTFFy7.s 			page 65


 2583 0044 E144     		add	r9, r9, ip
 2584              	.LVL353:
 2585              	.L111:
  39:libhydrogen\impl/secretbox.h ****         mem_xor2(&out[i * gimli_RATE], &in[i * gimli_RATE], buf, gimli_RATE);
 2586              		.loc 3 39 0 is_stmt 0 discriminator 1
 2587 0046 4346     		mov	r3, r8
 2588 0048 1B09     		lsrs	r3, r3, #4
 2589 004a 9945     		cmp	r9, r3
 2590 004c E3D3     		bcc	.L114
  44:libhydrogen\impl/secretbox.h ****     if (leftover != 0) {
 2591              		.loc 3 44 0 is_stmt 1
 2592 004e 0F21     		movs	r1, #15
 2593 0050 4346     		mov	r3, r8
 2594 0052 1940     		ands	r1, r3
 2595              	.LVL354:
  45:libhydrogen\impl/secretbox.h ****         mem_xor2(&out[i * gimli_RATE], &in[i * gimli_RATE], buf, leftover);
 2596              		.loc 3 45 0
 2597 0054 18D0     		beq	.L115
 2598              	.LVL355:
  46:libhydrogen\impl/secretbox.h ****         mem_cpy(buf, &in[i * gimli_RATE], leftover);
 2599              		.loc 3 46 0
 2600 0056 4B46     		mov	r3, r9
 2601              	.LVL356:
 2602 0058 1B01     		lsls	r3, r3, #4
 2603 005a 9846     		mov	r8, r3
 2604              	.LVL357:
 2605              	.LBB276:
 2606              	.LBB277:
 311:libhydrogen\impl/common.h ****         dst[i] = src1[i] ^ src2[i];
 2607              		.loc 4 311 0
 2608 005c 0023     		movs	r3, #0
 2609              	.LVL358:
 2610 005e 08E0     		b	.L116
 2611              	.LVL359:
 2612              	.L117:
 2613 0060 4246     		mov	r2, r8
 2614 0062 D018     		adds	r0, r2, r3
 2615              		.loc 4 312 0
 2616 0064 2A5C     		ldrb	r2, [r5, r0]
 2617 0066 9446     		mov	ip, r2
 2618 0068 E25C     		ldrb	r2, [r4, r3]
 2619 006a 6746     		mov	r7, ip
 2620 006c 7A40     		eors	r2, r7
 2621 006e 3254     		strb	r2, [r6, r0]
 311:libhydrogen\impl/common.h ****         dst[i] = src1[i] ^ src2[i];
 2622              		.loc 4 311 0
 2623 0070 0133     		adds	r3, r3, #1
 2624              	.LVL360:
 2625              	.L116:
 2626 0072 9942     		cmp	r1, r3
 2627 0074 F4D8     		bhi	.L117
 2628 0076 0023     		movs	r3, #0
 2629              	.LVL361:
 2630 0078 04E0     		b	.L118
 2631              	.LVL362:
 2632              	.L119:
 2633              	.LBE277:
ARM GAS  C:\Users\CCPOW_~1\AppData\Local\Temp\cccTFFy7.s 			page 66


 2634              	.LBE276:
 2635              	.LBB278:
 2636              	.LBB279:
 275:libhydrogen\impl/common.h ****     }
 2637              		.loc 4 275 0
 2638 007a EA18     		adds	r2, r5, r3
 2639 007c 4046     		mov	r0, r8
 2640 007e 125C     		ldrb	r2, [r2, r0]
 2641 0080 E254     		strb	r2, [r4, r3]
 274:libhydrogen\impl/common.h ****         dst[i] = src[i];
 2642              		.loc 4 274 0
 2643 0082 0133     		adds	r3, r3, #1
 2644              	.LVL363:
 2645              	.L118:
 2646 0084 8B42     		cmp	r3, r1
 2647 0086 F8D3     		bcc	.L119
 2648              	.LVL364:
 2649              	.L115:
 2650              	.LBE279:
 2651              	.LBE278:
 2652              	.LBB280:
 2653              	.LBB281:
  24:libhydrogen\impl/hydrogen_p.h ****     buf[gimli_RATE - 1] ^= 0x80;
 2654              		.loc 7 24 0
 2655 0088 6118     		adds	r1, r4, r1
 2656              	.LVL365:
 2657 008a 0A78     		ldrb	r2, [r1]
 2658 008c 0123     		movs	r3, #1
 2659 008e 5340     		eors	r3, r2
 2660 0090 0B70     		strb	r3, [r1]
 2661              		.loc 7 25 0
 2662 0092 E37B     		ldrb	r3, [r4, #15]
 2663 0094 8022     		movs	r2, #128
 2664 0096 5242     		rsbs	r2, r2, #0
 2665 0098 5340     		eors	r3, r2
 2666 009a E373     		strb	r3, [r4, #15]
 2667              	.LVL366:
 2668              	.LBE281:
 2669              	.LBE280:
  50:libhydrogen\impl/secretbox.h **** }
 2670              		.loc 3 50 0
 2671 009c 0221     		movs	r1, #2
 2672 009e 2000     		movs	r0, r4
 2673 00a0 FFF7FEFF 		bl	gimli_core_u8
 2674              	.LVL367:
  51:libhydrogen\impl/secretbox.h **** 
 2675              		.loc 3 51 0
 2676              		@ sp needed
 2677              	.LVL368:
 2678              	.LVL369:
 2679              	.LVL370:
 2680              	.LVL371:
 2681 00a4 0CBC     		pop	{r2, r3}
 2682 00a6 9046     		mov	r8, r2
 2683 00a8 9946     		mov	r9, r3
 2684 00aa F8BD     		pop	{r3, r4, r5, r6, r7, pc}
 2685              		.cfi_endproc
ARM GAS  C:\Users\CCPOW_~1\AppData\Local\Temp\cccTFFy7.s 			page 67


 2686              	.LFE49:
 2687              		.size	hydro_secretbox_xor_dec, .-hydro_secretbox_xor_dec
 2688              		.section	.text.hydro_x25519_swapin,"ax",%progbits
 2689              		.align	2
 2690              		.code	16
 2691              		.thumb_func
 2692              		.type	hydro_x25519_swapin, %function
 2693              	hydro_x25519_swapin:
 2694              	.LFB63:
 120:libhydrogen\impl/x25519.h ****     int i;
 2695              		.loc 5 120 0
 2696              		.cfi_startproc
 2697              		@ args = 0, pretend = 0, frame = 8
 2698              		@ frame_needed = 0, uses_anonymous_args = 0
 2699              	.LVL372:
 2700 0000 70B5     		push	{r4, r5, r6, lr}
 2701              		.cfi_def_cfa_offset 16
 2702              		.cfi_offset 4, -16
 2703              		.cfi_offset 5, -12
 2704              		.cfi_offset 6, -8
 2705              		.cfi_offset 14, -4
 2706 0002 82B0     		sub	sp, sp, #8
 2707              		.cfi_def_cfa_offset 24
 2708 0004 0600     		movs	r6, r0
 123:libhydrogen\impl/x25519.h ****     for (i = 0; i < hydro_x25519_NLIMBS; i++) {
 2709              		.loc 5 123 0
 2710 0006 2022     		movs	r2, #32
 2711 0008 FFF7FEFF 		bl	memcpy
 2712              	.LVL373:
 124:libhydrogen\impl/x25519.h ****         x[i] = hydro_x25519_eswap_limb(x[i]);
 2713              		.loc 5 124 0
 2714 000c 0025     		movs	r5, #0
 2715 000e 09E0     		b	.L121
 2716              	.LVL374:
 2717              	.L122:
 125:libhydrogen\impl/x25519.h ****     }
 2718              		.loc 5 125 0 discriminator 3
 2719 0010 AC00     		lsls	r4, r5, #2
 2720 0012 3419     		adds	r4, r6, r4
 2721              	.LVL375:
 2722              	.LBB282:
 2723              	.LBB283:
 101:libhydrogen\impl/common.h ****     return w;
 2724              		.loc 4 101 0 discriminator 3
 2725 0014 0422     		movs	r2, #4
 2726 0016 2100     		movs	r1, r4
 2727 0018 01A8     		add	r0, sp, #4
 2728 001a FFF7FEFF 		bl	memcpy
 2729              	.LVL376:
 2730              	.LBE283:
 2731              	.LBE282:
 125:libhydrogen\impl/x25519.h ****     }
 2732              		.loc 5 125 0 discriminator 3
 2733 001e 019B     		ldr	r3, [sp, #4]
 2734 0020 2360     		str	r3, [r4]
 124:libhydrogen\impl/x25519.h ****         x[i] = hydro_x25519_eswap_limb(x[i]);
 2735              		.loc 5 124 0 discriminator 3
ARM GAS  C:\Users\CCPOW_~1\AppData\Local\Temp\cccTFFy7.s 			page 68


 2736 0022 0135     		adds	r5, r5, #1
 2737              	.LVL377:
 2738              	.L121:
 124:libhydrogen\impl/x25519.h ****         x[i] = hydro_x25519_eswap_limb(x[i]);
 2739              		.loc 5 124 0 is_stmt 0 discriminator 1
 2740 0024 072D     		cmp	r5, #7
 2741 0026 F3DD     		ble	.L122
 127:libhydrogen\impl/x25519.h **** 
 2742              		.loc 5 127 0 is_stmt 1
 2743 0028 02B0     		add	sp, sp, #8
 2744              		@ sp needed
 2745              	.LVL378:
 2746              	.LVL379:
 2747 002a 70BD     		pop	{r4, r5, r6, pc}
 2748              		.cfi_endproc
 2749              	.LFE63:
 2750              		.size	hydro_x25519_swapin, .-hydro_x25519_swapin
 2751              		.section	.text.hydro_x25519_core,"ax",%progbits
 2752              		.align	2
 2753              		.code	16
 2754              		.thumb_func
 2755              		.type	hydro_x25519_core, %function
 2756              	hydro_x25519_core:
 2757              	.LFB73:
 253:libhydrogen\impl/x25519.h ****     hydro_x25519_limb_t  swap;
 2758              		.loc 5 253 0
 2759              		.cfi_startproc
 2760              		@ args = 0, pretend = 0, frame = 72
 2761              		@ frame_needed = 0, uses_anonymous_args = 0
 2762              	.LVL380:
 2763 0000 F0B5     		push	{r4, r5, r6, r7, lr}
 2764              		.cfi_def_cfa_offset 20
 2765              		.cfi_offset 4, -20
 2766              		.cfi_offset 5, -16
 2767              		.cfi_offset 6, -12
 2768              		.cfi_offset 7, -8
 2769              		.cfi_offset 14, -4
 2770 0002 4F46     		mov	r7, r9
 2771 0004 80B4     		push	{r7}
 2772              		.cfi_def_cfa_offset 24
 2773              		.cfi_offset 9, -24
 2774 0006 92B0     		sub	sp, sp, #72
 2775              		.cfi_def_cfa_offset 96
 2776 0008 0500     		movs	r5, r0
 2777 000a 0E00     		movs	r6, r1
 2778 000c 9946     		mov	r9, r3
 2779              	.LVL381:
 255:libhydrogen\impl/x25519.h ****     hydro_x25519_fe      x1i;
 2780              		.loc 5 255 0
 2781 000e 4023     		movs	r3, #64
 2782              	.LVL382:
 2783 0010 9C46     		mov	ip, r3
 2784 0012 8444     		add	ip, ip, r0
 2785 0014 6346     		mov	r3, ip
 2786 0016 0193     		str	r3, [sp, #4]
 2787              	.LVL383:
 259:libhydrogen\impl/x25519.h ****     x1   = (const uint8_t *) x1i;
ARM GAS  C:\Users\CCPOW_~1\AppData\Local\Temp\cccTFFy7.s 			page 69


 2788              		.loc 5 259 0
 2789 0018 1100     		movs	r1, r2
 2790              	.LVL384:
 2791 001a 0AA8     		add	r0, sp, #40
 2792              	.LVL385:
 2793 001c FFF7FEFF 		bl	hydro_x25519_swapin
 2794              	.LVL386:
 2795              	.LBB284:
 2796              	.LBB285:
 285:libhydrogen\impl/common.h ****         dst[i] = 0;
 2797              		.loc 4 285 0
 2798 0020 0023     		movs	r3, #0
 2799 0022 03E0     		b	.L124
 2800              	.LVL387:
 2801              	.L125:
 286:libhydrogen\impl/common.h ****     }
 2802              		.loc 4 286 0
 2803 0024 EA18     		adds	r2, r5, r3
 2804 0026 0021     		movs	r1, #0
 2805 0028 1170     		strb	r1, [r2]
 285:libhydrogen\impl/common.h ****         dst[i] = 0;
 2806              		.loc 4 285 0
 2807 002a 0133     		adds	r3, r3, #1
 2808              	.LVL388:
 2809              	.L124:
 2810 002c 7F2B     		cmp	r3, #127
 2811 002e F9D9     		bls	.L125
 2812              	.LVL389:
 2813              	.LBE285:
 2814              	.LBE284:
 263:libhydrogen\impl/x25519.h ****     memcpy(x3, x1, sizeof(hydro_x25519_fe));
 2815              		.loc 5 263 0
 2816 0030 0123     		movs	r3, #1
 2817 0032 2B66     		str	r3, [r5, #96]
 2818 0034 2B60     		str	r3, [r5]
 264:libhydrogen\impl/x25519.h ****     for (i = 255; i >= 0; i--) {
 2819              		.loc 5 264 0
 2820 0036 2022     		movs	r2, #32
 2821 0038 0AA9     		add	r1, sp, #40
 2822              	.LVL390:
 2823 003a 0198     		ldr	r0, [sp, #4]
 2824 003c FFF7FEFF 		bl	memcpy
 2825              	.LVL391:
 265:libhydrogen\impl/x25519.h ****         uint8_t             bytei = scalar[i / 8];
 2826              		.loc 5 265 0
 2827 0040 FF27     		movs	r7, #255
 261:libhydrogen\impl/x25519.h ****     mem_zero(xs, 4 * sizeof(hydro_x25519_fe));
 2828              		.loc 5 261 0
 2829 0042 0022     		movs	r2, #0
 265:libhydrogen\impl/x25519.h ****         uint8_t             bytei = scalar[i / 8];
 2830              		.loc 5 265 0
 2831 0044 34E0     		b	.L126
 2832              	.LVL392:
 2833              	.L129:
 2834              	.LBB286:
 266:libhydrogen\impl/x25519.h ****         hydro_x25519_limb_t doswap;
 2835              		.loc 5 266 0
ARM GAS  C:\Users\CCPOW_~1\AppData\Local\Temp\cccTFFy7.s 			page 70


 2836 0046 FB17     		asrs	r3, r7, #31
 2837 0048 0721     		movs	r1, #7
 2838 004a 0B40     		ands	r3, r1
 2839 004c DB19     		adds	r3, r3, r7
 2840 004e DB10     		asrs	r3, r3, #3
 2841 0050 F35C     		ldrb	r3, [r6, r3]
 2842              	.LVL393:
 270:libhydrogen\impl/x25519.h ****             if (i / 8 == 0) {
 2843              		.loc 5 270 0
 2844 0052 4946     		mov	r1, r9
 2845 0054 0029     		cmp	r1, #0
 2846 0056 0ED0     		beq	.L127
 271:libhydrogen\impl/x25519.h ****                 bytei &= ~7;
 2847              		.loc 5 271 0
 2848 0058 F91D     		adds	r1, r7, #7
 2849 005a 0E29     		cmp	r1, #14
 2850 005c 02D8     		bhi	.L128
 272:libhydrogen\impl/x25519.h ****             } else if (i / 8 == hydro_x25519_BYTES - 1) {
 2851              		.loc 5 272 0
 2852 005e 0721     		movs	r1, #7
 2853 0060 8B43     		bics	r3, r1
 2854              	.LVL394:
 2855 0062 08E0     		b	.L127
 2856              	.L128:
 273:libhydrogen\impl/x25519.h ****                 bytei &= 0x7F;
 2857              		.loc 5 273 0
 2858 0064 3900     		movs	r1, r7
 2859 0066 F839     		subs	r1, r1, #248
 2860 0068 0729     		cmp	r1, #7
 2861 006a 04D8     		bhi	.L127
 274:libhydrogen\impl/x25519.h ****                 bytei |= 0x40;
 2862              		.loc 5 274 0
 2863 006c 7F21     		movs	r1, #127
 2864 006e 0B40     		ands	r3, r1
 2865              	.LVL395:
 275:libhydrogen\impl/x25519.h ****             }
 2866              		.loc 5 275 0
 2867 0070 4021     		movs	r1, #64
 2868 0072 0B43     		orrs	r3, r1
 2869              	.LVL396:
 2870 0074 DBB2     		uxtb	r3, r3
 2871              	.LVL397:
 2872              	.L127:
 278:libhydrogen\impl/x25519.h ****         hydro_x25519_condswap(x2, x3, swap ^ doswap);
 2873              		.loc 5 278 0 discriminator 2
 2874 0076 F917     		asrs	r1, r7, #31
 2875 0078 4C0F     		lsrs	r4, r1, #29
 2876 007a 3819     		adds	r0, r7, r4
 2877 007c 0721     		movs	r1, #7
 2878 007e 0140     		ands	r1, r0
 2879 0080 091B     		subs	r1, r1, r4
 2880 0082 0B41     		asrs	r3, r3, r1
 2881              	.LVL398:
 2882 0084 0124     		movs	r4, #1
 2883 0086 2340     		ands	r3, r4
 2884 0088 5C42     		rsbs	r4, r3, #0
 2885              	.LVL399:
ARM GAS  C:\Users\CCPOW_~1\AppData\Local\Temp\cccTFFy7.s 			page 71


 279:libhydrogen\impl/x25519.h ****         swap = doswap;
 2886              		.loc 5 279 0 discriminator 2
 2887 008a 6240     		eors	r2, r4
 2888              	.LVL400:
 2889 008c 0199     		ldr	r1, [sp, #4]
 2890 008e 2800     		movs	r0, r5
 2891 0090 FFF7FEFF 		bl	hydro_x25519_condswap
 2892              	.LVL401:
 281:libhydrogen\impl/x25519.h ****         memcpy(x1_dup, x1, sizeof x1_dup);
 2893              		.loc 5 281 0 discriminator 2
 2894 0094 2800     		movs	r0, r5
 2895 0096 FFF7FEFF 		bl	hydro_x25519_ladder_part1
 2896              	.LVL402:
 282:libhydrogen\impl/x25519.h ****         hydro_x25519_ladder_part2(xs, x1_dup);
 2897              		.loc 5 282 0 discriminator 2
 2898 009a 2022     		movs	r2, #32
 2899 009c 0AA9     		add	r1, sp, #40
 2900              	.LVL403:
 2901 009e 02A8     		add	r0, sp, #8
 2902 00a0 FFF7FEFF 		bl	memcpy
 2903              	.LVL404:
 283:libhydrogen\impl/x25519.h ****     }
 2904              		.loc 5 283 0 discriminator 2
 2905 00a4 02A9     		add	r1, sp, #8
 2906 00a6 2800     		movs	r0, r5
 2907 00a8 FFF7FEFF 		bl	hydro_x25519_ladder_part2
 2908              	.LVL405:
 2909              	.LBE286:
 265:libhydrogen\impl/x25519.h ****         uint8_t             bytei = scalar[i / 8];
 2910              		.loc 5 265 0 discriminator 2
 2911 00ac 013F     		subs	r7, r7, #1
 2912              	.LVL406:
 2913              	.LBB287:
 280:libhydrogen\impl/x25519.h ****         hydro_x25519_ladder_part1(xs);
 2914              		.loc 5 280 0 discriminator 2
 2915 00ae 2200     		movs	r2, r4
 2916              	.LVL407:
 2917              	.L126:
 2918              	.LBE287:
 265:libhydrogen\impl/x25519.h ****         uint8_t             bytei = scalar[i / 8];
 2919              		.loc 5 265 0 discriminator 1
 2920 00b0 002F     		cmp	r7, #0
 2921 00b2 C8DA     		bge	.L129
 285:libhydrogen\impl/x25519.h **** }
 2922              		.loc 5 285 0
 2923 00b4 0199     		ldr	r1, [sp, #4]
 2924 00b6 2800     		movs	r0, r5
 2925 00b8 FFF7FEFF 		bl	hydro_x25519_condswap
 2926              	.LVL408:
 286:libhydrogen\impl/x25519.h **** 
 2927              		.loc 5 286 0
 2928 00bc 12B0     		add	sp, sp, #72
 2929              		@ sp needed
 2930              	.LVL409:
 2931              	.LVL410:
 2932              	.LVL411:
 2933 00be 04BC     		pop	{r2}
ARM GAS  C:\Users\CCPOW_~1\AppData\Local\Temp\cccTFFy7.s 			page 72


 2934 00c0 9146     		mov	r9, r2
 2935 00c2 F0BD     		pop	{r4, r5, r6, r7, pc}
 2936              		.cfi_endproc
 2937              	.LFE73:
 2938              		.size	hydro_x25519_core, .-hydro_x25519_core
 2939              		.section	.text.hydro_x25519_swapout,"ax",%progbits
 2940              		.align	2
 2941              		.code	16
 2942              		.thumb_func
 2943              		.type	hydro_x25519_swapout, %function
 2944              	hydro_x25519_swapout:
 2945              	.LFB64:
 131:libhydrogen\impl/x25519.h ****     int i;
 2946              		.loc 5 131 0
 2947              		.cfi_startproc
 2948              		@ args = 0, pretend = 0, frame = 8
 2949              		@ frame_needed = 0, uses_anonymous_args = 0
 2950              	.LVL412:
 2951 0000 F0B5     		push	{r4, r5, r6, r7, lr}
 2952              		.cfi_def_cfa_offset 20
 2953              		.cfi_offset 4, -20
 2954              		.cfi_offset 5, -16
 2955              		.cfi_offset 6, -12
 2956              		.cfi_offset 7, -8
 2957              		.cfi_offset 14, -4
 2958 0002 83B0     		sub	sp, sp, #12
 2959              		.cfi_def_cfa_offset 32
 2960 0004 0600     		movs	r6, r0
 2961 0006 0F00     		movs	r7, r1
 2962              	.LVL413:
 134:libhydrogen\impl/x25519.h ****         x[i] = hydro_x25519_eswap_limb(x[i]);
 2963              		.loc 5 134 0
 2964 0008 0025     		movs	r5, #0
 2965 000a 09E0     		b	.L131
 2966              	.LVL414:
 2967              	.L132:
 135:libhydrogen\impl/x25519.h ****     }
 2968              		.loc 5 135 0 discriminator 3
 2969 000c AC00     		lsls	r4, r5, #2
 2970 000e 3C19     		adds	r4, r7, r4
 2971              	.LVL415:
 2972              	.LBB288:
 2973              	.LBB289:
 101:libhydrogen\impl/common.h ****     return w;
 2974              		.loc 4 101 0 discriminator 3
 2975 0010 0422     		movs	r2, #4
 2976 0012 2100     		movs	r1, r4
 2977 0014 01A8     		add	r0, sp, #4
 2978 0016 FFF7FEFF 		bl	memcpy
 2979              	.LVL416:
 2980              	.LBE289:
 2981              	.LBE288:
 135:libhydrogen\impl/x25519.h ****     }
 2982              		.loc 5 135 0 discriminator 3
 2983 001a 019B     		ldr	r3, [sp, #4]
 2984 001c 2360     		str	r3, [r4]
 134:libhydrogen\impl/x25519.h ****         x[i] = hydro_x25519_eswap_limb(x[i]);
ARM GAS  C:\Users\CCPOW_~1\AppData\Local\Temp\cccTFFy7.s 			page 73


 2985              		.loc 5 134 0 discriminator 3
 2986 001e 0135     		adds	r5, r5, #1
 2987              	.LVL417:
 2988              	.L131:
 134:libhydrogen\impl/x25519.h ****         x[i] = hydro_x25519_eswap_limb(x[i]);
 2989              		.loc 5 134 0 is_stmt 0 discriminator 1
 2990 0020 072D     		cmp	r5, #7
 2991 0022 F3DD     		ble	.L132
 137:libhydrogen\impl/x25519.h **** }
 2992              		.loc 5 137 0 is_stmt 1
 2993 0024 2022     		movs	r2, #32
 2994 0026 3900     		movs	r1, r7
 2995 0028 3000     		movs	r0, r6
 2996 002a FFF7FEFF 		bl	memcpy
 2997              	.LVL418:
 138:libhydrogen\impl/x25519.h **** 
 2998              		.loc 5 138 0
 2999 002e 03B0     		add	sp, sp, #12
 3000              		@ sp needed
 3001              	.LVL419:
 3002              	.LVL420:
 3003              	.LVL421:
 3004 0030 F0BD     		pop	{r4, r5, r6, r7, pc}
 3005              		.cfi_endproc
 3006              	.LFE64:
 3007              		.size	hydro_x25519_swapout, .-hydro_x25519_swapout
 3008 0032 C046     		.section	.text.hydro_x25519_scalarmult,"ax",%progbits
 3009              		.align	2
 3010              		.code	16
 3011              		.thumb_func
 3012              		.type	hydro_x25519_scalarmult, %function
 3013              	hydro_x25519_scalarmult:
 3014              	.LFB74:
 291:libhydrogen\impl/x25519.h ****     hydro_x25519_fe      xs[5];
 3015              		.loc 5 291 0
 3016              		.cfi_startproc
 3017              		@ args = 0, pretend = 0, frame = 160
 3018              		@ frame_needed = 0, uses_anonymous_args = 0
 3019              	.LVL422:
 3020 0000 70B5     		push	{r4, r5, r6, lr}
 3021              		.cfi_def_cfa_offset 16
 3022              		.cfi_offset 4, -16
 3023              		.cfi_offset 5, -12
 3024              		.cfi_offset 6, -8
 3025              		.cfi_offset 14, -4
 3026 0002 A8B0     		sub	sp, sp, #160
 3027              		.cfi_def_cfa_offset 176
 3028 0004 0600     		movs	r6, r0
 3029 0006 1D00     		movs	r5, r3
 298:libhydrogen\impl/x25519.h **** 
 3030              		.loc 5 298 0
 3031 0008 6846     		mov	r0, sp
 3032              	.LVL423:
 3033 000a FFF7FEFF 		bl	hydro_x25519_core
 3034              	.LVL424:
 307:libhydrogen\impl/x25519.h ****         hydro_x25519_sqr(z3, prev);
 3035              		.loc 5 307 0
ARM GAS  C:\Users\CCPOW_~1\AppData\Local\Temp\cccTFFy7.s 			page 74


 3036 000e FD24     		movs	r4, #253
 304:libhydrogen\impl/x25519.h **** 
 3037              		.loc 5 304 0
 3038 0010 08A9     		add	r1, sp, #32
 3039              	.LVL425:
 307:libhydrogen\impl/x25519.h ****         hydro_x25519_sqr(z3, prev);
 3040              		.loc 5 307 0
 3041 0012 0EE0     		b	.L134
 3042              	.LVL426:
 3043              	.L137:
 308:libhydrogen\impl/x25519.h ****         prev = z3;
 3044              		.loc 5 308 0
 3045 0014 18A8     		add	r0, sp, #96
 3046              	.LVL427:
 3047 0016 FFF7FEFF 		bl	hydro_x25519_sqr
 3048              	.LVL428:
 310:libhydrogen\impl/x25519.h ****             hydro_x25519_mul1(z3, z2);
 3049              		.loc 5 310 0
 3050 001a 072C     		cmp	r4, #7
 3051 001c 03DC     		bgt	.L135
 310:libhydrogen\impl/x25519.h ****             hydro_x25519_mul1(z3, z2);
 3052              		.loc 5 310 0 is_stmt 0 discriminator 1
 3053 001e EB23     		movs	r3, #235
 3054 0020 2341     		asrs	r3, r3, r4
 3055 0022 DB07     		lsls	r3, r3, #31
 3056 0024 03D5     		bpl	.L136
 3057              	.L135:
 311:libhydrogen\impl/x25519.h ****         }
 3058              		.loc 5 311 0 is_stmt 1
 3059 0026 08A9     		add	r1, sp, #32
 3060              	.LVL429:
 3061 0028 18A8     		add	r0, sp, #96
 3062              	.LVL430:
 3063 002a FFF7FEFF 		bl	hydro_x25519_mul1
 3064              	.LVL431:
 3065              	.L136:
 307:libhydrogen\impl/x25519.h ****         hydro_x25519_sqr(z3, prev);
 3066              		.loc 5 307 0 discriminator 2
 3067 002e 013C     		subs	r4, r4, #1
 3068              	.LVL432:
 309:libhydrogen\impl/x25519.h ****         if (i >= 8 || (0xeb >> i & 1)) {
 3069              		.loc 5 309 0 discriminator 2
 3070 0030 18A9     		add	r1, sp, #96
 3071              	.LVL433:
 3072              	.L134:
 307:libhydrogen\impl/x25519.h ****         hydro_x25519_sqr(z3, prev);
 3073              		.loc 5 307 0 discriminator 1
 3074 0032 002C     		cmp	r4, #0
 3075 0034 EEDA     		bge	.L137
 317:libhydrogen\impl/x25519.h ****     ret = hydro_x25519_canon(x2);
 3076              		.loc 5 317 0
 3077 0036 18A9     		add	r1, sp, #96
 3078              	.LVL434:
 3079 0038 6846     		mov	r0, sp
 3080 003a FFF7FEFF 		bl	hydro_x25519_mul1
 3081              	.LVL435:
 318:libhydrogen\impl/x25519.h ****     hydro_x25519_swapout(out, x2);
ARM GAS  C:\Users\CCPOW_~1\AppData\Local\Temp\cccTFFy7.s 			page 75


 3082              		.loc 5 318 0
 3083 003e 6846     		mov	r0, sp
 3084 0040 FFF7FEFF 		bl	hydro_x25519_canon
 3085              	.LVL436:
 3086 0044 0400     		movs	r4, r0
 3087              	.LVL437:
 319:libhydrogen\impl/x25519.h **** 
 3088              		.loc 5 319 0
 3089 0046 6946     		mov	r1, sp
 3090 0048 3000     		movs	r0, r6
 3091              	.LVL438:
 3092 004a FFF7FEFF 		bl	hydro_x25519_swapout
 3093              	.LVL439:
 321:libhydrogen\impl/x25519.h ****         return 0;
 3094              		.loc 5 321 0
 3095 004e 002D     		cmp	r5, #0
 3096 0050 01D1     		bne	.L139
 322:libhydrogen\impl/x25519.h ****     }
 3097              		.loc 5 322 0
 3098 0052 0020     		movs	r0, #0
 3099 0054 00E0     		b	.L138
 3100              	.L139:
 324:libhydrogen\impl/x25519.h **** }
 3101              		.loc 5 324 0
 3102 0056 2000     		movs	r0, r4
 3103              	.L138:
 325:libhydrogen\impl/x25519.h **** 
 3104              		.loc 5 325 0
 3105 0058 28B0     		add	sp, sp, #160
 3106              	.LVL440:
 3107              		@ sp needed
 3108              	.LVL441:
 3109              	.LVL442:
 3110 005a 70BD     		pop	{r4, r5, r6, pc}
 3111              		.cfi_endproc
 3112              	.LFE74:
 3113              		.size	hydro_x25519_scalarmult, .-hydro_x25519_scalarmult
 3114              		.section	.text.hydro_sign_p2,"ax",%progbits
 3115              		.align	2
 3116              		.code	16
 3117              		.thumb_func
 3118              		.type	hydro_sign_p2, %function
 3119              	hydro_sign_p2:
 3120              	.LFB106:
 3121              		.file 8 "libhydrogen\\impl/sign.h"
   1:libhydrogen\impl/sign.h **** #define hydro_sign_CHALLENGEBYTES 32
   2:libhydrogen\impl/sign.h **** #define hydro_sign_NONCEBYTES 32
   3:libhydrogen\impl/sign.h **** #define hydro_sign_PREHASHBYTES 64
   4:libhydrogen\impl/sign.h **** 
   5:libhydrogen\impl/sign.h **** static void
   6:libhydrogen\impl/sign.h **** hydro_sign_p2(uint8_t sig[hydro_x25519_BYTES], const uint8_t challenge[hydro_sign_CHALLENGEBYTES],
   7:libhydrogen\impl/sign.h ****               const uint8_t eph_sk[hydro_x25519_BYTES], const uint8_t sk[hydro_x25519_BYTES])
   8:libhydrogen\impl/sign.h **** {
 3122              		.loc 8 8 0
 3123              		.cfi_startproc
 3124              		@ args = 0, pretend = 0, frame = 96
 3125              		@ frame_needed = 0, uses_anonymous_args = 0
ARM GAS  C:\Users\CCPOW_~1\AppData\Local\Temp\cccTFFy7.s 			page 76


 3126              	.LVL443:
 3127 0000 70B5     		push	{r4, r5, r6, lr}
 3128              		.cfi_def_cfa_offset 16
 3129              		.cfi_offset 4, -16
 3130              		.cfi_offset 5, -12
 3131              		.cfi_offset 6, -8
 3132              		.cfi_offset 14, -4
 3133 0002 98B0     		sub	sp, sp, #96
 3134              		.cfi_def_cfa_offset 112
 3135 0004 0400     		movs	r4, r0
 3136 0006 0D00     		movs	r5, r1
 3137 0008 1E00     		movs	r6, r3
   9:libhydrogen\impl/sign.h ****     hydro_x25519_scalar_t scalar1, scalar2, scalar3;
  10:libhydrogen\impl/sign.h **** 
  11:libhydrogen\impl/sign.h ****     COMPILER_ASSERT(hydro_sign_CHALLENGEBYTES == hydro_x25519_BYTES);
  12:libhydrogen\impl/sign.h ****     hydro_x25519_swapin(scalar1, eph_sk);
 3138              		.loc 8 12 0
 3139 000a 1100     		movs	r1, r2
 3140              	.LVL444:
 3141 000c 10A8     		add	r0, sp, #64
 3142              	.LVL445:
 3143 000e FFF7FEFF 		bl	hydro_x25519_swapin
 3144              	.LVL446:
  13:libhydrogen\impl/sign.h ****     hydro_x25519_swapin(scalar2, sk);
 3145              		.loc 8 13 0
 3146 0012 3100     		movs	r1, r6
 3147 0014 08A8     		add	r0, sp, #32
 3148 0016 FFF7FEFF 		bl	hydro_x25519_swapin
 3149              	.LVL447:
  14:libhydrogen\impl/sign.h ****     hydro_x25519_swapin(scalar3, challenge);
 3150              		.loc 8 14 0
 3151 001a 2900     		movs	r1, r5
 3152 001c 6846     		mov	r0, sp
 3153 001e FFF7FEFF 		bl	hydro_x25519_swapin
 3154              	.LVL448:
  15:libhydrogen\impl/sign.h ****     hydro_x25519_sc_montmul(scalar1, scalar2, scalar3);
 3155              		.loc 8 15 0
 3156 0022 6A46     		mov	r2, sp
 3157 0024 08A9     		add	r1, sp, #32
 3158 0026 10A8     		add	r0, sp, #64
 3159 0028 FFF7FEFF 		bl	hydro_x25519_sc_montmul
 3160              	.LVL449:
 3161              	.LBB290:
 3162              	.LBB291:
 285:libhydrogen\impl/common.h ****         dst[i] = 0;
 3163              		.loc 4 285 0
 3164 002c 0023     		movs	r3, #0
 3165 002e 04E0     		b	.L141
 3166              	.LVL450:
 3167              	.L142:
 286:libhydrogen\impl/common.h ****     }
 3168              		.loc 4 286 0
 3169 0030 08AA     		add	r2, sp, #32
 3170              	.LVL451:
 3171 0032 D218     		adds	r2, r2, r3
 3172              	.LVL452:
 3173 0034 0021     		movs	r1, #0
ARM GAS  C:\Users\CCPOW_~1\AppData\Local\Temp\cccTFFy7.s 			page 77


 3174 0036 1170     		strb	r1, [r2]
 285:libhydrogen\impl/common.h ****         dst[i] = 0;
 3175              		.loc 4 285 0
 3176 0038 0133     		adds	r3, r3, #1
 3177              	.LVL453:
 3178              	.L141:
 3179 003a 1F2B     		cmp	r3, #31
 3180 003c F8D9     		bls	.L142
 3181              	.LVL454:
 3182              	.LBE291:
 3183              	.LBE290:
  16:libhydrogen\impl/sign.h ****     mem_zero(scalar2, sizeof scalar2);
  17:libhydrogen\impl/sign.h ****     hydro_x25519_sc_montmul(scalar2, scalar1, hydro_x25519_sc_r2);
 3184              		.loc 8 17 0
 3185 003e 064A     		ldr	r2, .L143
 3186 0040 3432     		adds	r2, r2, #52
 3187 0042 10A9     		add	r1, sp, #64
 3188 0044 08A8     		add	r0, sp, #32
 3189              	.LVL455:
 3190 0046 FFF7FEFF 		bl	hydro_x25519_sc_montmul
 3191              	.LVL456:
  18:libhydrogen\impl/sign.h ****     hydro_x25519_swapout(sig, scalar2);
 3192              		.loc 8 18 0
 3193 004a 08A9     		add	r1, sp, #32
 3194              	.LVL457:
 3195 004c 2000     		movs	r0, r4
 3196 004e FFF7FEFF 		bl	hydro_x25519_swapout
 3197              	.LVL458:
  19:libhydrogen\impl/sign.h **** }
 3198              		.loc 8 19 0
 3199 0052 18B0     		add	sp, sp, #96
 3200              		@ sp needed
 3201              	.LVL459:
 3202              	.LVL460:
 3203              	.LVL461:
 3204 0054 70BD     		pop	{r4, r5, r6, pc}
 3205              	.L144:
 3206 0056 C046     		.align	2
 3207              	.L143:
 3208 0058 00000000 		.word	.LANCHOR0
 3209              		.cfi_endproc
 3210              	.LFE106:
 3211              		.size	hydro_sign_p2, .-hydro_sign_p2
 3212              		.section	.text.hydro_kx_aead_xor_enc,"ax",%progbits
 3213              		.align	2
 3214              		.code	16
 3215              		.thumb_func
 3216              		.type	hydro_kx_aead_xor_enc, %function
 3217              	hydro_kx_aead_xor_enc:
 3218              	.LFB82:
  67:libhydrogen\impl/kx.h **** 
  68:libhydrogen\impl/kx.h **** static void
  69:libhydrogen\impl/kx.h **** hydro_kx_aead_xor_enc(uint8_t buf[gimli_BLOCKBYTES], uint8_t *out, const uint8_t *in, size_t inlen)
  70:libhydrogen\impl/kx.h **** {
 3219              		.loc 6 70 0
 3220              		.cfi_startproc
 3221              		@ args = 0, pretend = 0, frame = 0
ARM GAS  C:\Users\CCPOW_~1\AppData\Local\Temp\cccTFFy7.s 			page 78


 3222              		@ frame_needed = 0, uses_anonymous_args = 0
 3223              	.LVL462:
 3224 0000 F8B5     		push	{r3, r4, r5, r6, r7, lr}
 3225              		.cfi_def_cfa_offset 24
 3226              		.cfi_offset 3, -24
 3227              		.cfi_offset 4, -20
 3228              		.cfi_offset 5, -16
 3229              		.cfi_offset 6, -12
 3230              		.cfi_offset 7, -8
 3231              		.cfi_offset 14, -4
 3232 0002 4F46     		mov	r7, r9
 3233 0004 4646     		mov	r6, r8
 3234 0006 C0B4     		push	{r6, r7}
 3235              		.cfi_def_cfa_offset 32
 3236              		.cfi_offset 8, -32
 3237              		.cfi_offset 9, -28
 3238 0008 0400     		movs	r4, r0
 3239 000a 0D00     		movs	r5, r1
 3240 000c 1600     		movs	r6, r2
 3241 000e 9846     		mov	r8, r3
 3242              	.LVL463:
  71:libhydrogen\impl/kx.h ****     size_t i;
  72:libhydrogen\impl/kx.h ****     size_t leftover;
  73:libhydrogen\impl/kx.h **** 
  74:libhydrogen\impl/kx.h ****     for (i = 0; i < inlen / gimli_RATE; i++) {
 3243              		.loc 6 74 0
 3244 0010 0023     		movs	r3, #0
 3245              	.LVL464:
 3246 0012 9946     		mov	r9, r3
 3247 0014 17E0     		b	.L146
 3248              	.LVL465:
 3249              	.L149:
  75:libhydrogen\impl/kx.h ****         mem_xor2(&out[i * gimli_RATE], &in[i * gimli_RATE], buf, gimli_RATE);
 3250              		.loc 6 75 0 discriminator 3
 3251 0016 4B46     		mov	r3, r9
 3252 0018 1F01     		lsls	r7, r3, #4
 3253              	.LVL466:
 3254              	.LBB292:
 3255              	.LBB293:
 311:libhydrogen\impl/common.h ****         dst[i] = src1[i] ^ src2[i];
 3256              		.loc 4 311 0 discriminator 3
 3257 001a 0023     		movs	r3, #0
 3258 001c 05E0     		b	.L147
 3259              	.LVL467:
 3260              	.L148:
 3261 001e F818     		adds	r0, r7, r3
 3262              		.loc 4 312 0
 3263 0020 315C     		ldrb	r1, [r6, r0]
 3264 0022 E25C     		ldrb	r2, [r4, r3]
 3265 0024 4A40     		eors	r2, r1
 3266 0026 2A54     		strb	r2, [r5, r0]
 311:libhydrogen\impl/common.h ****         dst[i] = src1[i] ^ src2[i];
 3267              		.loc 4 311 0
 3268 0028 0133     		adds	r3, r3, #1
 3269              	.LVL468:
 3270              	.L147:
 3271 002a 0F2B     		cmp	r3, #15
ARM GAS  C:\Users\CCPOW_~1\AppData\Local\Temp\cccTFFy7.s 			page 79


 3272 002c F7D9     		bls	.L148
 3273              	.LVL469:
 3274              	.LBE293:
 3275              	.LBE292:
  76:libhydrogen\impl/kx.h ****         memcpy(buf, &out[i * gimli_RATE], gimli_RATE);
 3276              		.loc 6 76 0 discriminator 3
 3277 002e E919     		adds	r1, r5, r7
 3278 0030 1022     		movs	r2, #16
 3279 0032 2000     		movs	r0, r4
 3280 0034 FFF7FEFF 		bl	memcpy
 3281              	.LVL470:
  77:libhydrogen\impl/kx.h ****         gimli_core_u8(buf, gimli_TAG_PAYLOAD);
 3282              		.loc 6 77 0 discriminator 3
 3283 0038 0221     		movs	r1, #2
 3284 003a 2000     		movs	r0, r4
 3285 003c FFF7FEFF 		bl	gimli_core_u8
 3286              	.LVL471:
  74:libhydrogen\impl/kx.h ****         mem_xor2(&out[i * gimli_RATE], &in[i * gimli_RATE], buf, gimli_RATE);
 3287              		.loc 6 74 0 discriminator 3
 3288 0040 0123     		movs	r3, #1
 3289 0042 9C46     		mov	ip, r3
 3290 0044 E144     		add	r9, r9, ip
 3291              	.LVL472:
 3292              	.L146:
  74:libhydrogen\impl/kx.h ****         mem_xor2(&out[i * gimli_RATE], &in[i * gimli_RATE], buf, gimli_RATE);
 3293              		.loc 6 74 0 is_stmt 0 discriminator 1
 3294 0046 4346     		mov	r3, r8
 3295 0048 1B09     		lsrs	r3, r3, #4
 3296 004a 9945     		cmp	r9, r3
 3297 004c E3D3     		bcc	.L149
  78:libhydrogen\impl/kx.h ****     }
  79:libhydrogen\impl/kx.h ****     leftover = inlen % gimli_RATE;
 3298              		.loc 6 79 0 is_stmt 1
 3299 004e 0F21     		movs	r1, #15
 3300 0050 4346     		mov	r3, r8
 3301 0052 1940     		ands	r1, r3
 3302              	.LVL473:
  80:libhydrogen\impl/kx.h ****     if (leftover != 0) {
 3303              		.loc 6 80 0
 3304 0054 18D0     		beq	.L150
 3305              	.LVL474:
  81:libhydrogen\impl/kx.h ****         mem_xor2(&out[i * gimli_RATE], &in[i * gimli_RATE], buf, leftover);
 3306              		.loc 6 81 0
 3307 0056 4B46     		mov	r3, r9
 3308              	.LVL475:
 3309 0058 1B01     		lsls	r3, r3, #4
 3310 005a 9846     		mov	r8, r3
 3311              	.LVL476:
 3312              	.LBB294:
 3313              	.LBB295:
 311:libhydrogen\impl/common.h ****         dst[i] = src1[i] ^ src2[i];
 3314              		.loc 4 311 0
 3315 005c 0023     		movs	r3, #0
 3316              	.LVL477:
 3317 005e 08E0     		b	.L151
 3318              	.LVL478:
 3319              	.L152:
ARM GAS  C:\Users\CCPOW_~1\AppData\Local\Temp\cccTFFy7.s 			page 80


 3320 0060 4246     		mov	r2, r8
 3321 0062 D018     		adds	r0, r2, r3
 3322              		.loc 4 312 0
 3323 0064 325C     		ldrb	r2, [r6, r0]
 3324 0066 9446     		mov	ip, r2
 3325 0068 E25C     		ldrb	r2, [r4, r3]
 3326 006a 6746     		mov	r7, ip
 3327 006c 7A40     		eors	r2, r7
 3328 006e 2A54     		strb	r2, [r5, r0]
 311:libhydrogen\impl/common.h ****         dst[i] = src1[i] ^ src2[i];
 3329              		.loc 4 311 0
 3330 0070 0133     		adds	r3, r3, #1
 3331              	.LVL479:
 3332              	.L151:
 3333 0072 9942     		cmp	r1, r3
 3334 0074 F4D8     		bhi	.L152
 3335 0076 0023     		movs	r3, #0
 3336              	.LVL480:
 3337 0078 04E0     		b	.L153
 3338              	.LVL481:
 3339              	.L154:
 3340              	.LBE295:
 3341              	.LBE294:
 3342              	.LBB296:
 3343              	.LBB297:
 275:libhydrogen\impl/common.h ****     }
 3344              		.loc 4 275 0
 3345 007a EA18     		adds	r2, r5, r3
 3346 007c 4046     		mov	r0, r8
 3347 007e 125C     		ldrb	r2, [r2, r0]
 3348 0080 E254     		strb	r2, [r4, r3]
 274:libhydrogen\impl/common.h ****         dst[i] = src[i];
 3349              		.loc 4 274 0
 3350 0082 0133     		adds	r3, r3, #1
 3351              	.LVL482:
 3352              	.L153:
 3353 0084 8B42     		cmp	r3, r1
 3354 0086 F8D3     		bcc	.L154
 3355              	.LVL483:
 3356              	.L150:
 3357              	.LBE297:
 3358              	.LBE296:
 3359              	.LBB298:
 3360              	.LBB299:
  24:libhydrogen\impl/hydrogen_p.h ****     buf[gimli_RATE - 1] ^= 0x80;
 3361              		.loc 7 24 0
 3362 0088 6118     		adds	r1, r4, r1
 3363              	.LVL484:
 3364 008a 0A78     		ldrb	r2, [r1]
 3365 008c 0123     		movs	r3, #1
 3366 008e 5340     		eors	r3, r2
 3367 0090 0B70     		strb	r3, [r1]
 3368              		.loc 7 25 0
 3369 0092 E37B     		ldrb	r3, [r4, #15]
 3370 0094 8022     		movs	r2, #128
 3371 0096 5242     		rsbs	r2, r2, #0
 3372 0098 5340     		eors	r3, r2
ARM GAS  C:\Users\CCPOW_~1\AppData\Local\Temp\cccTFFy7.s 			page 81


 3373 009a E373     		strb	r3, [r4, #15]
 3374              	.LVL485:
 3375              	.LBE299:
 3376              	.LBE298:
  82:libhydrogen\impl/kx.h ****         mem_cpy(buf, &out[i * gimli_RATE], leftover);
  83:libhydrogen\impl/kx.h ****     }
  84:libhydrogen\impl/kx.h ****     gimli_pad_u8(buf, leftover, gimli_DOMAIN_AEAD);
  85:libhydrogen\impl/kx.h ****     gimli_core_u8(buf, gimli_TAG_PAYLOAD);
 3377              		.loc 6 85 0
 3378 009c 0221     		movs	r1, #2
 3379 009e 2000     		movs	r0, r4
 3380 00a0 FFF7FEFF 		bl	gimli_core_u8
 3381              	.LVL486:
  86:libhydrogen\impl/kx.h **** }
 3382              		.loc 6 86 0
 3383              		@ sp needed
 3384              	.LVL487:
 3385              	.LVL488:
 3386              	.LVL489:
 3387              	.LVL490:
 3388 00a4 0CBC     		pop	{r2, r3}
 3389 00a6 9046     		mov	r8, r2
 3390 00a8 9946     		mov	r9, r3
 3391 00aa F8BD     		pop	{r3, r4, r5, r6, r7, pc}
 3392              		.cfi_endproc
 3393              	.LFE82:
 3394              		.size	hydro_kx_aead_xor_enc, .-hydro_kx_aead_xor_enc
 3395              		.section	.text.hydro_kx_encrypt,"ax",%progbits
 3396              		.align	2
 3397              		.code	16
 3398              		.thumb_func
 3399              		.type	hydro_kx_encrypt, %function
 3400              	hydro_kx_encrypt:
 3401              	.LFB84:
  87:libhydrogen\impl/kx.h **** 
  88:libhydrogen\impl/kx.h **** static void
  89:libhydrogen\impl/kx.h **** hydro_kx_aead_xor_dec(uint8_t buf[gimli_BLOCKBYTES], uint8_t *out, const uint8_t *in, size_t inlen)
  90:libhydrogen\impl/kx.h **** {
  91:libhydrogen\impl/kx.h ****     size_t i;
  92:libhydrogen\impl/kx.h ****     size_t leftover;
  93:libhydrogen\impl/kx.h **** 
  94:libhydrogen\impl/kx.h ****     for (i = 0; i < inlen / gimli_RATE; i++) {
  95:libhydrogen\impl/kx.h ****         mem_xor2(&out[i * gimli_RATE], &in[i * gimli_RATE], buf, gimli_RATE);
  96:libhydrogen\impl/kx.h ****         memcpy(buf, &in[i * gimli_RATE], gimli_RATE);
  97:libhydrogen\impl/kx.h ****         gimli_core_u8(buf, gimli_TAG_PAYLOAD);
  98:libhydrogen\impl/kx.h ****     }
  99:libhydrogen\impl/kx.h ****     leftover = inlen % gimli_RATE;
 100:libhydrogen\impl/kx.h ****     if (leftover != 0) {
 101:libhydrogen\impl/kx.h ****         mem_xor2(&out[i * gimli_RATE], &in[i * gimli_RATE], buf, leftover);
 102:libhydrogen\impl/kx.h ****         mem_cpy(buf, &in[i * gimli_RATE], leftover);
 103:libhydrogen\impl/kx.h ****     }
 104:libhydrogen\impl/kx.h ****     gimli_pad_u8(buf, leftover, gimli_DOMAIN_AEAD);
 105:libhydrogen\impl/kx.h ****     gimli_core_u8(buf, gimli_TAG_PAYLOAD);
 106:libhydrogen\impl/kx.h **** }
 107:libhydrogen\impl/kx.h **** 
 108:libhydrogen\impl/kx.h **** static void
 109:libhydrogen\impl/kx.h **** hydro_kx_encrypt(const hydro_kx_state *state, uint8_t *c, const uint8_t *m, size_t mlen,
ARM GAS  C:\Users\CCPOW_~1\AppData\Local\Temp\cccTFFy7.s 			page 82


 110:libhydrogen\impl/kx.h ****                  const uint8_t psk[hydro_kx_PSKBYTES])
 111:libhydrogen\impl/kx.h **** {
 3402              		.loc 6 111 0
 3403              		.cfi_startproc
 3404              		@ args = 4, pretend = 0, frame = 8
 3405              		@ frame_needed = 1, uses_anonymous_args = 0
 3406              	.LVL491:
 3407 0000 F0B5     		push	{r4, r5, r6, r7, lr}
 3408              		.cfi_def_cfa_offset 20
 3409              		.cfi_offset 4, -20
 3410              		.cfi_offset 5, -16
 3411              		.cfi_offset 6, -12
 3412              		.cfi_offset 7, -8
 3413              		.cfi_offset 14, -4
 3414 0002 4746     		mov	r7, r8
 3415 0004 80B4     		push	{r7}
 3416              		.cfi_def_cfa_offset 24
 3417              		.cfi_offset 8, -24
 3418 0006 82B0     		sub	sp, sp, #8
 3419              		.cfi_def_cfa_offset 32
 3420 0008 00AF     		add	r7, sp, #0
 3421              		.cfi_def_cfa_register 7
 3422 000a 0500     		movs	r5, r0
 3423 000c 0E00     		movs	r6, r1
 3424 000e 7A60     		str	r2, [r7, #4]
 3425 0010 3B60     		str	r3, [r7]
 3426 0012 90B0     		sub	sp, sp, #64
 3427 0014 0F24     		movs	r4, #15
 3428 0016 6C44     		add	r4, r4, sp
 3429 0018 2409     		lsrs	r4, r4, #4
 3430 001a 2401     		lsls	r4, r4, #4
 3431              	.LVL492:
 112:libhydrogen\impl/kx.h ****     _hydro_attr_aligned_(16) uint8_t buf[gimli_BLOCKBYTES];
 113:libhydrogen\impl/kx.h ****     uint8_t *                        mac = &c[0];
 114:libhydrogen\impl/kx.h ****     uint8_t *                        ct  = &c[hydro_kx_AEAD_MACBYTES];
 3432              		.loc 6 114 0
 3433 001c 1021     		movs	r1, #16
 3434              	.LVL493:
 3435 001e 8846     		mov	r8, r1
 3436 0020 B044     		add	r8, r8, r6
 3437              	.LVL494:
 115:libhydrogen\impl/kx.h **** 
 116:libhydrogen\impl/kx.h ****     hydro_kx_aead_setup(buf, state, psk);
 3438              		.loc 6 116 0
 3439 0022 3A6A     		ldr	r2, [r7, #32]
 3440              	.LVL495:
 3441 0024 0100     		movs	r1, r0
 3442 0026 2000     		movs	r0, r4
 3443              	.LVL496:
 3444 0028 FFF7FEFF 		bl	hydro_kx_aead_setup
 3445              	.LVL497:
 117:libhydrogen\impl/kx.h ****     hydro_kx_aead_xor_enc(buf, ct, m, mlen);
 3446              		.loc 6 117 0
 3447 002c 3B68     		ldr	r3, [r7]
 3448 002e 7A68     		ldr	r2, [r7, #4]
 3449 0030 4146     		mov	r1, r8
 3450 0032 2000     		movs	r0, r4
ARM GAS  C:\Users\CCPOW_~1\AppData\Local\Temp\cccTFFy7.s 			page 83


 3451 0034 FFF7FEFF 		bl	hydro_kx_aead_xor_enc
 3452              	.LVL498:
 118:libhydrogen\impl/kx.h **** 
 119:libhydrogen\impl/kx.h ****     hydro_kx_finalize(buf, state->k);
 3453              		.loc 6 119 0
 3454 0038 2900     		movs	r1, r5
 3455 003a 8031     		adds	r1, r1, #128
 3456 003c 2000     		movs	r0, r4
 3457 003e FFF7FEFF 		bl	hydro_kx_finalize
 3458              	.LVL499:
 120:libhydrogen\impl/kx.h ****     COMPILER_ASSERT(hydro_kx_AEAD_MACBYTES <= gimli_CAPACITY);
 121:libhydrogen\impl/kx.h ****     memcpy(mac, buf + gimli_RATE, hydro_kx_AEAD_MACBYTES);
 3459              		.loc 6 121 0
 3460 0042 2100     		movs	r1, r4
 3461 0044 1031     		adds	r1, r1, #16
 3462 0046 1022     		movs	r2, #16
 3463 0048 3000     		movs	r0, r6
 3464 004a FFF7FEFF 		bl	memcpy
 3465              	.LVL500:
 122:libhydrogen\impl/kx.h **** }
 3466              		.loc 6 122 0
 3467 004e BD46     		mov	sp, r7
 3468              	.LVL501:
 3469 0050 02B0     		add	sp, sp, #8
 3470              	.LVL502:
 3471              		@ sp needed
 3472              	.LVL503:
 3473              	.LVL504:
 3474              	.LVL505:
 3475 0052 04BC     		pop	{r2}
 3476 0054 9046     		mov	r8, r2
 3477 0056 F0BD     		pop	{r4, r5, r6, r7, pc}
 3478              		.cfi_endproc
 3479              	.LFE84:
 3480              		.size	hydro_kx_encrypt, .-hydro_kx_encrypt
 3481              		.section	.text.hydro_kx_aead_xor_dec,"ax",%progbits
 3482              		.align	2
 3483              		.code	16
 3484              		.thumb_func
 3485              		.type	hydro_kx_aead_xor_dec, %function
 3486              	hydro_kx_aead_xor_dec:
 3487              	.LFB83:
  90:libhydrogen\impl/kx.h ****     size_t i;
 3488              		.loc 6 90 0
 3489              		.cfi_startproc
 3490              		@ args = 0, pretend = 0, frame = 0
 3491              		@ frame_needed = 0, uses_anonymous_args = 0
 3492              	.LVL506:
 3493 0000 F8B5     		push	{r3, r4, r5, r6, r7, lr}
 3494              		.cfi_def_cfa_offset 24
 3495              		.cfi_offset 3, -24
 3496              		.cfi_offset 4, -20
 3497              		.cfi_offset 5, -16
 3498              		.cfi_offset 6, -12
 3499              		.cfi_offset 7, -8
 3500              		.cfi_offset 14, -4
 3501 0002 4F46     		mov	r7, r9
ARM GAS  C:\Users\CCPOW_~1\AppData\Local\Temp\cccTFFy7.s 			page 84


 3502 0004 4646     		mov	r6, r8
 3503 0006 C0B4     		push	{r6, r7}
 3504              		.cfi_def_cfa_offset 32
 3505              		.cfi_offset 8, -32
 3506              		.cfi_offset 9, -28
 3507 0008 0400     		movs	r4, r0
 3508 000a 0E00     		movs	r6, r1
 3509 000c 1500     		movs	r5, r2
 3510 000e 9846     		mov	r8, r3
 3511              	.LVL507:
  94:libhydrogen\impl/kx.h ****         mem_xor2(&out[i * gimli_RATE], &in[i * gimli_RATE], buf, gimli_RATE);
 3512              		.loc 6 94 0
 3513 0010 0023     		movs	r3, #0
 3514              	.LVL508:
 3515 0012 9946     		mov	r9, r3
 3516 0014 17E0     		b	.L157
 3517              	.LVL509:
 3518              	.L160:
  95:libhydrogen\impl/kx.h ****         memcpy(buf, &in[i * gimli_RATE], gimli_RATE);
 3519              		.loc 6 95 0 discriminator 3
 3520 0016 4B46     		mov	r3, r9
 3521 0018 1F01     		lsls	r7, r3, #4
 3522              	.LVL510:
 3523              	.LBB300:
 3524              	.LBB301:
 311:libhydrogen\impl/common.h ****         dst[i] = src1[i] ^ src2[i];
 3525              		.loc 4 311 0 discriminator 3
 3526 001a 0023     		movs	r3, #0
 3527 001c 05E0     		b	.L158
 3528              	.LVL511:
 3529              	.L159:
 3530 001e F818     		adds	r0, r7, r3
 3531              		.loc 4 312 0
 3532 0020 295C     		ldrb	r1, [r5, r0]
 3533 0022 E25C     		ldrb	r2, [r4, r3]
 3534 0024 4A40     		eors	r2, r1
 3535 0026 3254     		strb	r2, [r6, r0]
 311:libhydrogen\impl/common.h ****         dst[i] = src1[i] ^ src2[i];
 3536              		.loc 4 311 0
 3537 0028 0133     		adds	r3, r3, #1
 3538              	.LVL512:
 3539              	.L158:
 3540 002a 0F2B     		cmp	r3, #15
 3541 002c F7D9     		bls	.L159
 3542              	.LVL513:
 3543              	.LBE301:
 3544              	.LBE300:
  96:libhydrogen\impl/kx.h ****         gimli_core_u8(buf, gimli_TAG_PAYLOAD);
 3545              		.loc 6 96 0 discriminator 3
 3546 002e E919     		adds	r1, r5, r7
 3547 0030 1022     		movs	r2, #16
 3548 0032 2000     		movs	r0, r4
 3549 0034 FFF7FEFF 		bl	memcpy
 3550              	.LVL514:
  97:libhydrogen\impl/kx.h ****     }
 3551              		.loc 6 97 0 discriminator 3
 3552 0038 0221     		movs	r1, #2
ARM GAS  C:\Users\CCPOW_~1\AppData\Local\Temp\cccTFFy7.s 			page 85


 3553 003a 2000     		movs	r0, r4
 3554 003c FFF7FEFF 		bl	gimli_core_u8
 3555              	.LVL515:
  94:libhydrogen\impl/kx.h ****         mem_xor2(&out[i * gimli_RATE], &in[i * gimli_RATE], buf, gimli_RATE);
 3556              		.loc 6 94 0 discriminator 3
 3557 0040 0123     		movs	r3, #1
 3558 0042 9C46     		mov	ip, r3
 3559 0044 E144     		add	r9, r9, ip
 3560              	.LVL516:
 3561              	.L157:
  94:libhydrogen\impl/kx.h ****         mem_xor2(&out[i * gimli_RATE], &in[i * gimli_RATE], buf, gimli_RATE);
 3562              		.loc 6 94 0 is_stmt 0 discriminator 1
 3563 0046 4346     		mov	r3, r8
 3564 0048 1B09     		lsrs	r3, r3, #4
 3565 004a 9945     		cmp	r9, r3
 3566 004c E3D3     		bcc	.L160
  99:libhydrogen\impl/kx.h ****     if (leftover != 0) {
 3567              		.loc 6 99 0 is_stmt 1
 3568 004e 0F21     		movs	r1, #15
 3569 0050 4346     		mov	r3, r8
 3570 0052 1940     		ands	r1, r3
 3571              	.LVL517:
 100:libhydrogen\impl/kx.h ****         mem_xor2(&out[i * gimli_RATE], &in[i * gimli_RATE], buf, leftover);
 3572              		.loc 6 100 0
 3573 0054 18D0     		beq	.L161
 3574              	.LVL518:
 101:libhydrogen\impl/kx.h ****         mem_cpy(buf, &in[i * gimli_RATE], leftover);
 3575              		.loc 6 101 0
 3576 0056 4B46     		mov	r3, r9
 3577              	.LVL519:
 3578 0058 1B01     		lsls	r3, r3, #4
 3579 005a 9846     		mov	r8, r3
 3580              	.LVL520:
 3581              	.LBB302:
 3582              	.LBB303:
 311:libhydrogen\impl/common.h ****         dst[i] = src1[i] ^ src2[i];
 3583              		.loc 4 311 0
 3584 005c 0023     		movs	r3, #0
 3585              	.LVL521:
 3586 005e 08E0     		b	.L162
 3587              	.LVL522:
 3588              	.L163:
 3589 0060 4246     		mov	r2, r8
 3590 0062 D018     		adds	r0, r2, r3
 3591              		.loc 4 312 0
 3592 0064 2A5C     		ldrb	r2, [r5, r0]
 3593 0066 9446     		mov	ip, r2
 3594 0068 E25C     		ldrb	r2, [r4, r3]
 3595 006a 6746     		mov	r7, ip
 3596 006c 7A40     		eors	r2, r7
 3597 006e 3254     		strb	r2, [r6, r0]
 311:libhydrogen\impl/common.h ****         dst[i] = src1[i] ^ src2[i];
 3598              		.loc 4 311 0
 3599 0070 0133     		adds	r3, r3, #1
 3600              	.LVL523:
 3601              	.L162:
 3602 0072 9942     		cmp	r1, r3
ARM GAS  C:\Users\CCPOW_~1\AppData\Local\Temp\cccTFFy7.s 			page 86


 3603 0074 F4D8     		bhi	.L163
 3604 0076 0023     		movs	r3, #0
 3605              	.LVL524:
 3606 0078 04E0     		b	.L164
 3607              	.LVL525:
 3608              	.L165:
 3609              	.LBE303:
 3610              	.LBE302:
 3611              	.LBB304:
 3612              	.LBB305:
 275:libhydrogen\impl/common.h ****     }
 3613              		.loc 4 275 0
 3614 007a EA18     		adds	r2, r5, r3
 3615 007c 4046     		mov	r0, r8
 3616 007e 125C     		ldrb	r2, [r2, r0]
 3617 0080 E254     		strb	r2, [r4, r3]
 274:libhydrogen\impl/common.h ****         dst[i] = src[i];
 3618              		.loc 4 274 0
 3619 0082 0133     		adds	r3, r3, #1
 3620              	.LVL526:
 3621              	.L164:
 3622 0084 8B42     		cmp	r3, r1
 3623 0086 F8D3     		bcc	.L165
 3624              	.LVL527:
 3625              	.L161:
 3626              	.LBE305:
 3627              	.LBE304:
 3628              	.LBB306:
 3629              	.LBB307:
  24:libhydrogen\impl/hydrogen_p.h ****     buf[gimli_RATE - 1] ^= 0x80;
 3630              		.loc 7 24 0
 3631 0088 6118     		adds	r1, r4, r1
 3632              	.LVL528:
 3633 008a 0A78     		ldrb	r2, [r1]
 3634 008c 0123     		movs	r3, #1
 3635 008e 5340     		eors	r3, r2
 3636 0090 0B70     		strb	r3, [r1]
 3637              		.loc 7 25 0
 3638 0092 E37B     		ldrb	r3, [r4, #15]
 3639 0094 8022     		movs	r2, #128
 3640 0096 5242     		rsbs	r2, r2, #0
 3641 0098 5340     		eors	r3, r2
 3642 009a E373     		strb	r3, [r4, #15]
 3643              	.LVL529:
 3644              	.LBE307:
 3645              	.LBE306:
 105:libhydrogen\impl/kx.h **** }
 3646              		.loc 6 105 0
 3647 009c 0221     		movs	r1, #2
 3648 009e 2000     		movs	r0, r4
 3649 00a0 FFF7FEFF 		bl	gimli_core_u8
 3650              	.LVL530:
 106:libhydrogen\impl/kx.h **** 
 3651              		.loc 6 106 0
 3652              		@ sp needed
 3653              	.LVL531:
 3654              	.LVL532:
ARM GAS  C:\Users\CCPOW_~1\AppData\Local\Temp\cccTFFy7.s 			page 87


 3655              	.LVL533:
 3656              	.LVL534:
 3657 00a4 0CBC     		pop	{r2, r3}
 3658 00a6 9046     		mov	r8, r2
 3659 00a8 9946     		mov	r9, r3
 3660 00aa F8BD     		pop	{r3, r4, r5, r6, r7, pc}
 3661              		.cfi_endproc
 3662              	.LFE83:
 3663              		.size	hydro_kx_aead_xor_dec, .-hydro_kx_aead_xor_dec
 3664              		.section	.text.hydro_kx_decrypt,"ax",%progbits
 3665              		.align	2
 3666              		.code	16
 3667              		.thumb_func
 3668              		.type	hydro_kx_decrypt, %function
 3669              	hydro_kx_decrypt:
 3670              	.LFB85:
 123:libhydrogen\impl/kx.h **** 
 124:libhydrogen\impl/kx.h **** static int hydro_kx_decrypt(hydro_kx_state *state, uint8_t *m, const uint8_t *c, size_t clen,
 125:libhydrogen\impl/kx.h ****                             const uint8_t psk[hydro_kx_PSKBYTES]) _hydro_attr_warn_unused_result_;
 126:libhydrogen\impl/kx.h **** 
 127:libhydrogen\impl/kx.h **** static int
 128:libhydrogen\impl/kx.h **** hydro_kx_decrypt(hydro_kx_state *state, uint8_t *m, const uint8_t *c, size_t clen,
 129:libhydrogen\impl/kx.h ****                  const uint8_t psk[hydro_kx_PSKBYTES])
 130:libhydrogen\impl/kx.h **** {
 3671              		.loc 6 130 0
 3672              		.cfi_startproc
 3673              		@ args = 4, pretend = 0, frame = 24
 3674              		@ frame_needed = 1, uses_anonymous_args = 0
 3675              	.LVL535:
 3676 0000 F0B5     		push	{r4, r5, r6, r7, lr}
 3677              		.cfi_def_cfa_offset 20
 3678              		.cfi_offset 4, -20
 3679              		.cfi_offset 5, -16
 3680              		.cfi_offset 6, -12
 3681              		.cfi_offset 7, -8
 3682              		.cfi_offset 14, -4
 3683 0002 4F46     		mov	r7, r9
 3684 0004 4646     		mov	r6, r8
 3685 0006 C0B4     		push	{r6, r7}
 3686              		.cfi_def_cfa_offset 28
 3687              		.cfi_offset 8, -28
 3688              		.cfi_offset 9, -24
 3689 0008 87B0     		sub	sp, sp, #28
 3690              		.cfi_def_cfa_offset 56
 3691 000a 00AF     		add	r7, sp, #0
 3692              		.cfi_def_cfa_register 7
 3693 000c 0600     		movs	r6, r0
 3694 000e 0D00     		movs	r5, r1
 3695 0010 1100     		movs	r1, r2
 3696              	.LVL536:
 3697 0012 90B0     		sub	sp, sp, #64
 3698 0014 0F22     		movs	r2, #15
 3699              	.LVL537:
 3700 0016 6A44     		add	r2, r2, sp
 3701 0018 1209     		lsrs	r2, r2, #4
 3702 001a 1201     		lsls	r2, r2, #4
 3703 001c 9046     		mov	r8, r2
ARM GAS  C:\Users\CCPOW_~1\AppData\Local\Temp\cccTFFy7.s 			page 88


 3704              	.LVL538:
 131:libhydrogen\impl/kx.h ****     _hydro_attr_aligned_(16) uint32_t int_state[gimli_BLOCKBYTES / 4];
 132:libhydrogen\impl/kx.h ****     uint32_t                          pub_mac[hydro_kx_AEAD_MACBYTES / 4];
 133:libhydrogen\impl/kx.h ****     uint8_t *                         buf = (uint8_t *) (void *) int_state;
 134:libhydrogen\impl/kx.h ****     const uint8_t *                   mac;
 135:libhydrogen\impl/kx.h ****     const uint8_t *                   ct;
 136:libhydrogen\impl/kx.h ****     size_t                            mlen;
 137:libhydrogen\impl/kx.h ****     uint32_t                          cv;
 138:libhydrogen\impl/kx.h **** 
 139:libhydrogen\impl/kx.h ****     if (clen < hydro_kx_AEAD_HEADERBYTES) {
 3705              		.loc 6 139 0
 3706 001e 0F2B     		cmp	r3, #15
 3707 0020 45D9     		bls	.L174
 3708              	.LVL539:
 140:libhydrogen\impl/kx.h ****         return -1;
 141:libhydrogen\impl/kx.h ****     }
 142:libhydrogen\impl/kx.h ****     mac  = &c[0];
 143:libhydrogen\impl/kx.h ****     ct   = &c[hydro_kx_AEAD_MACBYTES];
 3709              		.loc 6 143 0
 3710 0022 1022     		movs	r2, #16
 3711              	.LVL540:
 3712 0024 9146     		mov	r9, r2
 3713 0026 8944     		add	r9, r9, r1
 3714              	.LVL541:
 144:libhydrogen\impl/kx.h ****     mlen = clen - hydro_kx_AEAD_HEADERBYTES;
 3715              		.loc 6 144 0
 3716 0028 103B     		subs	r3, r3, #16
 3717              	.LVL542:
 3718 002a 1C00     		movs	r4, r3
 3719              	.LVL543:
 145:libhydrogen\impl/kx.h ****     memcpy(pub_mac, mac, sizeof pub_mac);
 3720              		.loc 6 145 0
 3721 002c 0823     		movs	r3, #8
 3722              	.LVL544:
 3723 002e F818     		adds	r0, r7, r3
 3724              	.LVL545:
 3725 0030 FFF7FEFF 		bl	memcpy
 3726              	.LVL546:
 146:libhydrogen\impl/kx.h ****     hydro_kx_aead_setup(buf, state, psk);
 3727              		.loc 6 146 0
 3728 0034 BA6B     		ldr	r2, [r7, #56]
 3729 0036 3100     		movs	r1, r6
 3730 0038 4046     		mov	r0, r8
 3731 003a FFF7FEFF 		bl	hydro_kx_aead_setup
 3732              	.LVL547:
 147:libhydrogen\impl/kx.h ****     hydro_kx_aead_xor_dec(buf, m, ct, mlen);
 3733              		.loc 6 147 0
 3734 003e 2300     		movs	r3, r4
 3735 0040 4A46     		mov	r2, r9
 3736 0042 2900     		movs	r1, r5
 3737 0044 4046     		mov	r0, r8
 3738 0046 FFF7FEFF 		bl	hydro_kx_aead_xor_dec
 3739              	.LVL548:
 148:libhydrogen\impl/kx.h **** 
 149:libhydrogen\impl/kx.h ****     hydro_kx_finalize(buf, state->k);
 3740              		.loc 6 149 0
 3741 004a 3100     		movs	r1, r6
ARM GAS  C:\Users\CCPOW_~1\AppData\Local\Temp\cccTFFy7.s 			page 89


 3742 004c 8031     		adds	r1, r1, #128
 3743 004e 4046     		mov	r0, r8
 3744 0050 FFF7FEFF 		bl	hydro_kx_finalize
 3745              	.LVL549:
 3746              	.LBB308:
 3747              	.LBB309:
  26:libhydrogen\impl/hydrogen_p.h **** }
  27:libhydrogen\impl/hydrogen_p.h **** 
  28:libhydrogen\impl/hydrogen_p.h **** static inline void
  29:libhydrogen\impl/hydrogen_p.h **** hydro_mem_ct_zero_u32(uint32_t *dst_, size_t n)
  30:libhydrogen\impl/hydrogen_p.h **** {
  31:libhydrogen\impl/hydrogen_p.h ****     volatile uint32_t *volatile dst = (volatile uint32_t * volatile)(void *) dst_;
  32:libhydrogen\impl/hydrogen_p.h ****     size_t i;
  33:libhydrogen\impl/hydrogen_p.h **** 
  34:libhydrogen\impl/hydrogen_p.h ****     for (i = 0; i < n; i++) {
  35:libhydrogen\impl/hydrogen_p.h ****         dst[i] = 0;
  36:libhydrogen\impl/hydrogen_p.h ****     }
  37:libhydrogen\impl/hydrogen_p.h **** }
  38:libhydrogen\impl/hydrogen_p.h **** 
  39:libhydrogen\impl/hydrogen_p.h **** static inline uint32_t hydro_mem_ct_cmp_u32(const uint32_t *b1_, const uint32_t *b2,
  40:libhydrogen\impl/hydrogen_p.h ****                                             size_t n) _hydro_attr_warn_unused_result_;
  41:libhydrogen\impl/hydrogen_p.h **** 
  42:libhydrogen\impl/hydrogen_p.h **** static inline uint32_t
  43:libhydrogen\impl/hydrogen_p.h **** hydro_mem_ct_cmp_u32(const uint32_t *b1_, const uint32_t *b2, size_t n)
  44:libhydrogen\impl/hydrogen_p.h **** {
  45:libhydrogen\impl/hydrogen_p.h ****     const volatile uint32_t *volatile b1 = (const volatile uint32_t *volatile)(const void *) b1_;
 3748              		.loc 7 45 0
 3749 0054 4346     		mov	r3, r8
 3750 0056 1033     		adds	r3, r3, #16
 3751              	.LVL550:
 3752 0058 7B60     		str	r3, [r7, #4]
 3753              	.LVL551:
  46:libhydrogen\impl/hydrogen_p.h ****     size_t   i;
  47:libhydrogen\impl/hydrogen_p.h ****     uint32_t cv = 0;
 3754              		.loc 7 47 0
 3755 005a 0026     		movs	r6, #0
 3756              	.LVL552:
  48:libhydrogen\impl/hydrogen_p.h **** 
  49:libhydrogen\impl/hydrogen_p.h ****     for (i = 0; i < n; i++) {
 3757              		.loc 7 49 0
 3758 005c 0023     		movs	r3, #0
 3759              	.LVL553:
 3760 005e 09E0     		b	.L168
 3761              	.LVL554:
 3762              	.L169:
  50:libhydrogen\impl/hydrogen_p.h ****         cv |= b1[i] ^ b2[i];
 3763              		.loc 7 50 0
 3764 0060 7A68     		ldr	r2, [r7, #4]
 3765 0062 9900     		lsls	r1, r3, #2
 3766 0064 5218     		adds	r2, r2, r1
 3767 0066 1068     		ldr	r0, [r2]
 3768 0068 0822     		movs	r2, #8
 3769 006a BA18     		adds	r2, r7, r2
 3770 006c 5258     		ldr	r2, [r2, r1]
 3771 006e 4240     		eors	r2, r0
 3772 0070 1643     		orrs	r6, r2
 3773              	.LVL555:
ARM GAS  C:\Users\CCPOW_~1\AppData\Local\Temp\cccTFFy7.s 			page 90


  49:libhydrogen\impl/hydrogen_p.h ****         cv |= b1[i] ^ b2[i];
 3774              		.loc 7 49 0
 3775 0072 0133     		adds	r3, r3, #1
 3776              	.LVL556:
 3777              	.L168:
 3778 0074 032B     		cmp	r3, #3
 3779 0076 F3D9     		bls	.L169
 3780              	.LVL557:
 3781              	.LBE309:
 3782              	.LBE308:
 3783              	.LBB310:
 3784              	.LBB311:
  31:libhydrogen\impl/hydrogen_p.h ****     size_t i;
 3785              		.loc 7 31 0
 3786 0078 4346     		mov	r3, r8
 3787 007a 3B60     		str	r3, [r7]
 3788              	.LVL558:
  34:libhydrogen\impl/hydrogen_p.h ****         dst[i] = 0;
 3789              		.loc 7 34 0
 3790 007c 0022     		movs	r2, #0
 3791 007e 05E0     		b	.L170
 3792              	.LVL559:
 3793              	.L171:
  35:libhydrogen\impl/hydrogen_p.h ****     }
 3794              		.loc 7 35 0
 3795 0080 3B68     		ldr	r3, [r7]
 3796 0082 9100     		lsls	r1, r2, #2
 3797 0084 5918     		adds	r1, r3, r1
 3798 0086 0020     		movs	r0, #0
 3799 0088 0860     		str	r0, [r1]
  34:libhydrogen\impl/hydrogen_p.h ****         dst[i] = 0;
 3800              		.loc 7 34 0
 3801 008a 0132     		adds	r2, r2, #1
 3802              	.LVL560:
 3803              	.L170:
 3804 008c 0B2A     		cmp	r2, #11
 3805 008e F7D9     		bls	.L171
 3806              	.LVL561:
 3807              	.LBE311:
 3808              	.LBE310:
 150:libhydrogen\impl/kx.h ****     COMPILER_ASSERT(hydro_kx_AEAD_MACBYTES <= gimli_CAPACITY);
 151:libhydrogen\impl/kx.h ****     COMPILER_ASSERT(gimli_RATE % 4 == 0);
 152:libhydrogen\impl/kx.h ****     cv = hydro_mem_ct_cmp_u32(int_state + gimli_RATE / 4, pub_mac, hydro_kx_AEAD_MACBYTES / 4);
 153:libhydrogen\impl/kx.h ****     hydro_mem_ct_zero_u32(int_state, gimli_BLOCKBYTES / 4);
 154:libhydrogen\impl/kx.h ****     if (cv != 0) {
 3809              		.loc 6 154 0
 3810 0090 002E     		cmp	r6, #0
 3811 0092 06D1     		bne	.L175
 155:libhydrogen\impl/kx.h ****         mem_zero(m, mlen);
 156:libhydrogen\impl/kx.h ****         return -1;
 157:libhydrogen\impl/kx.h ****     }
 158:libhydrogen\impl/kx.h ****     return 0;
 3812              		.loc 6 158 0
 3813 0094 0020     		movs	r0, #0
 3814 0096 0CE0     		b	.L167
 3815              	.LVL562:
 3816              	.L173:
ARM GAS  C:\Users\CCPOW_~1\AppData\Local\Temp\cccTFFy7.s 			page 91


 3817              	.LBB312:
 3818              	.LBB313:
 286:libhydrogen\impl/common.h ****     }
 3819              		.loc 4 286 0
 3820 0098 AB18     		adds	r3, r5, r2
 3821 009a 0021     		movs	r1, #0
 3822 009c 1970     		strb	r1, [r3]
 285:libhydrogen\impl/common.h ****         dst[i] = 0;
 3823              		.loc 4 285 0
 3824 009e 0132     		adds	r2, r2, #1
 3825              	.LVL563:
 3826 00a0 00E0     		b	.L172
 3827              	.LVL564:
 3828              	.L175:
 3829              	.LBE313:
 3830              	.LBE312:
 3831 00a2 0022     		movs	r2, #0
 3832              	.L172:
 3833              	.LVL565:
 3834              	.LBB315:
 3835              	.LBB314:
 3836 00a4 9442     		cmp	r4, r2
 3837 00a6 F7D8     		bhi	.L173
 3838              	.LBE314:
 3839              	.LBE315:
 156:libhydrogen\impl/kx.h ****     }
 3840              		.loc 6 156 0
 3841 00a8 0120     		movs	r0, #1
 3842 00aa 4042     		rsbs	r0, r0, #0
 3843 00ac 01E0     		b	.L167
 3844              	.LVL566:
 3845              	.L174:
 140:libhydrogen\impl/kx.h ****     }
 3846              		.loc 6 140 0
 3847 00ae 0120     		movs	r0, #1
 3848              	.LVL567:
 3849 00b0 4042     		rsbs	r0, r0, #0
 3850              	.LVL568:
 3851              	.L167:
 159:libhydrogen\impl/kx.h **** }
 3852              		.loc 6 159 0
 3853 00b2 BD46     		mov	sp, r7
 3854 00b4 07B0     		add	sp, sp, #28
 3855              		@ sp needed
 3856              	.LVL569:
 3857              	.LVL570:
 3858 00b6 0CBC     		pop	{r2, r3}
 3859 00b8 9046     		mov	r8, r2
 3860 00ba 9946     		mov	r9, r3
 3861 00bc F0BD     		pop	{r4, r5, r6, r7, pc}
 3862              		.cfi_endproc
 3863              	.LFE85:
 3864              		.size	hydro_kx_decrypt, .-hydro_kx_decrypt
 3865 00be C046     		.section	.text.hydro_sign_verify_core,"ax",%progbits
 3866              		.align	2
 3867              		.code	16
 3868              		.thumb_func
ARM GAS  C:\Users\CCPOW_~1\AppData\Local\Temp\cccTFFy7.s 			page 92


 3869              		.type	hydro_sign_verify_core, %function
 3870              	hydro_sign_verify_core:
 3871              	.LFB109:
  20:libhydrogen\impl/sign.h **** 
  21:libhydrogen\impl/sign.h **** static void
  22:libhydrogen\impl/sign.h **** hydro_sign_challenge(uint8_t       challenge[hydro_sign_CHALLENGEBYTES],
  23:libhydrogen\impl/sign.h ****                      const uint8_t nonce[hydro_sign_NONCEBYTES],
  24:libhydrogen\impl/sign.h ****                      const uint8_t pk[hydro_sign_PUBLICKEYBYTES],
  25:libhydrogen\impl/sign.h ****                      const uint8_t prehash[hydro_sign_PREHASHBYTES])
  26:libhydrogen\impl/sign.h **** {
  27:libhydrogen\impl/sign.h ****     hydro_hash_state st;
  28:libhydrogen\impl/sign.h **** 
  29:libhydrogen\impl/sign.h ****     hydro_hash_init(&st, (const char *) zero, NULL);
  30:libhydrogen\impl/sign.h ****     hydro_hash_update(&st, nonce, hydro_sign_NONCEBYTES);
  31:libhydrogen\impl/sign.h ****     hydro_hash_update(&st, pk, hydro_sign_PUBLICKEYBYTES);
  32:libhydrogen\impl/sign.h ****     hydro_hash_update(&st, prehash, hydro_sign_PREHASHBYTES);
  33:libhydrogen\impl/sign.h ****     hydro_hash_final(&st, challenge, hydro_sign_CHALLENGEBYTES);
  34:libhydrogen\impl/sign.h **** }
  35:libhydrogen\impl/sign.h **** 
  36:libhydrogen\impl/sign.h **** static int
  37:libhydrogen\impl/sign.h **** hydro_sign_prehash(uint8_t csig[hydro_sign_BYTES], const uint8_t prehash[hydro_sign_PREHASHBYTES],
  38:libhydrogen\impl/sign.h ****                    const uint8_t sk[hydro_sign_SECRETKEYBYTES])
  39:libhydrogen\impl/sign.h **** {
  40:libhydrogen\impl/sign.h ****     hydro_hash_state st;
  41:libhydrogen\impl/sign.h ****     uint8_t          challenge[hydro_sign_CHALLENGEBYTES];
  42:libhydrogen\impl/sign.h ****     const uint8_t *  pk     = &sk[hydro_x25519_SECRETKEYBYTES];
  43:libhydrogen\impl/sign.h ****     uint8_t *        nonce  = &csig[0];
  44:libhydrogen\impl/sign.h ****     uint8_t *        sig    = &csig[hydro_sign_NONCEBYTES];
  45:libhydrogen\impl/sign.h ****     uint8_t *        eph_sk = sig;
  46:libhydrogen\impl/sign.h **** 
  47:libhydrogen\impl/sign.h ****     hydro_random_buf(eph_sk, hydro_x25519_SECRETKEYBYTES);
  48:libhydrogen\impl/sign.h ****     COMPILER_ASSERT(hydro_x25519_SECRETKEYBYTES == hydro_hash_KEYBYTES);
  49:libhydrogen\impl/sign.h ****     hydro_hash_init(&st, (const char *) zero, sk);
  50:libhydrogen\impl/sign.h ****     hydro_hash_update(&st, eph_sk, hydro_x25519_SECRETKEYBYTES);
  51:libhydrogen\impl/sign.h ****     hydro_hash_update(&st, prehash, hydro_sign_CHALLENGEBYTES);
  52:libhydrogen\impl/sign.h ****     hydro_hash_final(&st, eph_sk, hydro_x25519_SECRETKEYBYTES);
  53:libhydrogen\impl/sign.h **** 
  54:libhydrogen\impl/sign.h ****     hydro_x25519_scalarmult_base_uniform(nonce, eph_sk);
  55:libhydrogen\impl/sign.h ****     hydro_sign_challenge(challenge, nonce, pk, prehash);
  56:libhydrogen\impl/sign.h **** 
  57:libhydrogen\impl/sign.h ****     COMPILER_ASSERT(hydro_sign_BYTES == hydro_sign_NONCEBYTES + hydro_x25519_SECRETKEYBYTES);
  58:libhydrogen\impl/sign.h ****     COMPILER_ASSERT(hydro_x25519_SECRETKEYBYTES <= hydro_sign_CHALLENGEBYTES);
  59:libhydrogen\impl/sign.h ****     hydro_sign_p2(sig, challenge, eph_sk, sk);
  60:libhydrogen\impl/sign.h **** 
  61:libhydrogen\impl/sign.h ****     return 0;
  62:libhydrogen\impl/sign.h **** }
  63:libhydrogen\impl/sign.h **** 
  64:libhydrogen\impl/sign.h **** static int
  65:libhydrogen\impl/sign.h **** hydro_sign_verify_core(hydro_x25519_fe xs[5], const hydro_x25519_limb_t *other1,
  66:libhydrogen\impl/sign.h ****                        const uint8_t other2[hydro_x25519_BYTES])
  67:libhydrogen\impl/sign.h **** {
 3872              		.loc 8 67 0
 3873              		.cfi_startproc
 3874              		@ args = 0, pretend = 0, frame = 48
 3875              		@ frame_needed = 0, uses_anonymous_args = 0
 3876              	.LVL571:
 3877 0000 F0B5     		push	{r4, r5, r6, r7, lr}
ARM GAS  C:\Users\CCPOW_~1\AppData\Local\Temp\cccTFFy7.s 			page 93


 3878              		.cfi_def_cfa_offset 20
 3879              		.cfi_offset 4, -20
 3880              		.cfi_offset 5, -16
 3881              		.cfi_offset 6, -12
 3882              		.cfi_offset 7, -8
 3883              		.cfi_offset 14, -4
 3884 0002 8DB0     		sub	sp, sp, #52
 3885              		.cfi_def_cfa_offset 72
 3886 0004 0700     		movs	r7, r0
 3887 0006 0E00     		movs	r6, r1
  68:libhydrogen\impl/sign.h ****     hydro_x25519_limb_t *     z2 = xs[1], *x3 = xs[2], *z3 = xs[3];
 3888              		.loc 8 68 0
 3889 0008 0500     		movs	r5, r0
 3890 000a 2035     		adds	r5, r5, #32
 3891              	.LVL572:
 3892 000c 4023     		movs	r3, #64
 3893 000e 9C46     		mov	ip, r3
 3894 0010 8444     		add	ip, ip, r0
 3895 0012 6346     		mov	r3, ip
 3896 0014 0193     		str	r3, [sp, #4]
 3897              	.LVL573:
 3898 0016 0400     		movs	r4, r0
 3899 0018 6034     		adds	r4, r4, #96
 3900              	.LVL574:
  69:libhydrogen\impl/sign.h ****     hydro_x25519_fe           xo2;
  70:libhydrogen\impl/sign.h ****     const hydro_x25519_limb_t sixteen = 16;
 3901              		.loc 8 70 0
 3902 001a 1023     		movs	r3, #16
 3903              	.LVL575:
 3904 001c 0393     		str	r3, [sp, #12]
  71:libhydrogen\impl/sign.h **** 
  72:libhydrogen\impl/sign.h ****     hydro_x25519_swapin(xo2, other2);
 3905              		.loc 8 72 0
 3906 001e 1100     		movs	r1, r2
 3907              	.LVL576:
 3908 0020 04A8     		add	r0, sp, #16
 3909              	.LVL577:
 3910 0022 FFF7FEFF 		bl	hydro_x25519_swapin
 3911              	.LVL578:
  73:libhydrogen\impl/sign.h ****     memcpy(x3, other1, 2 * sizeof(hydro_x25519_fe));
 3912              		.loc 8 73 0
 3913 0026 4022     		movs	r2, #64
 3914 0028 3100     		movs	r1, r6
 3915 002a 0198     		ldr	r0, [sp, #4]
 3916 002c FFF7FEFF 		bl	memcpy
 3917              	.LVL579:
  74:libhydrogen\impl/sign.h ****     hydro_x25519_ladder_part1(xs);
 3918              		.loc 8 74 0
 3919 0030 3800     		movs	r0, r7
 3920 0032 FFF7FEFF 		bl	hydro_x25519_ladder_part1
 3921              	.LVL580:
  75:libhydrogen\impl/sign.h **** 
  76:libhydrogen\impl/sign.h ****     /* Here z2 = t2^2 */
  77:libhydrogen\impl/sign.h ****     hydro_x25519_mul1(z2, other1);
 3922              		.loc 8 77 0
 3923 0036 3100     		movs	r1, r6
 3924 0038 2800     		movs	r0, r5
ARM GAS  C:\Users\CCPOW_~1\AppData\Local\Temp\cccTFFy7.s 			page 94


 3925 003a FFF7FEFF 		bl	hydro_x25519_mul1
 3926              	.LVL581:
  78:libhydrogen\impl/sign.h ****     hydro_x25519_mul1(z2, other1 + hydro_x25519_NLIMBS);
 3927              		.loc 8 78 0
 3928 003e 3100     		movs	r1, r6
 3929 0040 2031     		adds	r1, r1, #32
 3930 0042 2800     		movs	r0, r5
 3931 0044 FFF7FEFF 		bl	hydro_x25519_mul1
 3932              	.LVL582:
  79:libhydrogen\impl/sign.h ****     hydro_x25519_mul1(z2, xo2);
 3933              		.loc 8 79 0
 3934 0048 04A9     		add	r1, sp, #16
 3935 004a 2800     		movs	r0, r5
 3936 004c FFF7FEFF 		bl	hydro_x25519_mul1
 3937              	.LVL583:
  80:libhydrogen\impl/sign.h **** 
  81:libhydrogen\impl/sign.h ****     hydro_x25519_mul(z2, z2, &sixteen, 1);
 3938              		.loc 8 81 0
 3939 0050 0123     		movs	r3, #1
 3940 0052 03AA     		add	r2, sp, #12
 3941 0054 2900     		movs	r1, r5
 3942 0056 2800     		movs	r0, r5
 3943 0058 FFF7FEFF 		bl	hydro_x25519_mul
 3944              	.LVL584:
  82:libhydrogen\impl/sign.h **** 
  83:libhydrogen\impl/sign.h ****     hydro_x25519_mul1(z3, xo2);
 3945              		.loc 8 83 0
 3946 005c 04A9     		add	r1, sp, #16
 3947 005e 2000     		movs	r0, r4
 3948 0060 FFF7FEFF 		bl	hydro_x25519_mul1
 3949              	.LVL585:
  84:libhydrogen\impl/sign.h ****     hydro_x25519_sub(z3, z3, x3);
 3950              		.loc 8 84 0
 3951 0064 019A     		ldr	r2, [sp, #4]
 3952 0066 2100     		movs	r1, r4
 3953 0068 2000     		movs	r0, r4
 3954 006a FFF7FEFF 		bl	hydro_x25519_sub
 3955              	.LVL586:
  85:libhydrogen\impl/sign.h ****     hydro_x25519_sqr1(z3);
 3956              		.loc 8 85 0
 3957 006e 2000     		movs	r0, r4
 3958 0070 FFF7FEFF 		bl	hydro_x25519_sqr1
 3959              	.LVL587:
  86:libhydrogen\impl/sign.h **** 
  87:libhydrogen\impl/sign.h ****     /* check equality */
  88:libhydrogen\impl/sign.h ****     hydro_x25519_sub(z3, z3, z2);
 3960              		.loc 8 88 0
 3961 0074 2A00     		movs	r2, r5
 3962 0076 2100     		movs	r1, r4
 3963 0078 2000     		movs	r0, r4
 3964 007a FFF7FEFF 		bl	hydro_x25519_sub
 3965              	.LVL588:
  89:libhydrogen\impl/sign.h **** 
  90:libhydrogen\impl/sign.h ****     /* canon(z2): both sides are zero. canon(z3): the two sides are equal. */
  91:libhydrogen\impl/sign.h ****     /* Reject sigs where both sides are zero. */
  92:libhydrogen\impl/sign.h ****     return hydro_x25519_canon(z2) | ~hydro_x25519_canon(z3);
 3966              		.loc 8 92 0
ARM GAS  C:\Users\CCPOW_~1\AppData\Local\Temp\cccTFFy7.s 			page 95


 3967 007e 2800     		movs	r0, r5
 3968 0080 FFF7FEFF 		bl	hydro_x25519_canon
 3969              	.LVL589:
 3970 0084 0500     		movs	r5, r0
 3971              	.LVL590:
 3972 0086 2000     		movs	r0, r4
 3973 0088 FFF7FEFF 		bl	hydro_x25519_canon
 3974              	.LVL591:
 3975 008c C043     		mvns	r0, r0
 3976 008e 2843     		orrs	r0, r5
  93:libhydrogen\impl/sign.h **** }
 3977              		.loc 8 93 0
 3978 0090 0DB0     		add	sp, sp, #52
 3979              		@ sp needed
 3980              	.LVL592:
 3981              	.LVL593:
 3982              	.LVL594:
 3983 0092 F0BD     		pop	{r4, r5, r6, r7, pc}
 3984              		.cfi_endproc
 3985              	.LFE109:
 3986              		.size	hydro_sign_verify_core, .-hydro_sign_verify_core
 3987              		.section	.text.hydro_sign_verify_p2,"ax",%progbits
 3988              		.align	2
 3989              		.code	16
 3990              		.thumb_func
 3991              		.type	hydro_sign_verify_p2, %function
 3992              	hydro_sign_verify_p2:
 3993              	.LFB110:
  94:libhydrogen\impl/sign.h **** 
  95:libhydrogen\impl/sign.h **** static int
  96:libhydrogen\impl/sign.h **** hydro_sign_verify_p2(const uint8_t sig[hydro_x25519_BYTES],
  97:libhydrogen\impl/sign.h ****                      const uint8_t challenge[hydro_sign_CHALLENGEBYTES],
  98:libhydrogen\impl/sign.h ****                      const uint8_t nonce[hydro_sign_NONCEBYTES],
  99:libhydrogen\impl/sign.h ****                      const uint8_t pk[hydro_x25519_BYTES])
 100:libhydrogen\impl/sign.h **** {
 3994              		.loc 8 100 0
 3995              		.cfi_startproc
 3996              		@ args = 0, pretend = 0, frame = 224
 3997              		@ frame_needed = 0, uses_anonymous_args = 0
 3998              	.LVL595:
 3999 0000 30B5     		push	{r4, r5, lr}
 4000              		.cfi_def_cfa_offset 12
 4001              		.cfi_offset 4, -12
 4002              		.cfi_offset 5, -8
 4003              		.cfi_offset 14, -4
 4004 0002 B9B0     		sub	sp, sp, #228
 4005              		.cfi_def_cfa_offset 240
 4006 0004 0500     		movs	r5, r0
 4007 0006 1400     		movs	r4, r2
 4008 0008 1A00     		movs	r2, r3
 4009              	.LVL596:
 101:libhydrogen\impl/sign.h ****     hydro_x25519_fe xs[7];
 102:libhydrogen\impl/sign.h **** 
 103:libhydrogen\impl/sign.h ****     hydro_x25519_core(&xs[0], challenge, pk, 0);
 4010              		.loc 8 103 0
 4011 000a 0023     		movs	r3, #0
 4012              	.LVL597:
ARM GAS  C:\Users\CCPOW_~1\AppData\Local\Temp\cccTFFy7.s 			page 96


 4013 000c 6846     		mov	r0, sp
 4014              	.LVL598:
 4015 000e FFF7FEFF 		bl	hydro_x25519_core
 4016              	.LVL599:
 104:libhydrogen\impl/sign.h ****     hydro_x25519_core(&xs[2], sig, hydro_x25519_BASE_POINT, 0);
 4017              		.loc 8 104 0
 4018 0012 0023     		movs	r3, #0
 4019 0014 064A     		ldr	r2, .L178
 4020 0016 5432     		adds	r2, r2, #84
 4021 0018 2900     		movs	r1, r5
 4022 001a 10A8     		add	r0, sp, #64
 4023 001c FFF7FEFF 		bl	hydro_x25519_core
 4024              	.LVL600:
 105:libhydrogen\impl/sign.h **** 
 106:libhydrogen\impl/sign.h ****     return hydro_sign_verify_core(&xs[2], xs[0], nonce);
 4025              		.loc 8 106 0
 4026 0020 2200     		movs	r2, r4
 4027 0022 6946     		mov	r1, sp
 4028 0024 10A8     		add	r0, sp, #64
 4029 0026 FFF7FEFF 		bl	hydro_sign_verify_core
 4030              	.LVL601:
 107:libhydrogen\impl/sign.h **** }
 4031              		.loc 8 107 0
 4032 002a 39B0     		add	sp, sp, #228
 4033              		@ sp needed
 4034              	.LVL602:
 4035              	.LVL603:
 4036 002c 30BD     		pop	{r4, r5, pc}
 4037              	.L179:
 4038 002e C046     		.align	2
 4039              	.L178:
 4040 0030 00000000 		.word	.LANCHOR0
 4041              		.cfi_endproc
 4042              	.LFE110:
 4043              		.size	hydro_sign_verify_p2, .-hydro_sign_verify_p2
 4044              		.section	.text.hydro_sign_verify_challenge,"ax",%progbits
 4045              		.align	2
 4046              		.code	16
 4047              		.thumb_func
 4048              		.type	hydro_sign_verify_challenge, %function
 4049              	hydro_sign_verify_challenge:
 4050              	.LFB111:
 108:libhydrogen\impl/sign.h **** 
 109:libhydrogen\impl/sign.h **** static int
