ARM GAS  C:\Users\CCPOW_~1\AppData\Local\Temp\cca7RSpb.s 			page 1


   1              		.syntax unified
   2              		.cpu cortex-m0
   3              		.fpu softvfp
   4              		.eabi_attribute 20, 1
   5              		.eabi_attribute 21, 1
   6              		.eabi_attribute 23, 3
   7              		.eabi_attribute 24, 1
   8              		.eabi_attribute 25, 1
   9              		.eabi_attribute 26, 1
  10              		.eabi_attribute 30, 4
  11              		.eabi_attribute 34, 0
  12              		.eabi_attribute 18, 4
  13              		.thumb
  14              		.syntax unified
  15              		.file	"cyfitter_cfg.c"
  16              		.text
  17              	.Ltext0:
  18              		.cfi_sections	.debug_frame
  19              		.section	.psocinit,"ax",%progbits
  20              		.align	1
  21              		.global	cyfitter_cfg
  22              		.code	16
  23              		.thumb_func
  24              		.type	cyfitter_cfg, %function
  25              	cyfitter_cfg:
  26              	.LFB6:
  27              		.file 1 "Generated_Source\\PSoC4\\cyfitter_cfg.c"
   1:Generated_Source\PSoC4/cyfitter_cfg.c **** 
   2:Generated_Source\PSoC4/cyfitter_cfg.c **** /*******************************************************************************
   3:Generated_Source\PSoC4/cyfitter_cfg.c **** * File Name: cyfitter_cfg.c
   4:Generated_Source\PSoC4/cyfitter_cfg.c **** * 
   5:Generated_Source\PSoC4/cyfitter_cfg.c **** * PSoC Creator  4.1 Update 1
   6:Generated_Source\PSoC4/cyfitter_cfg.c **** *
   7:Generated_Source\PSoC4/cyfitter_cfg.c **** * Description:
   8:Generated_Source\PSoC4/cyfitter_cfg.c **** * This file contains device initialization code.
   9:Generated_Source\PSoC4/cyfitter_cfg.c **** * Except for the user defined sections in CyClockStartupError(), this file should not be modified.
  10:Generated_Source\PSoC4/cyfitter_cfg.c **** * This file is automatically generated by PSoC Creator.
  11:Generated_Source\PSoC4/cyfitter_cfg.c **** *
  12:Generated_Source\PSoC4/cyfitter_cfg.c **** ********************************************************************************
  13:Generated_Source\PSoC4/cyfitter_cfg.c **** * Copyright (c) 2007-2017 Cypress Semiconductor.  All rights reserved.
  14:Generated_Source\PSoC4/cyfitter_cfg.c **** * You may use this file only in accordance with the license, terms, conditions, 
  15:Generated_Source\PSoC4/cyfitter_cfg.c **** * disclaimers, and limitations in the end user license agreement accompanying 
  16:Generated_Source\PSoC4/cyfitter_cfg.c **** * the software package with which this file was provided.
  17:Generated_Source\PSoC4/cyfitter_cfg.c **** ********************************************************************************/
  18:Generated_Source\PSoC4/cyfitter_cfg.c **** 
  19:Generated_Source\PSoC4/cyfitter_cfg.c **** #include <string.h>
  20:Generated_Source\PSoC4/cyfitter_cfg.c **** #include "cytypes.h"
  21:Generated_Source\PSoC4/cyfitter_cfg.c **** #include "cydevice_trm.h"
  22:Generated_Source\PSoC4/cyfitter_cfg.c **** #include "cyfitter.h"
  23:Generated_Source\PSoC4/cyfitter_cfg.c **** #include "CyLib.h"
  24:Generated_Source\PSoC4/cyfitter_cfg.c **** #include "CyLFClk.h"
  25:Generated_Source\PSoC4/cyfitter_cfg.c **** #include "cyfitter_cfg.h"
  26:Generated_Source\PSoC4/cyfitter_cfg.c **** #include "cyapicallbacks.h"
  27:Generated_Source\PSoC4/cyfitter_cfg.c **** 
  28:Generated_Source\PSoC4/cyfitter_cfg.c **** 
  29:Generated_Source\PSoC4/cyfitter_cfg.c **** #if defined(__GNUC__) || defined(__ARMCC_VERSION)
  30:Generated_Source\PSoC4/cyfitter_cfg.c ****     #define CYPACKED 
ARM GAS  C:\Users\CCPOW_~1\AppData\Local\Temp\cca7RSpb.s 			page 2


  31:Generated_Source\PSoC4/cyfitter_cfg.c ****     #define CYPACKED_ATTR __attribute__ ((packed))
  32:Generated_Source\PSoC4/cyfitter_cfg.c ****     #define CYALIGNED __attribute__ ((aligned))
  33:Generated_Source\PSoC4/cyfitter_cfg.c ****     #define CY_CFG_UNUSED __attribute__ ((unused))
  34:Generated_Source\PSoC4/cyfitter_cfg.c ****     #ifndef CY_CFG_SECTION
  35:Generated_Source\PSoC4/cyfitter_cfg.c ****         #define CY_CFG_SECTION __attribute__ ((section(".psocinit")))
  36:Generated_Source\PSoC4/cyfitter_cfg.c ****     #endif
  37:Generated_Source\PSoC4/cyfitter_cfg.c ****     
  38:Generated_Source\PSoC4/cyfitter_cfg.c ****     #if defined(__ARMCC_VERSION)
  39:Generated_Source\PSoC4/cyfitter_cfg.c ****         #define CY_CFG_MEMORY_BARRIER() __memory_changed()
  40:Generated_Source\PSoC4/cyfitter_cfg.c ****     #else
  41:Generated_Source\PSoC4/cyfitter_cfg.c ****         #define CY_CFG_MEMORY_BARRIER() __sync_synchronize()
  42:Generated_Source\PSoC4/cyfitter_cfg.c ****     #endif
  43:Generated_Source\PSoC4/cyfitter_cfg.c ****     
  44:Generated_Source\PSoC4/cyfitter_cfg.c **** #elif defined(__ICCARM__)
  45:Generated_Source\PSoC4/cyfitter_cfg.c ****     #include <intrinsics.h>
  46:Generated_Source\PSoC4/cyfitter_cfg.c **** 
  47:Generated_Source\PSoC4/cyfitter_cfg.c ****     #define CYPACKED __packed
  48:Generated_Source\PSoC4/cyfitter_cfg.c ****     #define CYPACKED_ATTR 
  49:Generated_Source\PSoC4/cyfitter_cfg.c ****     #define CYALIGNED _Pragma("data_alignment=4")
  50:Generated_Source\PSoC4/cyfitter_cfg.c ****     #define CY_CFG_UNUSED _Pragma("diag_suppress=Pe177")
  51:Generated_Source\PSoC4/cyfitter_cfg.c ****     #define CY_CFG_SECTION _Pragma("location=\".psocinit\"")
  52:Generated_Source\PSoC4/cyfitter_cfg.c ****     
  53:Generated_Source\PSoC4/cyfitter_cfg.c ****     #define CY_CFG_MEMORY_BARRIER() __DMB()
  54:Generated_Source\PSoC4/cyfitter_cfg.c ****     
  55:Generated_Source\PSoC4/cyfitter_cfg.c **** #else
  56:Generated_Source\PSoC4/cyfitter_cfg.c ****     #error Unsupported toolchain
  57:Generated_Source\PSoC4/cyfitter_cfg.c **** #endif
  58:Generated_Source\PSoC4/cyfitter_cfg.c **** 
  59:Generated_Source\PSoC4/cyfitter_cfg.c **** #ifndef CYCODE
  60:Generated_Source\PSoC4/cyfitter_cfg.c ****     #define CYCODE
  61:Generated_Source\PSoC4/cyfitter_cfg.c **** #endif
  62:Generated_Source\PSoC4/cyfitter_cfg.c **** #ifndef CYDATA
  63:Generated_Source\PSoC4/cyfitter_cfg.c ****     #define CYDATA
  64:Generated_Source\PSoC4/cyfitter_cfg.c **** #endif
  65:Generated_Source\PSoC4/cyfitter_cfg.c **** #ifndef CYFAR
  66:Generated_Source\PSoC4/cyfitter_cfg.c ****     #define CYFAR
  67:Generated_Source\PSoC4/cyfitter_cfg.c **** #endif
  68:Generated_Source\PSoC4/cyfitter_cfg.c **** #ifndef CYXDATA
  69:Generated_Source\PSoC4/cyfitter_cfg.c ****     #define CYXDATA
  70:Generated_Source\PSoC4/cyfitter_cfg.c **** #endif
  71:Generated_Source\PSoC4/cyfitter_cfg.c **** 
  72:Generated_Source\PSoC4/cyfitter_cfg.c **** 
  73:Generated_Source\PSoC4/cyfitter_cfg.c **** CY_CFG_UNUSED
  74:Generated_Source\PSoC4/cyfitter_cfg.c **** static void CYMEMZERO(void *s, size_t n);
  75:Generated_Source\PSoC4/cyfitter_cfg.c **** CY_CFG_UNUSED
  76:Generated_Source\PSoC4/cyfitter_cfg.c **** static void CYMEMZERO(void *s, size_t n)
  77:Generated_Source\PSoC4/cyfitter_cfg.c **** {
  78:Generated_Source\PSoC4/cyfitter_cfg.c **** 	(void)memset(s, 0, n);
  79:Generated_Source\PSoC4/cyfitter_cfg.c **** }
  80:Generated_Source\PSoC4/cyfitter_cfg.c **** CY_CFG_UNUSED
  81:Generated_Source\PSoC4/cyfitter_cfg.c **** static void CYCONFIGCPY(void *dest, const void *src, size_t n);
  82:Generated_Source\PSoC4/cyfitter_cfg.c **** CY_CFG_UNUSED
  83:Generated_Source\PSoC4/cyfitter_cfg.c **** static void CYCONFIGCPY(void *dest, const void *src, size_t n)
  84:Generated_Source\PSoC4/cyfitter_cfg.c **** {
  85:Generated_Source\PSoC4/cyfitter_cfg.c **** 	(void)memcpy(dest, src, n);
  86:Generated_Source\PSoC4/cyfitter_cfg.c **** }
  87:Generated_Source\PSoC4/cyfitter_cfg.c **** CY_CFG_UNUSED
ARM GAS  C:\Users\CCPOW_~1\AppData\Local\Temp\cca7RSpb.s 			page 3


  88:Generated_Source\PSoC4/cyfitter_cfg.c **** static void CYCONFIGCPYCODE(void *dest, const void *src, size_t n);
  89:Generated_Source\PSoC4/cyfitter_cfg.c **** CY_CFG_UNUSED
  90:Generated_Source\PSoC4/cyfitter_cfg.c **** static void CYCONFIGCPYCODE(void *dest, const void *src, size_t n)
  91:Generated_Source\PSoC4/cyfitter_cfg.c **** {
  92:Generated_Source\PSoC4/cyfitter_cfg.c **** 	(void)memcpy(dest, src, n);
  93:Generated_Source\PSoC4/cyfitter_cfg.c **** }
  94:Generated_Source\PSoC4/cyfitter_cfg.c **** 
  95:Generated_Source\PSoC4/cyfitter_cfg.c **** 
  96:Generated_Source\PSoC4/cyfitter_cfg.c **** 
  97:Generated_Source\PSoC4/cyfitter_cfg.c **** 
  98:Generated_Source\PSoC4/cyfitter_cfg.c **** /* Clock startup error codes                                                   */
  99:Generated_Source\PSoC4/cyfitter_cfg.c **** #define CYCLOCKSTART_NO_ERROR    0u
 100:Generated_Source\PSoC4/cyfitter_cfg.c **** #define CYCLOCKSTART_XTAL_ERROR  1u
 101:Generated_Source\PSoC4/cyfitter_cfg.c **** #define CYCLOCKSTART_32KHZ_ERROR 2u
 102:Generated_Source\PSoC4/cyfitter_cfg.c **** #define CYCLOCKSTART_PLL_ERROR   3u
 103:Generated_Source\PSoC4/cyfitter_cfg.c **** #define CYCLOCKSTART_FLL_ERROR   4u
 104:Generated_Source\PSoC4/cyfitter_cfg.c **** 
 105:Generated_Source\PSoC4/cyfitter_cfg.c **** 
 106:Generated_Source\PSoC4/cyfitter_cfg.c **** #ifdef CY_NEED_CYCLOCKSTARTUPERROR
 107:Generated_Source\PSoC4/cyfitter_cfg.c **** /*******************************************************************************
 108:Generated_Source\PSoC4/cyfitter_cfg.c **** * Function Name: CyClockStartupError
 109:Generated_Source\PSoC4/cyfitter_cfg.c **** ********************************************************************************
 110:Generated_Source\PSoC4/cyfitter_cfg.c **** * Summary:
 111:Generated_Source\PSoC4/cyfitter_cfg.c **** *  If an error is encountered during clock configuration (crystal startup error,
 112:Generated_Source\PSoC4/cyfitter_cfg.c **** *  PLL lock error, etc.), the system will end up here.  Unless reimplemented by
 113:Generated_Source\PSoC4/cyfitter_cfg.c **** *  the customer, this function will stop in an infinite loop.
 114:Generated_Source\PSoC4/cyfitter_cfg.c **** *
 115:Generated_Source\PSoC4/cyfitter_cfg.c **** * Parameters:
 116:Generated_Source\PSoC4/cyfitter_cfg.c **** *   void
 117:Generated_Source\PSoC4/cyfitter_cfg.c **** *
 118:Generated_Source\PSoC4/cyfitter_cfg.c **** * Return:
 119:Generated_Source\PSoC4/cyfitter_cfg.c **** *   void
 120:Generated_Source\PSoC4/cyfitter_cfg.c **** *
 121:Generated_Source\PSoC4/cyfitter_cfg.c **** *******************************************************************************/
 122:Generated_Source\PSoC4/cyfitter_cfg.c **** CY_CFG_UNUSED
 123:Generated_Source\PSoC4/cyfitter_cfg.c **** static void CyClockStartupError(uint8 errorCode);
 124:Generated_Source\PSoC4/cyfitter_cfg.c **** CY_CFG_UNUSED
 125:Generated_Source\PSoC4/cyfitter_cfg.c **** static void CyClockStartupError(uint8 errorCode)
 126:Generated_Source\PSoC4/cyfitter_cfg.c **** {
 127:Generated_Source\PSoC4/cyfitter_cfg.c ****     /* To remove the compiler warning if errorCode not used. */
 128:Generated_Source\PSoC4/cyfitter_cfg.c **** #if defined(CY_PSOC3) && (CY_PSOC3)
 129:Generated_Source\PSoC4/cyfitter_cfg.c ****     errorCode = errorCode;
 130:Generated_Source\PSoC4/cyfitter_cfg.c **** #else
 131:Generated_Source\PSoC4/cyfitter_cfg.c ****     (void)errorCode;
 132:Generated_Source\PSoC4/cyfitter_cfg.c **** #endif /* CY_PSOC3 */
 133:Generated_Source\PSoC4/cyfitter_cfg.c **** 
 134:Generated_Source\PSoC4/cyfitter_cfg.c ****     /* If we have a clock startup error (bad MHz crystal, PLL lock, etc.),  */
 135:Generated_Source\PSoC4/cyfitter_cfg.c ****     /* we will end up here to allow the customer to implement something to  */
 136:Generated_Source\PSoC4/cyfitter_cfg.c ****     /* deal with the clock condition.                                       */
 137:Generated_Source\PSoC4/cyfitter_cfg.c **** 
 138:Generated_Source\PSoC4/cyfitter_cfg.c **** #ifdef CY_CFG_CLOCK_STARTUP_ERROR_CALLBACK
 139:Generated_Source\PSoC4/cyfitter_cfg.c ****     CY_CFG_Clock_Startup_ErrorCallback();
 140:Generated_Source\PSoC4/cyfitter_cfg.c **** #else
 141:Generated_Source\PSoC4/cyfitter_cfg.c ****     /*  If not using CY_CFG_CLOCK_STARTUP_ERROR_CALLBACK, place your clock startup code here. */
 142:Generated_Source\PSoC4/cyfitter_cfg.c ****     /* `#START CyClockStartupError` */
 143:Generated_Source\PSoC4/cyfitter_cfg.c **** 
 144:Generated_Source\PSoC4/cyfitter_cfg.c **** 
ARM GAS  C:\Users\CCPOW_~1\AppData\Local\Temp\cca7RSpb.s 			page 4


 145:Generated_Source\PSoC4/cyfitter_cfg.c **** 
 146:Generated_Source\PSoC4/cyfitter_cfg.c ****     /* `#END` */
 147:Generated_Source\PSoC4/cyfitter_cfg.c **** 
 148:Generated_Source\PSoC4/cyfitter_cfg.c ****     while(1) {}
 149:Generated_Source\PSoC4/cyfitter_cfg.c **** #endif /* CY_CFG_CLOCK_STARTUP_ERROR_CALLBACK */
 150:Generated_Source\PSoC4/cyfitter_cfg.c **** }
 151:Generated_Source\PSoC4/cyfitter_cfg.c **** #endif
 152:Generated_Source\PSoC4/cyfitter_cfg.c **** 
 153:Generated_Source\PSoC4/cyfitter_cfg.c **** #define CY_CFG_BASE_ADDR_COUNT 8u
 154:Generated_Source\PSoC4/cyfitter_cfg.c **** CYPACKED typedef struct
 155:Generated_Source\PSoC4/cyfitter_cfg.c **** {
 156:Generated_Source\PSoC4/cyfitter_cfg.c **** 	uint8 offset;
 157:Generated_Source\PSoC4/cyfitter_cfg.c **** 	uint8 value;
 158:Generated_Source\PSoC4/cyfitter_cfg.c **** } CYPACKED_ATTR cy_cfg_addrvalue_t;
 159:Generated_Source\PSoC4/cyfitter_cfg.c **** 
 160:Generated_Source\PSoC4/cyfitter_cfg.c **** 
 161:Generated_Source\PSoC4/cyfitter_cfg.c **** 
 162:Generated_Source\PSoC4/cyfitter_cfg.c **** /*******************************************************************************
 163:Generated_Source\PSoC4/cyfitter_cfg.c **** * Function Name: cfg_write_bytes32
 164:Generated_Source\PSoC4/cyfitter_cfg.c **** ********************************************************************************
 165:Generated_Source\PSoC4/cyfitter_cfg.c **** * Summary:
 166:Generated_Source\PSoC4/cyfitter_cfg.c **** *  This function is used for setting up the chip configuration areas that
 167:Generated_Source\PSoC4/cyfitter_cfg.c **** *  contain relatively sparse data.
 168:Generated_Source\PSoC4/cyfitter_cfg.c **** *
 169:Generated_Source\PSoC4/cyfitter_cfg.c **** * Parameters:
 170:Generated_Source\PSoC4/cyfitter_cfg.c **** *   void
 171:Generated_Source\PSoC4/cyfitter_cfg.c **** *
 172:Generated_Source\PSoC4/cyfitter_cfg.c **** * Return:
 173:Generated_Source\PSoC4/cyfitter_cfg.c **** *   void
 174:Generated_Source\PSoC4/cyfitter_cfg.c **** *
 175:Generated_Source\PSoC4/cyfitter_cfg.c **** *******************************************************************************/
 176:Generated_Source\PSoC4/cyfitter_cfg.c **** static void cfg_write_bytes32(const uint32 addr_table[], const cy_cfg_addrvalue_t data_table[]);
 177:Generated_Source\PSoC4/cyfitter_cfg.c **** static void cfg_write_bytes32(const uint32 addr_table[], const cy_cfg_addrvalue_t data_table[])
 178:Generated_Source\PSoC4/cyfitter_cfg.c **** {
 179:Generated_Source\PSoC4/cyfitter_cfg.c **** 	/* For 32-bit little-endian architectures */
 180:Generated_Source\PSoC4/cyfitter_cfg.c **** 	uint32 i, j = 0u;
 181:Generated_Source\PSoC4/cyfitter_cfg.c **** 	for (i = 0u; i < CY_CFG_BASE_ADDR_COUNT; i++)
 182:Generated_Source\PSoC4/cyfitter_cfg.c **** 	{
 183:Generated_Source\PSoC4/cyfitter_cfg.c **** 		uint32 baseAddr = addr_table[i];
 184:Generated_Source\PSoC4/cyfitter_cfg.c **** 		uint8 count = (uint8)baseAddr;
 185:Generated_Source\PSoC4/cyfitter_cfg.c **** 		baseAddr &= 0xFFFFFF00u;
 186:Generated_Source\PSoC4/cyfitter_cfg.c **** 		while (count != 0u)
 187:Generated_Source\PSoC4/cyfitter_cfg.c **** 		{
 188:Generated_Source\PSoC4/cyfitter_cfg.c **** 			CY_SET_REG8((void *)(baseAddr + data_table[j].offset), data_table[j].value);
 189:Generated_Source\PSoC4/cyfitter_cfg.c **** 			j++;
 190:Generated_Source\PSoC4/cyfitter_cfg.c **** 			count--;
 191:Generated_Source\PSoC4/cyfitter_cfg.c **** 		}
 192:Generated_Source\PSoC4/cyfitter_cfg.c **** 	}
 193:Generated_Source\PSoC4/cyfitter_cfg.c **** }
 194:Generated_Source\PSoC4/cyfitter_cfg.c **** 
 195:Generated_Source\PSoC4/cyfitter_cfg.c **** 
 196:Generated_Source\PSoC4/cyfitter_cfg.c **** /*******************************************************************************
 197:Generated_Source\PSoC4/cyfitter_cfg.c **** * Function Name: ClockSetup
 198:Generated_Source\PSoC4/cyfitter_cfg.c **** ********************************************************************************
 199:Generated_Source\PSoC4/cyfitter_cfg.c **** *
 200:Generated_Source\PSoC4/cyfitter_cfg.c **** * Summary:
 201:Generated_Source\PSoC4/cyfitter_cfg.c **** *   Performs the initialization of all of the clocks in the device based on the
ARM GAS  C:\Users\CCPOW_~1\AppData\Local\Temp\cca7RSpb.s 			page 5


 202:Generated_Source\PSoC4/cyfitter_cfg.c **** *   settings in the Clock tab of the DWR.  This includes enabling the requested
 203:Generated_Source\PSoC4/cyfitter_cfg.c **** *   clocks and setting the necessary dividers to produce the desired frequency. 
 204:Generated_Source\PSoC4/cyfitter_cfg.c **** *
 205:Generated_Source\PSoC4/cyfitter_cfg.c **** * Parameters:
 206:Generated_Source\PSoC4/cyfitter_cfg.c **** *   void
 207:Generated_Source\PSoC4/cyfitter_cfg.c **** *
 208:Generated_Source\PSoC4/cyfitter_cfg.c **** * Return:
 209:Generated_Source\PSoC4/cyfitter_cfg.c **** *   void
 210:Generated_Source\PSoC4/cyfitter_cfg.c **** *
 211:Generated_Source\PSoC4/cyfitter_cfg.c **** *******************************************************************************/
 212:Generated_Source\PSoC4/cyfitter_cfg.c **** static void ClockSetup(void);
 213:Generated_Source\PSoC4/cyfitter_cfg.c **** CY_CFG_SECTION
 214:Generated_Source\PSoC4/cyfitter_cfg.c **** static void ClockSetup(void)
 215:Generated_Source\PSoC4/cyfitter_cfg.c **** {
 216:Generated_Source\PSoC4/cyfitter_cfg.c **** 	/* Enable HALF_EN before trimming for the flash accelerator. */
 217:Generated_Source\PSoC4/cyfitter_cfg.c **** 	CY_SET_REG32((void CYXDATA *)(CYREG_CLK_SELECT), (CY_GET_REG32((void *)CYREG_CLK_SELECT) | 0x00040
 218:Generated_Source\PSoC4/cyfitter_cfg.c **** 
 219:Generated_Source\PSoC4/cyfitter_cfg.c **** 	/* Setup and trim IMO based on desired frequency. */
 220:Generated_Source\PSoC4/cyfitter_cfg.c **** 	CySysClkWriteImoFreq(15u);
 221:Generated_Source\PSoC4/cyfitter_cfg.c **** 
 222:Generated_Source\PSoC4/cyfitter_cfg.c **** 	/* Disable HALF_EN since it is not required at this IMO frequency. */
 223:Generated_Source\PSoC4/cyfitter_cfg.c **** 	CY_SET_REG32((void CYXDATA *)(CYREG_CLK_SELECT), (CY_GET_REG32((void *)CYREG_CLK_SELECT) & 0xFFFBF
 224:Generated_Source\PSoC4/cyfitter_cfg.c **** 	/* CYDEV_CLK_ILO_CONFIG Starting address: CYDEV_CLK_ILO_CONFIG */
 225:Generated_Source\PSoC4/cyfitter_cfg.c **** 	CY_SET_REG32((void *)(CYREG_CLK_ILO_CONFIG), 0x80000006u);
 226:Generated_Source\PSoC4/cyfitter_cfg.c **** 
 227:Generated_Source\PSoC4/cyfitter_cfg.c **** 
 228:Generated_Source\PSoC4/cyfitter_cfg.c **** 	/* CYDEV_CLK_SELECT00 Starting address: CYDEV_CLK_SELECT00 */
 229:Generated_Source\PSoC4/cyfitter_cfg.c **** 	CY_SET_REG32((void *)(CYREG_CLK_SELECT02), 0x00000010u);
 230:Generated_Source\PSoC4/cyfitter_cfg.c **** 	CY_SET_REG32((void *)(CYREG_CLK_SELECT12), 0x00000020u);
 231:Generated_Source\PSoC4/cyfitter_cfg.c **** 
 232:Generated_Source\PSoC4/cyfitter_cfg.c **** 	/* CYDEV_CLK_IMO_CONFIG Starting address: CYDEV_CLK_IMO_CONFIG */
 233:Generated_Source\PSoC4/cyfitter_cfg.c **** 	CY_SET_REG32((void *)(CYREG_CLK_IMO_CONFIG), 0x80000000u);
 234:Generated_Source\PSoC4/cyfitter_cfg.c **** 
 235:Generated_Source\PSoC4/cyfitter_cfg.c **** 	/* CYDEV_CLK_SELECT Starting address: CYDEV_CLK_SELECT */
 236:Generated_Source\PSoC4/cyfitter_cfg.c **** 	CY_SET_REG32((void *)(CYREG_CLK_SELECT), 0x00000000u);
 237:Generated_Source\PSoC4/cyfitter_cfg.c **** 
 238:Generated_Source\PSoC4/cyfitter_cfg.c **** 	/* CYDEV_CLK_DIVIDER_A00 Starting address: CYDEV_CLK_DIVIDER_A00 */
 239:Generated_Source\PSoC4/cyfitter_cfg.c **** 	CY_SET_REG32((void *)(CYREG_CLK_DIVIDER_A00), 0x8000000Au);
 240:Generated_Source\PSoC4/cyfitter_cfg.c **** 
 241:Generated_Source\PSoC4/cyfitter_cfg.c **** 	/* CYDEV_CLK_DIVIDER_B00 Starting address: CYDEV_CLK_DIVIDER_B00 */
 242:Generated_Source\PSoC4/cyfitter_cfg.c **** 	CY_SET_REG32((void *)(CYREG_CLK_DIVIDER_B00), 0x8000000Fu);
 243:Generated_Source\PSoC4/cyfitter_cfg.c **** 
 244:Generated_Source\PSoC4/cyfitter_cfg.c **** 	(void)CyIntSetVector(9u, &CySysWdtIsr);
 245:Generated_Source\PSoC4/cyfitter_cfg.c **** 	CyIntEnable(9u);
 246:Generated_Source\PSoC4/cyfitter_cfg.c **** 	CY_SET_REG32((void *)(CYREG_WDT_CONFIG), 0x00000000u);
 247:Generated_Source\PSoC4/cyfitter_cfg.c **** }
 248:Generated_Source\PSoC4/cyfitter_cfg.c **** 
 249:Generated_Source\PSoC4/cyfitter_cfg.c **** 
 250:Generated_Source\PSoC4/cyfitter_cfg.c **** /* Analog API Functions */
 251:Generated_Source\PSoC4/cyfitter_cfg.c **** 
 252:Generated_Source\PSoC4/cyfitter_cfg.c **** 
 253:Generated_Source\PSoC4/cyfitter_cfg.c **** /*******************************************************************************
 254:Generated_Source\PSoC4/cyfitter_cfg.c **** * Function Name: AnalogSetDefault
 255:Generated_Source\PSoC4/cyfitter_cfg.c **** ********************************************************************************
 256:Generated_Source\PSoC4/cyfitter_cfg.c **** *
 257:Generated_Source\PSoC4/cyfitter_cfg.c **** * Summary:
 258:Generated_Source\PSoC4/cyfitter_cfg.c **** *  Sets up the analog portions of the chip to default values based on chip
ARM GAS  C:\Users\CCPOW_~1\AppData\Local\Temp\cca7RSpb.s 			page 6


 259:Generated_Source\PSoC4/cyfitter_cfg.c **** *  configuration options from the project.
 260:Generated_Source\PSoC4/cyfitter_cfg.c **** *
 261:Generated_Source\PSoC4/cyfitter_cfg.c **** * Parameters:
 262:Generated_Source\PSoC4/cyfitter_cfg.c **** *  void
 263:Generated_Source\PSoC4/cyfitter_cfg.c **** *
 264:Generated_Source\PSoC4/cyfitter_cfg.c **** * Return:
 265:Generated_Source\PSoC4/cyfitter_cfg.c **** *  void
 266:Generated_Source\PSoC4/cyfitter_cfg.c **** *
 267:Generated_Source\PSoC4/cyfitter_cfg.c **** *******************************************************************************/
 268:Generated_Source\PSoC4/cyfitter_cfg.c **** static void AnalogSetDefault(void);
 269:Generated_Source\PSoC4/cyfitter_cfg.c **** static void AnalogSetDefault(void)
 270:Generated_Source\PSoC4/cyfitter_cfg.c **** {
 271:Generated_Source\PSoC4/cyfitter_cfg.c **** }
 272:Generated_Source\PSoC4/cyfitter_cfg.c **** 
 273:Generated_Source\PSoC4/cyfitter_cfg.c **** 
 274:Generated_Source\PSoC4/cyfitter_cfg.c **** 
 275:Generated_Source\PSoC4/cyfitter_cfg.c **** 
 276:Generated_Source\PSoC4/cyfitter_cfg.c **** /*******************************************************************************
 277:Generated_Source\PSoC4/cyfitter_cfg.c **** * Function Name: cyfitter_cfg
 278:Generated_Source\PSoC4/cyfitter_cfg.c **** ********************************************************************************
 279:Generated_Source\PSoC4/cyfitter_cfg.c **** * Summary:
 280:Generated_Source\PSoC4/cyfitter_cfg.c **** *  This function is called by the start-up code for the selected device. It
 281:Generated_Source\PSoC4/cyfitter_cfg.c **** *  performs all of the necessary device configuration based on the design
 282:Generated_Source\PSoC4/cyfitter_cfg.c **** *  settings.  This includes settings from the Design Wide Resources (DWR) such
 283:Generated_Source\PSoC4/cyfitter_cfg.c **** *  as Clocks and Pins as well as any component configuration that is necessary.
 284:Generated_Source\PSoC4/cyfitter_cfg.c **** *
 285:Generated_Source\PSoC4/cyfitter_cfg.c **** * Parameters:
 286:Generated_Source\PSoC4/cyfitter_cfg.c **** *   void
 287:Generated_Source\PSoC4/cyfitter_cfg.c **** *
 288:Generated_Source\PSoC4/cyfitter_cfg.c **** * Return:
 289:Generated_Source\PSoC4/cyfitter_cfg.c **** *   void
 290:Generated_Source\PSoC4/cyfitter_cfg.c **** *
 291:Generated_Source\PSoC4/cyfitter_cfg.c **** *******************************************************************************/
 292:Generated_Source\PSoC4/cyfitter_cfg.c **** CY_CFG_SECTION
 293:Generated_Source\PSoC4/cyfitter_cfg.c **** void cyfitter_cfg(void)
 294:Generated_Source\PSoC4/cyfitter_cfg.c **** {
  28              		.loc 1 294 0
  29              		.cfi_startproc
  30              		@ args = 0, pretend = 0, frame = 8
  31              		@ frame_needed = 0, uses_anonymous_args = 0
  32 0000 F7B5     		push	{r0, r1, r2, r4, r5, r6, r7, lr}
  33              		.cfi_def_cfa_offset 32
  34              		.cfi_offset 0, -32
  35              		.cfi_offset 1, -28
  36              		.cfi_offset 2, -24
  37              		.cfi_offset 4, -20
  38              		.cfi_offset 5, -16
  39              		.cfi_offset 6, -12
  40              		.cfi_offset 7, -8
  41              		.cfi_offset 14, -4
 295:Generated_Source\PSoC4/cyfitter_cfg.c **** 	/* Disable interrupts by default. Let user enable if/when they want. */
 296:Generated_Source\PSoC4/cyfitter_cfg.c **** 	CyGlobalIntDisable;
  42              		.loc 1 296 0
  43              		.syntax divided
  44              	@ 296 "Generated_Source\PSoC4\cyfitter_cfg.c" 1
  45 0002 72B6     		CPSID   i
  46              	@ 0 "" 2
ARM GAS  C:\Users\CCPOW_~1\AppData\Local\Temp\cca7RSpb.s 			page 7


 297:Generated_Source\PSoC4/cyfitter_cfg.c **** 
 298:Generated_Source\PSoC4/cyfitter_cfg.c **** 	/* Enable the clock in the interrupt controller for the routed interrupts */
 299:Generated_Source\PSoC4/cyfitter_cfg.c **** 	CY_SET_REG8((void *)CYREG_UDB_UDBIF_INT_CLK_CTL, 0x01u);
  47              		.loc 1 299 0
  48              		.thumb
  49              		.syntax unified
  50 0004 0122     		movs	r2, #1
  51 0006 514B     		ldr	r3, .L8
  52              	.LBB16:
  53              	.LBB17:
  54              	.LBB18:
  55              	.LBB19:
  78:Generated_Source\PSoC4/cyfitter_cfg.c **** }
  56              		.loc 1 78 0
  57 0008 0021     		movs	r1, #0
  58              	.LBE19:
  59              	.LBE18:
  60              	.LBE17:
  61              	.LBE16:
  62              		.loc 1 299 0
  63 000a 1A70     		strb	r2, [r3]
  64              	.LVL0:
  65              	.LBB32:
  66              	.LBB24:
  67              	.LBB22:
  68              	.LBB20:
  78:Generated_Source\PSoC4/cyfitter_cfg.c **** }
  69              		.loc 1 78 0
  70 000c 8022     		movs	r2, #128
  71 000e 5048     		ldr	r0, .L8+4
  72 0010 D200     		lsls	r2, r2, #3
  73 0012 FFF7FEFF 		bl	memset
  74              	.LVL1:
  75 0016 8022     		movs	r2, #128
  76 0018 0024     		movs	r4, #0
  77 001a D200     		lsls	r2, r2, #3
  78 001c 0021     		movs	r1, #0
  79 001e 4D48     		ldr	r0, .L8+8
  80 0020 FFF7FEFF 		bl	memset
  81              	.LVL2:
  82              	.LBE20:
  83              	.LBE22:
  84              	.LBE24:
  85              	.LBB25:
  86              	.LBB26:
  87              	.LBB27:
 185:Generated_Source\PSoC4/cyfitter_cfg.c **** 		while (count != 0u)
  88              		.loc 1 185 0
  89 0024 FF25     		movs	r5, #255
  90              	.LBE27:
  91              	.LBE26:
  92              	.LBE25:
  93              	.LBB30:
  94              	.LBB23:
  95              	.LBB21:
  78:Generated_Source\PSoC4/cyfitter_cfg.c **** }
  96              		.loc 1 78 0
ARM GAS  C:\Users\CCPOW_~1\AppData\Local\Temp\cca7RSpb.s 			page 8


  97 0026 2200     		movs	r2, r4
  98 0028 4B4E     		ldr	r6, .L8+12
  99 002a 2036     		adds	r6, r6, #32
 100              	.LVL3:
 101              	.L4:
 102              	.LBE21:
 103              	.LBE23:
 104              	.LBE30:
 105              	.LBB31:
 106              	.LBB29:
 107              	.LBB28:
 183:Generated_Source\PSoC4/cyfitter_cfg.c **** 		uint8 count = (uint8)baseAddr;
 108              		.loc 1 183 0
 109 002c 4A4B     		ldr	r3, .L8+12
 110 002e E158     		ldr	r1, [r4, r3]
 111              	.LVL4:
 112 0030 5300     		lsls	r3, r2, #1
 185:Generated_Source\PSoC4/cyfitter_cfg.c **** 		while (count != 0u)
 113              		.loc 1 185 0
 114 0032 0F00     		movs	r7, r1
 115 0034 2940     		ands	r1, r5
 116              	.LVL5:
 117 0036 5218     		adds	r2, r2, r1
 118              	.LVL6:
 119 0038 5100     		lsls	r1, r2, #1
 120 003a 0131     		adds	r1, r1, #1
 121 003c 0133     		adds	r3, r3, #1
 122 003e 7118     		adds	r1, r6, r1
 123 0040 AF43     		bics	r7, r5
 124              	.LVL7:
 125 0042 F318     		adds	r3, r6, r3
 126 0044 0191     		str	r1, [sp, #4]
 127              	.LVL8:
 128              	.L2:
 186:Generated_Source\PSoC4/cyfitter_cfg.c **** 		{
 129              		.loc 1 186 0
 130 0046 0199     		ldr	r1, [sp, #4]
 131 0048 8B42     		cmp	r3, r1
 132 004a 07D0     		beq	.L7
 188:Generated_Source\PSoC4/cyfitter_cfg.c **** 			j++;
 133              		.loc 1 188 0
 134 004c 591E     		subs	r1, r3, #1
 135 004e 0978     		ldrb	r1, [r1]
 136 0050 C919     		adds	r1, r1, r7
 137 0052 0800     		movs	r0, r1
 138 0054 1978     		ldrb	r1, [r3]
 139 0056 0233     		adds	r3, r3, #2
 140 0058 0170     		strb	r1, [r0]
 141 005a F4E7     		b	.L2
 142              	.L7:
 143              	.LVL9:
 144 005c 0434     		adds	r4, r4, #4
 145              	.LBE28:
 181:Generated_Source\PSoC4/cyfitter_cfg.c **** 	{
 146              		.loc 1 181 0
 147 005e 202C     		cmp	r4, #32
 148 0060 E4D1     		bne	.L4
ARM GAS  C:\Users\CCPOW_~1\AppData\Local\Temp\cca7RSpb.s 			page 9


 149              	.LVL10:
 150              	.LBE29:
 151              	.LBE31:
 300:Generated_Source\PSoC4/cyfitter_cfg.c **** 	{
 301:Generated_Source\PSoC4/cyfitter_cfg.c **** 		static const uint32 CYCODE cy_cfg_addr_table[] = {
 302:Generated_Source\PSoC4/cyfitter_cfg.c **** 			0x400F0003u, /* Base address: 0x400F0000 Count: 3 */
 303:Generated_Source\PSoC4/cyfitter_cfg.c **** 			0x400F3059u, /* Base address: 0x400F3000 Count: 89 */
 304:Generated_Source\PSoC4/cyfitter_cfg.c **** 			0x400F313Au, /* Base address: 0x400F3100 Count: 58 */
 305:Generated_Source\PSoC4/cyfitter_cfg.c **** 			0x400F326Eu, /* Base address: 0x400F3200 Count: 110 */
 306:Generated_Source\PSoC4/cyfitter_cfg.c **** 			0x400F3352u, /* Base address: 0x400F3300 Count: 82 */
 307:Generated_Source\PSoC4/cyfitter_cfg.c **** 			0x400F4009u, /* Base address: 0x400F4000 Count: 9 */
 308:Generated_Source\PSoC4/cyfitter_cfg.c **** 			0x400F410Bu, /* Base address: 0x400F4100 Count: 11 */
 309:Generated_Source\PSoC4/cyfitter_cfg.c **** 			0x400F6002u, /* Base address: 0x400F6000 Count: 2 */
 310:Generated_Source\PSoC4/cyfitter_cfg.c **** 		};
 311:Generated_Source\PSoC4/cyfitter_cfg.c **** 
 312:Generated_Source\PSoC4/cyfitter_cfg.c **** 		static const cy_cfg_addrvalue_t CYCODE cy_cfg_data_table[] = {
 313:Generated_Source\PSoC4/cyfitter_cfg.c **** 			{0x80u, 0x0Fu},
 314:Generated_Source\PSoC4/cyfitter_cfg.c **** 			{0x81u, 0x7Au},
 315:Generated_Source\PSoC4/cyfitter_cfg.c **** 			{0x82u, 0x38u},
 316:Generated_Source\PSoC4/cyfitter_cfg.c **** 			{0x04u, 0x33u},
 317:Generated_Source\PSoC4/cyfitter_cfg.c **** 			{0x05u, 0x01u},
 318:Generated_Source\PSoC4/cyfitter_cfg.c **** 			{0x06u, 0x0Cu},
 319:Generated_Source\PSoC4/cyfitter_cfg.c **** 			{0x0Au, 0x08u},
 320:Generated_Source\PSoC4/cyfitter_cfg.c **** 			{0x14u, 0x33u},
 321:Generated_Source\PSoC4/cyfitter_cfg.c **** 			{0x16u, 0x04u},
 322:Generated_Source\PSoC4/cyfitter_cfg.c **** 			{0x18u, 0x0Au},
 323:Generated_Source\PSoC4/cyfitter_cfg.c **** 			{0x1Au, 0x34u},
 324:Generated_Source\PSoC4/cyfitter_cfg.c **** 			{0x24u, 0x03u},
 325:Generated_Source\PSoC4/cyfitter_cfg.c **** 			{0x26u, 0x14u},
 326:Generated_Source\PSoC4/cyfitter_cfg.c **** 			{0x28u, 0x40u},
 327:Generated_Source\PSoC4/cyfitter_cfg.c **** 			{0x2Au, 0x15u},
 328:Generated_Source\PSoC4/cyfitter_cfg.c **** 			{0x30u, 0x10u},
 329:Generated_Source\PSoC4/cyfitter_cfg.c **** 			{0x32u, 0x60u},
 330:Generated_Source\PSoC4/cyfitter_cfg.c **** 			{0x33u, 0x01u},
 331:Generated_Source\PSoC4/cyfitter_cfg.c **** 			{0x34u, 0x0Fu},
 332:Generated_Source\PSoC4/cyfitter_cfg.c **** 			{0x38u, 0x08u},
 333:Generated_Source\PSoC4/cyfitter_cfg.c **** 			{0x3Au, 0x20u},
 334:Generated_Source\PSoC4/cyfitter_cfg.c **** 			{0x3Eu, 0x01u},
 335:Generated_Source\PSoC4/cyfitter_cfg.c **** 			{0x3Fu, 0x04u},
 336:Generated_Source\PSoC4/cyfitter_cfg.c **** 			{0x40u, 0x26u},
 337:Generated_Source\PSoC4/cyfitter_cfg.c **** 			{0x41u, 0x03u},
 338:Generated_Source\PSoC4/cyfitter_cfg.c **** 			{0x45u, 0x0Cu},
 339:Generated_Source\PSoC4/cyfitter_cfg.c **** 			{0x46u, 0x0Bu},
 340:Generated_Source\PSoC4/cyfitter_cfg.c **** 			{0x47u, 0x0Eu},
 341:Generated_Source\PSoC4/cyfitter_cfg.c **** 			{0x48u, 0x15u},
 342:Generated_Source\PSoC4/cyfitter_cfg.c **** 			{0x49u, 0xFFu},
 343:Generated_Source\PSoC4/cyfitter_cfg.c **** 			{0x4Au, 0xFFu},
 344:Generated_Source\PSoC4/cyfitter_cfg.c **** 			{0x4Bu, 0xFFu},
 345:Generated_Source\PSoC4/cyfitter_cfg.c **** 			{0x4Eu, 0xF0u},
 346:Generated_Source\PSoC4/cyfitter_cfg.c **** 			{0x4Fu, 0x44u},
 347:Generated_Source\PSoC4/cyfitter_cfg.c **** 			{0x50u, 0x0Cu},
 348:Generated_Source\PSoC4/cyfitter_cfg.c **** 			{0x54u, 0x01u},
 349:Generated_Source\PSoC4/cyfitter_cfg.c **** 			{0x56u, 0x04u},
 350:Generated_Source\PSoC4/cyfitter_cfg.c **** 			{0x58u, 0x04u},
 351:Generated_Source\PSoC4/cyfitter_cfg.c **** 			{0x59u, 0x04u},
 352:Generated_Source\PSoC4/cyfitter_cfg.c **** 			{0x5Au, 0x04u},
 353:Generated_Source\PSoC4/cyfitter_cfg.c **** 			{0x5Bu, 0x04u},
ARM GAS  C:\Users\CCPOW_~1\AppData\Local\Temp\cca7RSpb.s 			page 10


 354:Generated_Source\PSoC4/cyfitter_cfg.c **** 			{0x5Fu, 0x01u},
 355:Generated_Source\PSoC4/cyfitter_cfg.c **** 			{0x66u, 0xC0u},
 356:Generated_Source\PSoC4/cyfitter_cfg.c **** 			{0x6Au, 0x40u},
 357:Generated_Source\PSoC4/cyfitter_cfg.c **** 			{0x6Bu, 0x02u},
 358:Generated_Source\PSoC4/cyfitter_cfg.c **** 			{0x81u, 0x10u},
 359:Generated_Source\PSoC4/cyfitter_cfg.c **** 			{0x82u, 0x63u},
 360:Generated_Source\PSoC4/cyfitter_cfg.c **** 			{0x84u, 0xBCu},
 361:Generated_Source\PSoC4/cyfitter_cfg.c **** 			{0x85u, 0x08u},
 362:Generated_Source\PSoC4/cyfitter_cfg.c **** 			{0x86u, 0x43u},
 363:Generated_Source\PSoC4/cyfitter_cfg.c **** 			{0x88u, 0xFFu},
 364:Generated_Source\PSoC4/cyfitter_cfg.c **** 			{0x89u, 0x38u},
 365:Generated_Source\PSoC4/cyfitter_cfg.c **** 			{0x8Cu, 0x08u},
 366:Generated_Source\PSoC4/cyfitter_cfg.c **** 			{0x8Du, 0x04u},
 367:Generated_Source\PSoC4/cyfitter_cfg.c **** 			{0x8Fu, 0x80u},
 368:Generated_Source\PSoC4/cyfitter_cfg.c **** 			{0x90u, 0x9Fu},
 369:Generated_Source\PSoC4/cyfitter_cfg.c **** 			{0x92u, 0x60u},
 370:Generated_Source\PSoC4/cyfitter_cfg.c **** 			{0x93u, 0x03u},
 371:Generated_Source\PSoC4/cyfitter_cfg.c **** 			{0x94u, 0x03u},
 372:Generated_Source\PSoC4/cyfitter_cfg.c **** 			{0x95u, 0x7Fu},
 373:Generated_Source\PSoC4/cyfitter_cfg.c **** 			{0x98u, 0xE3u},
 374:Generated_Source\PSoC4/cyfitter_cfg.c **** 			{0x99u, 0x3Cu},
 375:Generated_Source\PSoC4/cyfitter_cfg.c **** 			{0x9Au, 0x1Cu},
 376:Generated_Source\PSoC4/cyfitter_cfg.c **** 			{0x9Bu, 0x42u},
 377:Generated_Source\PSoC4/cyfitter_cfg.c **** 			{0x9Cu, 0x10u},
 378:Generated_Source\PSoC4/cyfitter_cfg.c **** 			{0x9Fu, 0x04u},
 379:Generated_Source\PSoC4/cyfitter_cfg.c **** 			{0xA0u, 0x02u},
 380:Generated_Source\PSoC4/cyfitter_cfg.c **** 			{0xA1u, 0x20u},
 381:Generated_Source\PSoC4/cyfitter_cfg.c **** 			{0xA4u, 0x04u},
 382:Generated_Source\PSoC4/cyfitter_cfg.c **** 			{0xA5u, 0x47u},
 383:Generated_Source\PSoC4/cyfitter_cfg.c **** 			{0xA7u, 0x38u},
 384:Generated_Source\PSoC4/cyfitter_cfg.c **** 			{0xA8u, 0x1Cu},
 385:Generated_Source\PSoC4/cyfitter_cfg.c **** 			{0xACu, 0x01u},
 386:Generated_Source\PSoC4/cyfitter_cfg.c **** 			{0xADu, 0x3Cu},
 387:Generated_Source\PSoC4/cyfitter_cfg.c **** 			{0xAFu, 0x41u},
 388:Generated_Source\PSoC4/cyfitter_cfg.c **** 			{0xB0u, 0x5Cu},
 389:Generated_Source\PSoC4/cyfitter_cfg.c **** 			{0xB1u, 0x80u},
 390:Generated_Source\PSoC4/cyfitter_cfg.c **** 			{0xB2u, 0x3Cu},
 391:Generated_Source\PSoC4/cyfitter_cfg.c **** 			{0xB4u, 0x1Fu},
 392:Generated_Source\PSoC4/cyfitter_cfg.c **** 			{0xB5u, 0x3Fu},
 393:Generated_Source\PSoC4/cyfitter_cfg.c **** 			{0xB6u, 0x80u},
 394:Generated_Source\PSoC4/cyfitter_cfg.c **** 			{0xB7u, 0x40u},
 395:Generated_Source\PSoC4/cyfitter_cfg.c **** 			{0xB9u, 0x80u},
 396:Generated_Source\PSoC4/cyfitter_cfg.c **** 			{0xBAu, 0x22u},
 397:Generated_Source\PSoC4/cyfitter_cfg.c **** 			{0xBBu, 0x28u},
 398:Generated_Source\PSoC4/cyfitter_cfg.c **** 			{0xBEu, 0x40u},
 399:Generated_Source\PSoC4/cyfitter_cfg.c **** 			{0xD6u, 0x02u},
 400:Generated_Source\PSoC4/cyfitter_cfg.c **** 			{0xD7u, 0x13u},
 401:Generated_Source\PSoC4/cyfitter_cfg.c **** 			{0xD8u, 0x04u},
 402:Generated_Source\PSoC4/cyfitter_cfg.c **** 			{0xD9u, 0x04u},
 403:Generated_Source\PSoC4/cyfitter_cfg.c **** 			{0xDBu, 0x04u},
 404:Generated_Source\PSoC4/cyfitter_cfg.c **** 			{0xDFu, 0x01u},
 405:Generated_Source\PSoC4/cyfitter_cfg.c **** 			{0x00u, 0x04u},
 406:Generated_Source\PSoC4/cyfitter_cfg.c **** 			{0x03u, 0x08u},
 407:Generated_Source\PSoC4/cyfitter_cfg.c **** 			{0x04u, 0x28u},
 408:Generated_Source\PSoC4/cyfitter_cfg.c **** 			{0x05u, 0x01u},
 409:Generated_Source\PSoC4/cyfitter_cfg.c **** 			{0x06u, 0x02u},
 410:Generated_Source\PSoC4/cyfitter_cfg.c **** 			{0x09u, 0x08u},
ARM GAS  C:\Users\CCPOW_~1\AppData\Local\Temp\cca7RSpb.s 			page 11


 411:Generated_Source\PSoC4/cyfitter_cfg.c **** 			{0x0Bu, 0x14u},
 412:Generated_Source\PSoC4/cyfitter_cfg.c **** 			{0x0Du, 0x02u},
 413:Generated_Source\PSoC4/cyfitter_cfg.c **** 			{0x0Eu, 0x26u},
 414:Generated_Source\PSoC4/cyfitter_cfg.c **** 			{0x10u, 0x38u},
 415:Generated_Source\PSoC4/cyfitter_cfg.c **** 			{0x14u, 0x40u},
 416:Generated_Source\PSoC4/cyfitter_cfg.c **** 			{0x16u, 0x01u},
 417:Generated_Source\PSoC4/cyfitter_cfg.c **** 			{0x17u, 0x28u},
 418:Generated_Source\PSoC4/cyfitter_cfg.c **** 			{0x18u, 0x04u},
 419:Generated_Source\PSoC4/cyfitter_cfg.c **** 			{0x1Au, 0x50u},
 420:Generated_Source\PSoC4/cyfitter_cfg.c **** 			{0x1Bu, 0x08u},
 421:Generated_Source\PSoC4/cyfitter_cfg.c **** 			{0x1Cu, 0x41u},
 422:Generated_Source\PSoC4/cyfitter_cfg.c **** 			{0x1Du, 0x26u},
 423:Generated_Source\PSoC4/cyfitter_cfg.c **** 			{0x1Eu, 0x04u},
 424:Generated_Source\PSoC4/cyfitter_cfg.c **** 			{0x1Fu, 0x02u},
 425:Generated_Source\PSoC4/cyfitter_cfg.c **** 			{0x22u, 0x04u},
 426:Generated_Source\PSoC4/cyfitter_cfg.c **** 			{0x24u, 0x28u},
 427:Generated_Source\PSoC4/cyfitter_cfg.c **** 			{0x26u, 0x28u},
 428:Generated_Source\PSoC4/cyfitter_cfg.c **** 			{0x27u, 0x82u},
 429:Generated_Source\PSoC4/cyfitter_cfg.c **** 			{0x2Du, 0x01u},
 430:Generated_Source\PSoC4/cyfitter_cfg.c **** 			{0x2Eu, 0x04u},
 431:Generated_Source\PSoC4/cyfitter_cfg.c **** 			{0x2Fu, 0x02u},
 432:Generated_Source\PSoC4/cyfitter_cfg.c **** 			{0x35u, 0x01u},
 433:Generated_Source\PSoC4/cyfitter_cfg.c **** 			{0x36u, 0x28u},
 434:Generated_Source\PSoC4/cyfitter_cfg.c **** 			{0x37u, 0x80u},
 435:Generated_Source\PSoC4/cyfitter_cfg.c **** 			{0x39u, 0x08u},
 436:Generated_Source\PSoC4/cyfitter_cfg.c **** 			{0x3Eu, 0x2Au},
 437:Generated_Source\PSoC4/cyfitter_cfg.c **** 			{0x3Fu, 0x80u},
 438:Generated_Source\PSoC4/cyfitter_cfg.c **** 			{0x40u, 0x04u},
 439:Generated_Source\PSoC4/cyfitter_cfg.c **** 			{0x41u, 0x08u},
 440:Generated_Source\PSoC4/cyfitter_cfg.c **** 			{0x48u, 0x28u},
 441:Generated_Source\PSoC4/cyfitter_cfg.c **** 			{0x50u, 0x80u},
 442:Generated_Source\PSoC4/cyfitter_cfg.c **** 			{0x51u, 0x04u},
 443:Generated_Source\PSoC4/cyfitter_cfg.c **** 			{0x58u, 0x10u},
 444:Generated_Source\PSoC4/cyfitter_cfg.c **** 			{0x5Au, 0x49u},
 445:Generated_Source\PSoC4/cyfitter_cfg.c **** 			{0x5Cu, 0x01u},
 446:Generated_Source\PSoC4/cyfitter_cfg.c **** 			{0x63u, 0x40u},
 447:Generated_Source\PSoC4/cyfitter_cfg.c **** 			{0x6Du, 0x51u},
 448:Generated_Source\PSoC4/cyfitter_cfg.c **** 			{0x6Eu, 0x02u},
 449:Generated_Source\PSoC4/cyfitter_cfg.c **** 			{0x6Fu, 0x10u},
 450:Generated_Source\PSoC4/cyfitter_cfg.c **** 			{0x76u, 0x2Au},
 451:Generated_Source\PSoC4/cyfitter_cfg.c **** 			{0x77u, 0x28u},
 452:Generated_Source\PSoC4/cyfitter_cfg.c **** 			{0x87u, 0x40u},
 453:Generated_Source\PSoC4/cyfitter_cfg.c **** 			{0xC0u, 0xF6u},
 454:Generated_Source\PSoC4/cyfitter_cfg.c **** 			{0xC2u, 0xF6u},
 455:Generated_Source\PSoC4/cyfitter_cfg.c **** 			{0xC4u, 0xF6u},
 456:Generated_Source\PSoC4/cyfitter_cfg.c **** 			{0xCAu, 0xD0u},
 457:Generated_Source\PSoC4/cyfitter_cfg.c **** 			{0xCCu, 0xF0u},
 458:Generated_Source\PSoC4/cyfitter_cfg.c **** 			{0xCEu, 0xF2u},
 459:Generated_Source\PSoC4/cyfitter_cfg.c **** 			{0xD0u, 0x06u},
 460:Generated_Source\PSoC4/cyfitter_cfg.c **** 			{0xD2u, 0x04u},
 461:Generated_Source\PSoC4/cyfitter_cfg.c **** 			{0xD6u, 0x8Fu},
 462:Generated_Source\PSoC4/cyfitter_cfg.c **** 			{0xD8u, 0x01u},
 463:Generated_Source\PSoC4/cyfitter_cfg.c **** 			{0x02u, 0x03u},
 464:Generated_Source\PSoC4/cyfitter_cfg.c **** 			{0x03u, 0x08u},
 465:Generated_Source\PSoC4/cyfitter_cfg.c **** 			{0x06u, 0x03u},
 466:Generated_Source\PSoC4/cyfitter_cfg.c **** 			{0x08u, 0x03u},
 467:Generated_Source\PSoC4/cyfitter_cfg.c **** 			{0x0Du, 0x01u},
ARM GAS  C:\Users\CCPOW_~1\AppData\Local\Temp\cca7RSpb.s 			page 12


 468:Generated_Source\PSoC4/cyfitter_cfg.c **** 			{0x0Eu, 0x03u},
 469:Generated_Source\PSoC4/cyfitter_cfg.c **** 			{0x0Fu, 0x02u},
 470:Generated_Source\PSoC4/cyfitter_cfg.c **** 			{0x10u, 0x21u},
 471:Generated_Source\PSoC4/cyfitter_cfg.c **** 			{0x12u, 0x18u},
 472:Generated_Source\PSoC4/cyfitter_cfg.c **** 			{0x13u, 0x04u},
 473:Generated_Source\PSoC4/cyfitter_cfg.c **** 			{0x14u, 0x13u},
 474:Generated_Source\PSoC4/cyfitter_cfg.c **** 			{0x16u, 0x64u},
 475:Generated_Source\PSoC4/cyfitter_cfg.c **** 			{0x17u, 0x08u},
 476:Generated_Source\PSoC4/cyfitter_cfg.c **** 			{0x18u, 0x03u},
 477:Generated_Source\PSoC4/cyfitter_cfg.c **** 			{0x19u, 0x03u},
 478:Generated_Source\PSoC4/cyfitter_cfg.c **** 			{0x1Cu, 0x42u},
 479:Generated_Source\PSoC4/cyfitter_cfg.c **** 			{0x1Du, 0x02u},
 480:Generated_Source\PSoC4/cyfitter_cfg.c **** 			{0x1Eu, 0x18u},
 481:Generated_Source\PSoC4/cyfitter_cfg.c **** 			{0x1Fu, 0x01u},
 482:Generated_Source\PSoC4/cyfitter_cfg.c **** 			{0x23u, 0x04u},
 483:Generated_Source\PSoC4/cyfitter_cfg.c **** 			{0x24u, 0xF0u},
 484:Generated_Source\PSoC4/cyfitter_cfg.c **** 			{0x28u, 0xF0u},
 485:Generated_Source\PSoC4/cyfitter_cfg.c **** 			{0x29u, 0x03u},
 486:Generated_Source\PSoC4/cyfitter_cfg.c **** 			{0x2Cu, 0x80u},
 487:Generated_Source\PSoC4/cyfitter_cfg.c **** 			{0x30u, 0x80u},
 488:Generated_Source\PSoC4/cyfitter_cfg.c **** 			{0x31u, 0x03u},
 489:Generated_Source\PSoC4/cyfitter_cfg.c **** 			{0x32u, 0x70u},
 490:Generated_Source\PSoC4/cyfitter_cfg.c **** 			{0x33u, 0x04u},
 491:Generated_Source\PSoC4/cyfitter_cfg.c **** 			{0x34u, 0x03u},
 492:Generated_Source\PSoC4/cyfitter_cfg.c **** 			{0x35u, 0x08u},
 493:Generated_Source\PSoC4/cyfitter_cfg.c **** 			{0x36u, 0x0Cu},
 494:Generated_Source\PSoC4/cyfitter_cfg.c **** 			{0x3Eu, 0x40u},
 495:Generated_Source\PSoC4/cyfitter_cfg.c **** 			{0x3Fu, 0x14u},
 496:Generated_Source\PSoC4/cyfitter_cfg.c **** 			{0x40u, 0x24u},
 497:Generated_Source\PSoC4/cyfitter_cfg.c **** 			{0x41u, 0x06u},
 498:Generated_Source\PSoC4/cyfitter_cfg.c **** 			{0x42u, 0x03u},
 499:Generated_Source\PSoC4/cyfitter_cfg.c **** 			{0x44u, 0x01u},
 500:Generated_Source\PSoC4/cyfitter_cfg.c **** 			{0x45u, 0xC0u},
 501:Generated_Source\PSoC4/cyfitter_cfg.c **** 			{0x47u, 0xE0u},
 502:Generated_Source\PSoC4/cyfitter_cfg.c **** 			{0x48u, 0x22u},
 503:Generated_Source\PSoC4/cyfitter_cfg.c **** 			{0x49u, 0xFFu},
 504:Generated_Source\PSoC4/cyfitter_cfg.c **** 			{0x4Au, 0xFFu},
 505:Generated_Source\PSoC4/cyfitter_cfg.c **** 			{0x4Bu, 0xFFu},
 506:Generated_Source\PSoC4/cyfitter_cfg.c **** 			{0x4Cu, 0x62u},
 507:Generated_Source\PSoC4/cyfitter_cfg.c **** 			{0x4Du, 0xA0u},
 508:Generated_Source\PSoC4/cyfitter_cfg.c **** 			{0x4Eu, 0xF0u},
 509:Generated_Source\PSoC4/cyfitter_cfg.c **** 			{0x4Fu, 0x41u},
 510:Generated_Source\PSoC4/cyfitter_cfg.c **** 			{0x50u, 0x0Cu},
 511:Generated_Source\PSoC4/cyfitter_cfg.c **** 			{0x54u, 0x18u},
 512:Generated_Source\PSoC4/cyfitter_cfg.c **** 			{0x56u, 0x04u},
 513:Generated_Source\PSoC4/cyfitter_cfg.c **** 			{0x58u, 0x04u},
 514:Generated_Source\PSoC4/cyfitter_cfg.c **** 			{0x59u, 0x04u},
 515:Generated_Source\PSoC4/cyfitter_cfg.c **** 			{0x5Au, 0x04u},
 516:Generated_Source\PSoC4/cyfitter_cfg.c **** 			{0x5Bu, 0x04u},
 517:Generated_Source\PSoC4/cyfitter_cfg.c **** 			{0x5Fu, 0x01u},
 518:Generated_Source\PSoC4/cyfitter_cfg.c **** 			{0x66u, 0x40u},
 519:Generated_Source\PSoC4/cyfitter_cfg.c **** 			{0x67u, 0x02u},
 520:Generated_Source\PSoC4/cyfitter_cfg.c **** 			{0x69u, 0x10u},
 521:Generated_Source\PSoC4/cyfitter_cfg.c **** 			{0x6Au, 0x30u},
 522:Generated_Source\PSoC4/cyfitter_cfg.c **** 			{0x6Bu, 0x10u},
 523:Generated_Source\PSoC4/cyfitter_cfg.c **** 			{0x6Du, 0x10u},
 524:Generated_Source\PSoC4/cyfitter_cfg.c **** 			{0x6Eu, 0x10u},
ARM GAS  C:\Users\CCPOW_~1\AppData\Local\Temp\cca7RSpb.s 			page 13


 525:Generated_Source\PSoC4/cyfitter_cfg.c **** 			{0x6Fu, 0x12u},
 526:Generated_Source\PSoC4/cyfitter_cfg.c **** 			{0x84u, 0x10u},
 527:Generated_Source\PSoC4/cyfitter_cfg.c **** 			{0x85u, 0x31u},
 528:Generated_Source\PSoC4/cyfitter_cfg.c **** 			{0x86u, 0x0Cu},
 529:Generated_Source\PSoC4/cyfitter_cfg.c **** 			{0x87u, 0x46u},
 530:Generated_Source\PSoC4/cyfitter_cfg.c **** 			{0x89u, 0x31u},
 531:Generated_Source\PSoC4/cyfitter_cfg.c **** 			{0x8Bu, 0x0Eu},
 532:Generated_Source\PSoC4/cyfitter_cfg.c **** 			{0x8Cu, 0x10u},
 533:Generated_Source\PSoC4/cyfitter_cfg.c **** 			{0x94u, 0x09u},
 534:Generated_Source\PSoC4/cyfitter_cfg.c **** 			{0x96u, 0x10u},
 535:Generated_Source\PSoC4/cyfitter_cfg.c **** 			{0x97u, 0x13u},
 536:Generated_Source\PSoC4/cyfitter_cfg.c **** 			{0x99u, 0x6Cu},
 537:Generated_Source\PSoC4/cyfitter_cfg.c **** 			{0x9Bu, 0x03u},
 538:Generated_Source\PSoC4/cyfitter_cfg.c **** 			{0x9Eu, 0x03u},
 539:Generated_Source\PSoC4/cyfitter_cfg.c **** 			{0x9Fu, 0x08u},
 540:Generated_Source\PSoC4/cyfitter_cfg.c **** 			{0xA0u, 0x14u},
 541:Generated_Source\PSoC4/cyfitter_cfg.c **** 			{0xA1u, 0x80u},
 542:Generated_Source\PSoC4/cyfitter_cfg.c **** 			{0xA4u, 0x1Cu},
 543:Generated_Source\PSoC4/cyfitter_cfg.c **** 			{0xA6u, 0x02u},
 544:Generated_Source\PSoC4/cyfitter_cfg.c **** 			{0xA8u, 0x0Cu},
 545:Generated_Source\PSoC4/cyfitter_cfg.c **** 			{0xAAu, 0x11u},
 546:Generated_Source\PSoC4/cyfitter_cfg.c **** 			{0xABu, 0x4Cu},
 547:Generated_Source\PSoC4/cyfitter_cfg.c **** 			{0xB1u, 0x30u},
 548:Generated_Source\PSoC4/cyfitter_cfg.c **** 			{0xB3u, 0x4Au},
 549:Generated_Source\PSoC4/cyfitter_cfg.c **** 			{0xB5u, 0x0Fu},
 550:Generated_Source\PSoC4/cyfitter_cfg.c **** 			{0xB6u, 0x1Fu},
 551:Generated_Source\PSoC4/cyfitter_cfg.c **** 			{0xB7u, 0x80u},
 552:Generated_Source\PSoC4/cyfitter_cfg.c **** 			{0xB9u, 0x02u},
 553:Generated_Source\PSoC4/cyfitter_cfg.c **** 			{0xBBu, 0x28u},
 554:Generated_Source\PSoC4/cyfitter_cfg.c **** 			{0xBFu, 0x41u},
 555:Generated_Source\PSoC4/cyfitter_cfg.c **** 			{0xC0u, 0x05u},
 556:Generated_Source\PSoC4/cyfitter_cfg.c **** 			{0xC5u, 0x40u},
 557:Generated_Source\PSoC4/cyfitter_cfg.c **** 			{0xC9u, 0xFFu},
 558:Generated_Source\PSoC4/cyfitter_cfg.c **** 			{0xCAu, 0x07u},
 559:Generated_Source\PSoC4/cyfitter_cfg.c **** 			{0xCBu, 0xFFu},
 560:Generated_Source\PSoC4/cyfitter_cfg.c **** 			{0xCCu, 0x40u},
 561:Generated_Source\PSoC4/cyfitter_cfg.c **** 			{0xCDu, 0x20u},
 562:Generated_Source\PSoC4/cyfitter_cfg.c **** 			{0xCEu, 0xF0u},
 563:Generated_Source\PSoC4/cyfitter_cfg.c **** 			{0xCFu, 0x05u},
 564:Generated_Source\PSoC4/cyfitter_cfg.c **** 			{0xD0u, 0x08u},
 565:Generated_Source\PSoC4/cyfitter_cfg.c **** 			{0xD8u, 0x04u},
 566:Generated_Source\PSoC4/cyfitter_cfg.c **** 			{0xD9u, 0x04u},
 567:Generated_Source\PSoC4/cyfitter_cfg.c **** 			{0xDAu, 0x04u},
 568:Generated_Source\PSoC4/cyfitter_cfg.c **** 			{0xDFu, 0x01u},
 569:Generated_Source\PSoC4/cyfitter_cfg.c **** 			{0xE0u, 0x40u},
 570:Generated_Source\PSoC4/cyfitter_cfg.c **** 			{0xE1u, 0xA8u},
 571:Generated_Source\PSoC4/cyfitter_cfg.c **** 			{0xE2u, 0x40u},
 572:Generated_Source\PSoC4/cyfitter_cfg.c **** 			{0xE3u, 0x20u},
 573:Generated_Source\PSoC4/cyfitter_cfg.c **** 			{0x00u, 0x84u},
 574:Generated_Source\PSoC4/cyfitter_cfg.c **** 			{0x04u, 0x48u},
 575:Generated_Source\PSoC4/cyfitter_cfg.c **** 			{0x05u, 0x01u},
 576:Generated_Source\PSoC4/cyfitter_cfg.c **** 			{0x06u, 0x04u},
 577:Generated_Source\PSoC4/cyfitter_cfg.c **** 			{0x08u, 0x08u},
 578:Generated_Source\PSoC4/cyfitter_cfg.c **** 			{0x0Au, 0x11u},
 579:Generated_Source\PSoC4/cyfitter_cfg.c **** 			{0x0Cu, 0x40u},
 580:Generated_Source\PSoC4/cyfitter_cfg.c **** 			{0x0Eu, 0x2Au},
 581:Generated_Source\PSoC4/cyfitter_cfg.c **** 			{0x0Fu, 0x80u},
ARM GAS  C:\Users\CCPOW_~1\AppData\Local\Temp\cca7RSpb.s 			page 14


 582:Generated_Source\PSoC4/cyfitter_cfg.c **** 			{0x10u, 0x80u},
 583:Generated_Source\PSoC4/cyfitter_cfg.c **** 			{0x13u, 0x14u},
 584:Generated_Source\PSoC4/cyfitter_cfg.c **** 			{0x15u, 0x40u},
 585:Generated_Source\PSoC4/cyfitter_cfg.c **** 			{0x16u, 0x20u},
 586:Generated_Source\PSoC4/cyfitter_cfg.c **** 			{0x17u, 0x10u},
 587:Generated_Source\PSoC4/cyfitter_cfg.c **** 			{0x1Au, 0x01u},
 588:Generated_Source\PSoC4/cyfitter_cfg.c **** 			{0x1Bu, 0x80u},
 589:Generated_Source\PSoC4/cyfitter_cfg.c **** 			{0x1Du, 0x93u},
 590:Generated_Source\PSoC4/cyfitter_cfg.c **** 			{0x1Eu, 0x20u},
 591:Generated_Source\PSoC4/cyfitter_cfg.c **** 			{0x22u, 0x52u},
 592:Generated_Source\PSoC4/cyfitter_cfg.c **** 			{0x23u, 0x14u},
 593:Generated_Source\PSoC4/cyfitter_cfg.c **** 			{0x25u, 0x10u},
 594:Generated_Source\PSoC4/cyfitter_cfg.c **** 			{0x26u, 0x01u},
 595:Generated_Source\PSoC4/cyfitter_cfg.c **** 			{0x27u, 0x20u},
 596:Generated_Source\PSoC4/cyfitter_cfg.c **** 			{0x28u, 0x08u},
 597:Generated_Source\PSoC4/cyfitter_cfg.c **** 			{0x2Bu, 0x80u},
 598:Generated_Source\PSoC4/cyfitter_cfg.c **** 			{0x2Du, 0x10u},
 599:Generated_Source\PSoC4/cyfitter_cfg.c **** 			{0x2Eu, 0x22u},
 600:Generated_Source\PSoC4/cyfitter_cfg.c **** 			{0x30u, 0x08u},
 601:Generated_Source\PSoC4/cyfitter_cfg.c **** 			{0x32u, 0x90u},
 602:Generated_Source\PSoC4/cyfitter_cfg.c **** 			{0x34u, 0x40u},
 603:Generated_Source\PSoC4/cyfitter_cfg.c **** 			{0x35u, 0x04u},
 604:Generated_Source\PSoC4/cyfitter_cfg.c **** 			{0x37u, 0x1Au},
 605:Generated_Source\PSoC4/cyfitter_cfg.c **** 			{0x38u, 0x04u},
 606:Generated_Source\PSoC4/cyfitter_cfg.c **** 			{0x3Bu, 0x10u},
 607:Generated_Source\PSoC4/cyfitter_cfg.c **** 			{0x3Fu, 0x82u},
 608:Generated_Source\PSoC4/cyfitter_cfg.c **** 			{0x45u, 0xA2u},
 609:Generated_Source\PSoC4/cyfitter_cfg.c **** 			{0x46u, 0x04u},
 610:Generated_Source\PSoC4/cyfitter_cfg.c **** 			{0x47u, 0x08u},
 611:Generated_Source\PSoC4/cyfitter_cfg.c **** 			{0x48u, 0x40u},
 612:Generated_Source\PSoC4/cyfitter_cfg.c **** 			{0x4Au, 0x8Eu},
 613:Generated_Source\PSoC4/cyfitter_cfg.c **** 			{0x4Eu, 0x08u},
 614:Generated_Source\PSoC4/cyfitter_cfg.c **** 			{0x4Fu, 0x02u},
 615:Generated_Source\PSoC4/cyfitter_cfg.c **** 			{0x50u, 0x08u},
 616:Generated_Source\PSoC4/cyfitter_cfg.c **** 			{0x56u, 0x02u},
 617:Generated_Source\PSoC4/cyfitter_cfg.c **** 			{0x59u, 0x20u},
 618:Generated_Source\PSoC4/cyfitter_cfg.c **** 			{0x5Bu, 0x20u},
 619:Generated_Source\PSoC4/cyfitter_cfg.c **** 			{0x5Du, 0x02u},
 620:Generated_Source\PSoC4/cyfitter_cfg.c **** 			{0x65u, 0x20u},
 621:Generated_Source\PSoC4/cyfitter_cfg.c **** 			{0x66u, 0x80u},
 622:Generated_Source\PSoC4/cyfitter_cfg.c **** 			{0x67u, 0x80u},
 623:Generated_Source\PSoC4/cyfitter_cfg.c **** 			{0x81u, 0x10u},
 624:Generated_Source\PSoC4/cyfitter_cfg.c **** 			{0x82u, 0xC1u},
 625:Generated_Source\PSoC4/cyfitter_cfg.c **** 			{0x83u, 0x40u},
 626:Generated_Source\PSoC4/cyfitter_cfg.c **** 			{0x87u, 0x40u},
 627:Generated_Source\PSoC4/cyfitter_cfg.c **** 			{0x8Du, 0x12u},
 628:Generated_Source\PSoC4/cyfitter_cfg.c **** 			{0x90u, 0x4Cu},
 629:Generated_Source\PSoC4/cyfitter_cfg.c **** 			{0x91u, 0x50u},
 630:Generated_Source\PSoC4/cyfitter_cfg.c **** 			{0x92u, 0x10u},
 631:Generated_Source\PSoC4/cyfitter_cfg.c **** 			{0x97u, 0x14u},
 632:Generated_Source\PSoC4/cyfitter_cfg.c **** 			{0x99u, 0x04u},
 633:Generated_Source\PSoC4/cyfitter_cfg.c **** 			{0x9Bu, 0x12u},
 634:Generated_Source\PSoC4/cyfitter_cfg.c **** 			{0x9Cu, 0x40u},
 635:Generated_Source\PSoC4/cyfitter_cfg.c **** 			{0x9Du, 0x01u},
 636:Generated_Source\PSoC4/cyfitter_cfg.c **** 			{0x9Eu, 0x01u},
 637:Generated_Source\PSoC4/cyfitter_cfg.c **** 			{0xA0u, 0x80u},
 638:Generated_Source\PSoC4/cyfitter_cfg.c **** 			{0xA1u, 0x20u},
ARM GAS  C:\Users\CCPOW_~1\AppData\Local\Temp\cca7RSpb.s 			page 15


 639:Generated_Source\PSoC4/cyfitter_cfg.c **** 			{0xA2u, 0x08u},
 640:Generated_Source\PSoC4/cyfitter_cfg.c **** 			{0xA4u, 0x08u},
 641:Generated_Source\PSoC4/cyfitter_cfg.c **** 			{0xA6u, 0x10u},
 642:Generated_Source\PSoC4/cyfitter_cfg.c **** 			{0xA7u, 0x40u},
 643:Generated_Source\PSoC4/cyfitter_cfg.c **** 			{0xADu, 0x04u},
 644:Generated_Source\PSoC4/cyfitter_cfg.c **** 			{0xAEu, 0x01u},
 645:Generated_Source\PSoC4/cyfitter_cfg.c **** 			{0xC0u, 0xF5u},
 646:Generated_Source\PSoC4/cyfitter_cfg.c **** 			{0xC2u, 0xF5u},
 647:Generated_Source\PSoC4/cyfitter_cfg.c **** 			{0xC4u, 0xEEu},
 648:Generated_Source\PSoC4/cyfitter_cfg.c **** 			{0xCAu, 0xA5u},
 649:Generated_Source\PSoC4/cyfitter_cfg.c **** 			{0xCCu, 0xFEu},
 650:Generated_Source\PSoC4/cyfitter_cfg.c **** 			{0xCEu, 0x96u},
 651:Generated_Source\PSoC4/cyfitter_cfg.c **** 			{0xD0u, 0xF0u},
 652:Generated_Source\PSoC4/cyfitter_cfg.c **** 			{0xD2u, 0x28u},
 653:Generated_Source\PSoC4/cyfitter_cfg.c **** 			{0xD6u, 0x80u},
 654:Generated_Source\PSoC4/cyfitter_cfg.c **** 			{0xD8u, 0xB0u},
 655:Generated_Source\PSoC4/cyfitter_cfg.c **** 			{0x0Eu, 0x08u},
 656:Generated_Source\PSoC4/cyfitter_cfg.c **** 			{0x6Eu, 0x08u},
 657:Generated_Source\PSoC4/cyfitter_cfg.c **** 			{0x71u, 0x20u},
 658:Generated_Source\PSoC4/cyfitter_cfg.c **** 			{0x77u, 0x02u},
 659:Generated_Source\PSoC4/cyfitter_cfg.c **** 			{0x87u, 0x02u},
 660:Generated_Source\PSoC4/cyfitter_cfg.c **** 			{0xC2u, 0x80u},
 661:Generated_Source\PSoC4/cyfitter_cfg.c **** 			{0xDAu, 0x80u},
 662:Generated_Source\PSoC4/cyfitter_cfg.c **** 			{0xDCu, 0x60u},
 663:Generated_Source\PSoC4/cyfitter_cfg.c **** 			{0xE6u, 0x40u},
 664:Generated_Source\PSoC4/cyfitter_cfg.c **** 			{0x0Eu, 0x40u},
 665:Generated_Source\PSoC4/cyfitter_cfg.c **** 			{0x60u, 0x10u},
 666:Generated_Source\PSoC4/cyfitter_cfg.c **** 			{0x80u, 0x10u},
 667:Generated_Source\PSoC4/cyfitter_cfg.c **** 			{0x82u, 0x40u},
 668:Generated_Source\PSoC4/cyfitter_cfg.c **** 			{0x85u, 0x20u},
 669:Generated_Source\PSoC4/cyfitter_cfg.c **** 			{0xA5u, 0x20u},
 670:Generated_Source\PSoC4/cyfitter_cfg.c **** 			{0xC2u, 0x20u},
 671:Generated_Source\PSoC4/cyfitter_cfg.c **** 			{0xD8u, 0x40u},
 672:Generated_Source\PSoC4/cyfitter_cfg.c **** 			{0xE0u, 0x20u},
 673:Generated_Source\PSoC4/cyfitter_cfg.c **** 			{0xE2u, 0x10u},
 674:Generated_Source\PSoC4/cyfitter_cfg.c **** 			{0xE6u, 0x80u},
 675:Generated_Source\PSoC4/cyfitter_cfg.c **** 			{0x10u, 0x01u},
 676:Generated_Source\PSoC4/cyfitter_cfg.c **** 			{0x11u, 0x01u},
 677:Generated_Source\PSoC4/cyfitter_cfg.c **** 		};
 678:Generated_Source\PSoC4/cyfitter_cfg.c **** 
 679:Generated_Source\PSoC4/cyfitter_cfg.c **** 
 680:Generated_Source\PSoC4/cyfitter_cfg.c **** 
 681:Generated_Source\PSoC4/cyfitter_cfg.c **** 		CYPACKED typedef struct {
 682:Generated_Source\PSoC4/cyfitter_cfg.c **** 			void CYFAR *address;
 683:Generated_Source\PSoC4/cyfitter_cfg.c **** 			uint16 size;
 684:Generated_Source\PSoC4/cyfitter_cfg.c **** 		} CYPACKED_ATTR cfg_memset_t;
 685:Generated_Source\PSoC4/cyfitter_cfg.c **** 
 686:Generated_Source\PSoC4/cyfitter_cfg.c **** 		static const cfg_memset_t CYCODE cfg_memset_list[] = {
 687:Generated_Source\PSoC4/cyfitter_cfg.c **** 			/* address, size */
 688:Generated_Source\PSoC4/cyfitter_cfg.c **** 			{(void CYFAR *)(CYDEV_UDB_P0_U0_BASE), 1024u},
 689:Generated_Source\PSoC4/cyfitter_cfg.c **** 			{(void CYFAR *)(CYDEV_UDB_DSI0_BASE), 1024u},
 690:Generated_Source\PSoC4/cyfitter_cfg.c **** 		};
 691:Generated_Source\PSoC4/cyfitter_cfg.c **** 
 692:Generated_Source\PSoC4/cyfitter_cfg.c **** 		uint8 CYDATA i;
 693:Generated_Source\PSoC4/cyfitter_cfg.c **** 
 694:Generated_Source\PSoC4/cyfitter_cfg.c **** 		/* Zero out critical memory blocks before beginning configuration */
 695:Generated_Source\PSoC4/cyfitter_cfg.c **** 		for (i = 0u; i < (sizeof(cfg_memset_list)/sizeof(cfg_memset_list[0])); i++)
ARM GAS  C:\Users\CCPOW_~1\AppData\Local\Temp\cca7RSpb.s 			page 16


 696:Generated_Source\PSoC4/cyfitter_cfg.c **** 		{
 697:Generated_Source\PSoC4/cyfitter_cfg.c **** 			const cfg_memset_t CYCODE * CYDATA ms = &cfg_memset_list[i];
 698:Generated_Source\PSoC4/cyfitter_cfg.c **** 			CYMEMZERO(ms->address, (size_t)(uint32)(ms->size));
 699:Generated_Source\PSoC4/cyfitter_cfg.c **** 		}
 700:Generated_Source\PSoC4/cyfitter_cfg.c **** 
 701:Generated_Source\PSoC4/cyfitter_cfg.c **** 		cfg_write_bytes32(cy_cfg_addr_table, cy_cfg_data_table);
 702:Generated_Source\PSoC4/cyfitter_cfg.c **** 
 703:Generated_Source\PSoC4/cyfitter_cfg.c **** 		/* Perform normal device configuration. Order is not critical for these items. */
 704:Generated_Source\PSoC4/cyfitter_cfg.c **** 		CY_SET_REG16((void *)(CYREG_UDB_BCTL0_DRV), 0x0100u);
 152              		.loc 1 704 0
 153 0062 8022     		movs	r2, #128
 154 0064 3D4B     		ldr	r3, .L8+16
 155 0066 5200     		lsls	r2, r2, #1
 156 0068 1A80     		strh	r2, [r3]
 705:Generated_Source\PSoC4/cyfitter_cfg.c **** 		CY_SET_REG8((void *)(CYREG_UDB_BCTL0_DRV + 0x2u), 0x01u);
 157              		.loc 1 705 0
 158 006a 3D4B     		ldr	r3, .L8+20
 159 006c FF3A     		subs	r2, r2, #255
 160 006e 1A70     		strb	r2, [r3]
 706:Generated_Source\PSoC4/cyfitter_cfg.c **** 
 707:Generated_Source\PSoC4/cyfitter_cfg.c **** 		/* HSIOM Starting address: CYDEV_HSIOM_BASE */
 708:Generated_Source\PSoC4/cyfitter_cfg.c **** 		CY_SET_REG32((void *)(CYREG_HSIOM_PORT_SEL1), 0x00030000u);
 161              		.loc 1 708 0
 162 0070 C022     		movs	r2, #192
 163 0072 3C4B     		ldr	r3, .L8+24
 164 0074 9202     		lsls	r2, r2, #10
 165 0076 1A60     		str	r2, [r3]
 709:Generated_Source\PSoC4/cyfitter_cfg.c **** 		CY_SET_REG32((void *)(CYREG_HSIOM_PORT_SEL3), 0x0000EE00u);
 166              		.loc 1 709 0
 167 0078 EE22     		movs	r2, #238
 168 007a 3B4B     		ldr	r3, .L8+28
 169 007c 1202     		lsls	r2, r2, #8
 170 007e 1A60     		str	r2, [r3]
 710:Generated_Source\PSoC4/cyfitter_cfg.c **** 		CY_SET_REG32((void *)(CYREG_HSIOM_PORT_SEL4), 0x00000099u);
 171              		.loc 1 710 0
 172 0080 9922     		movs	r2, #153
 173 0082 3A4B     		ldr	r3, .L8+32
 711:Generated_Source\PSoC4/cyfitter_cfg.c **** 
 712:Generated_Source\PSoC4/cyfitter_cfg.c **** 		/* UDB_PA_0 Starting address: CYDEV_UDB_PA0_BASE */
 713:Generated_Source\PSoC4/cyfitter_cfg.c **** 		CY_SET_REG32((void *)(CYDEV_UDB_PA0_BASE), 0x00990000u);
 714:Generated_Source\PSoC4/cyfitter_cfg.c **** 
 715:Generated_Source\PSoC4/cyfitter_cfg.c **** 		/* UDB_PA_1 Starting address: CYDEV_UDB_PA1_BASE */
 716:Generated_Source\PSoC4/cyfitter_cfg.c **** 		CY_SET_REG32((void *)(CYDEV_UDB_PA1_BASE), 0x00990004u);
 174              		.loc 1 716 0
 175 0084 3A49     		ldr	r1, .L8+36
 710:Generated_Source\PSoC4/cyfitter_cfg.c **** 		CY_SET_REG32((void *)(CYREG_HSIOM_PORT_SEL4), 0x00000099u);
 176              		.loc 1 710 0
 177 0086 1A60     		str	r2, [r3]
 713:Generated_Source\PSoC4/cyfitter_cfg.c **** 
 178              		.loc 1 713 0
 179 0088 9923     		movs	r3, #153
 180 008a 3A4A     		ldr	r2, .L8+40
 181 008c 1B04     		lsls	r3, r3, #16
 182 008e 1360     		str	r3, [r2]
 183              		.loc 1 716 0
 184 0090 394A     		ldr	r2, .L8+44
 185              	.LBE32:
ARM GAS  C:\Users\CCPOW_~1\AppData\Local\Temp\cca7RSpb.s 			page 17


 717:Generated_Source\PSoC4/cyfitter_cfg.c **** 		CY_SET_REG32((void *)(CYREG_UDB_PA1_CFG4), 0x08000000u);
 718:Generated_Source\PSoC4/cyfitter_cfg.c **** 		CY_SET_REG32((void *)(CYREG_UDB_PA1_CFG8), 0x02000000u);
 719:Generated_Source\PSoC4/cyfitter_cfg.c **** 
 720:Generated_Source\PSoC4/cyfitter_cfg.c **** 		/* UDB_PA_3 Starting address: CYDEV_UDB_PA3_BASE */
 721:Generated_Source\PSoC4/cyfitter_cfg.c **** 		CY_SET_REG32((void *)(CYDEV_UDB_PA3_BASE), 0x00990000u);
 722:Generated_Source\PSoC4/cyfitter_cfg.c **** 
 723:Generated_Source\PSoC4/cyfitter_cfg.c **** 		/* INT_SELECT Starting address: CYDEV_CPUSS_INTR_SELECT */
 724:Generated_Source\PSoC4/cyfitter_cfg.c **** 		CY_SET_REG32((void *)(CYREG_CPUSS_INTR_SELECT), 0x0000000Du);
 725:Generated_Source\PSoC4/cyfitter_cfg.c **** 
 726:Generated_Source\PSoC4/cyfitter_cfg.c **** 		/* INT_CONFIG Starting address: CYDEV_UDB_INT_CFG */
 727:Generated_Source\PSoC4/cyfitter_cfg.c **** 		CY_SET_REG32((void *)(CYREG_UDB_INT_CFG), 0x0000000Eu);
 728:Generated_Source\PSoC4/cyfitter_cfg.c **** 
 729:Generated_Source\PSoC4/cyfitter_cfg.c **** 		/* Enable UDB array and digital routing */
 730:Generated_Source\PSoC4/cyfitter_cfg.c **** 		CY_SET_XTND_REG8((void *)CYREG_UDB_UDBIF_WAIT_CFG, (uint8)((CY_GET_XTND_REG8((void *)CYREG_UDB_UD
 731:Generated_Source\PSoC4/cyfitter_cfg.c **** 		CY_SET_XTND_REG8((void *)CYREG_UDB_UDBIF_BANK_CTL, (uint8)(CY_GET_XTND_REG8((void *)CYREG_UDB_UDB
 732:Generated_Source\PSoC4/cyfitter_cfg.c **** 	}
 733:Generated_Source\PSoC4/cyfitter_cfg.c **** 
 734:Generated_Source\PSoC4/cyfitter_cfg.c **** 	/* Perform second pass device configuration. These items must be configured in specific order afte
 735:Generated_Source\PSoC4/cyfitter_cfg.c **** 	/* IOPINS0_0 Starting address: CYDEV_PRT0_BASE */
 736:Generated_Source\PSoC4/cyfitter_cfg.c **** 	CY_SET_REG32((void *)(CYREG_PRT0_PC), 0x00400000u);
 737:Generated_Source\PSoC4/cyfitter_cfg.c **** 
 738:Generated_Source\PSoC4/cyfitter_cfg.c **** 	/* IOPINS0_1 Starting address: CYDEV_PRT1_BASE */
 739:Generated_Source\PSoC4/cyfitter_cfg.c **** 	CY_SET_REG32((void *)(CYDEV_PRT1_BASE), 0x00000010u);
 186              		.loc 1 739 0
 187 0092 1026     		movs	r6, #16
 188              	.LBB33:
 716:Generated_Source\PSoC4/cyfitter_cfg.c **** 		CY_SET_REG32((void *)(CYREG_UDB_PA1_CFG4), 0x08000000u);
 189              		.loc 1 716 0
 190 0094 1160     		str	r1, [r2]
 717:Generated_Source\PSoC4/cyfitter_cfg.c **** 		CY_SET_REG32((void *)(CYREG_UDB_PA1_CFG4), 0x08000000u);
 191              		.loc 1 717 0
 192 0096 8021     		movs	r1, #128
 193 0098 384A     		ldr	r2, .L8+48
 194 009a 0905     		lsls	r1, r1, #20
 195 009c 1160     		str	r1, [r2]
 718:Generated_Source\PSoC4/cyfitter_cfg.c **** 
 196              		.loc 1 718 0
 197 009e 8021     		movs	r1, #128
 198 00a0 374A     		ldr	r2, .L8+52
 199 00a2 8904     		lsls	r1, r1, #18
 200 00a4 1160     		str	r1, [r2]
 721:Generated_Source\PSoC4/cyfitter_cfg.c **** 
 201              		.loc 1 721 0
 202 00a6 374A     		ldr	r2, .L8+56
 730:Generated_Source\PSoC4/cyfitter_cfg.c **** 		CY_SET_XTND_REG8((void *)CYREG_UDB_UDBIF_BANK_CTL, (uint8)(CY_GET_XTND_REG8((void *)CYREG_UDB_UDB
 203              		.loc 1 730 0
 204 00a8 3C21     		movs	r1, #60
 721:Generated_Source\PSoC4/cyfitter_cfg.c **** 
 205              		.loc 1 721 0
 206 00aa 1360     		str	r3, [r2]
 724:Generated_Source\PSoC4/cyfitter_cfg.c **** 
 207              		.loc 1 724 0
 208 00ac 0D22     		movs	r2, #13
 209 00ae 364B     		ldr	r3, .L8+60
 210              	.LBE33:
 211              	.LBB34:
 212              	.LBB35:
ARM GAS  C:\Users\CCPOW_~1\AppData\Local\Temp\cca7RSpb.s 			page 18


 217:Generated_Source\PSoC4/cyfitter_cfg.c **** 
 213              		.loc 1 217 0
 214 00b0 364D     		ldr	r5, .L8+64
 215              	.LBE35:
 216              	.LBE34:
 217              	.LBB38:
 724:Generated_Source\PSoC4/cyfitter_cfg.c **** 
 218              		.loc 1 724 0
 219 00b2 1A60     		str	r2, [r3]
 727:Generated_Source\PSoC4/cyfitter_cfg.c **** 
 220              		.loc 1 727 0
 221 00b4 364B     		ldr	r3, .L8+68
 222 00b6 0132     		adds	r2, r2, #1
 223 00b8 1A60     		str	r2, [r3]
 730:Generated_Source\PSoC4/cyfitter_cfg.c **** 		CY_SET_XTND_REG8((void *)CYREG_UDB_UDBIF_BANK_CTL, (uint8)(CY_GET_XTND_REG8((void *)CYREG_UDB_UDB
 224              		.loc 1 730 0
 225 00ba 364A     		ldr	r2, .L8+72
 226              	.LBE38:
 227              	.LBB39:
 228              	.LBB36:
 220:Generated_Source\PSoC4/cyfitter_cfg.c **** 
 229              		.loc 1 220 0
 230 00bc 0F20     		movs	r0, #15
 231              	.LBE36:
 232              	.LBE39:
 233              	.LBB40:
 730:Generated_Source\PSoC4/cyfitter_cfg.c **** 		CY_SET_XTND_REG8((void *)CYREG_UDB_UDBIF_BANK_CTL, (uint8)(CY_GET_XTND_REG8((void *)CYREG_UDB_UDB
 234              		.loc 1 730 0
 235 00be 1378     		ldrb	r3, [r2]
 236              	.LBE40:
 740:Generated_Source\PSoC4/cyfitter_cfg.c **** 	CY_SET_REG32((void *)(CYREG_PRT1_PC), 0x0000E000u);
 741:Generated_Source\PSoC4/cyfitter_cfg.c **** 
 742:Generated_Source\PSoC4/cyfitter_cfg.c **** 	/* IOPINS0_3 Starting address: CYDEV_PRT3_BASE */
 743:Generated_Source\PSoC4/cyfitter_cfg.c **** 	CY_SET_REG32((void *)(CYREG_PRT3_PC), 0x00000D80u);
 744:Generated_Source\PSoC4/cyfitter_cfg.c **** 
 745:Generated_Source\PSoC4/cyfitter_cfg.c **** 	/* IOPINS0_4 Starting address: CYDEV_PRT4_BASE */
 746:Generated_Source\PSoC4/cyfitter_cfg.c **** 	CY_SET_REG32((void *)(CYDEV_PRT4_BASE), 0x00000002u);
 747:Generated_Source\PSoC4/cyfitter_cfg.c **** 	CY_SET_REG32((void *)(CYREG_PRT4_PC), 0x00000031u);
 748:Generated_Source\PSoC4/cyfitter_cfg.c **** 	CY_SET_REG32((void *)(CYREG_PRT4_PC2), 0x00000002u);
 749:Generated_Source\PSoC4/cyfitter_cfg.c **** 
 750:Generated_Source\PSoC4/cyfitter_cfg.c **** 
 751:Generated_Source\PSoC4/cyfitter_cfg.c **** 	/* Setup clocks based on selections from Clock DWR */
 752:Generated_Source\PSoC4/cyfitter_cfg.c **** 	ClockSetup();
 753:Generated_Source\PSoC4/cyfitter_cfg.c **** 
 754:Generated_Source\PSoC4/cyfitter_cfg.c **** 	/* Perform basic analog initialization to defaults */
 755:Generated_Source\PSoC4/cyfitter_cfg.c **** 	AnalogSetDefault();
 756:Generated_Source\PSoC4/cyfitter_cfg.c **** 
 757:Generated_Source\PSoC4/cyfitter_cfg.c **** }
 237              		.loc 1 757 0
 238              		@ sp needed
 239              	.LBB41:
 730:Generated_Source\PSoC4/cyfitter_cfg.c **** 		CY_SET_XTND_REG8((void *)CYREG_UDB_UDBIF_BANK_CTL, (uint8)(CY_GET_XTND_REG8((void *)CYREG_UDB_UDB
 240              		.loc 1 730 0
 241 00c0 8B43     		bics	r3, r1
 242 00c2 2839     		subs	r1, r1, #40
 243 00c4 0B43     		orrs	r3, r1
 244 00c6 1370     		strb	r3, [r2]
ARM GAS  C:\Users\CCPOW_~1\AppData\Local\Temp\cca7RSpb.s 			page 19


 731:Generated_Source\PSoC4/cyfitter_cfg.c **** 	}
 245              		.loc 1 731 0
 246 00c8 334A     		ldr	r2, .L8+76
 247 00ca 0231     		adds	r1, r1, #2
 248 00cc 1378     		ldrb	r3, [r2]
 249 00ce 0B43     		orrs	r3, r1
 250 00d0 1370     		strb	r3, [r2]
 251              	.LBE41:
 736:Generated_Source\PSoC4/cyfitter_cfg.c **** 
 252              		.loc 1 736 0
 253 00d2 8022     		movs	r2, #128
 254 00d4 314B     		ldr	r3, .L8+80
 255 00d6 D203     		lsls	r2, r2, #15
 256 00d8 1A60     		str	r2, [r3]
 740:Generated_Source\PSoC4/cyfitter_cfg.c **** 
 257              		.loc 1 740 0
 258 00da E022     		movs	r2, #224
 739:Generated_Source\PSoC4/cyfitter_cfg.c **** 	CY_SET_REG32((void *)(CYREG_PRT1_PC), 0x0000E000u);
 259              		.loc 1 739 0
 260 00dc 304B     		ldr	r3, .L8+84
 740:Generated_Source\PSoC4/cyfitter_cfg.c **** 
 261              		.loc 1 740 0
 262 00de 1202     		lsls	r2, r2, #8
 739:Generated_Source\PSoC4/cyfitter_cfg.c **** 	CY_SET_REG32((void *)(CYREG_PRT1_PC), 0x0000E000u);
 263              		.loc 1 739 0
 264 00e0 1E60     		str	r6, [r3]
 740:Generated_Source\PSoC4/cyfitter_cfg.c **** 
 265              		.loc 1 740 0
 266 00e2 304B     		ldr	r3, .L8+88
 747:Generated_Source\PSoC4/cyfitter_cfg.c **** 	CY_SET_REG32((void *)(CYREG_PRT4_PC2), 0x00000002u);
 267              		.loc 1 747 0
 268 00e4 1B31     		adds	r1, r1, #27
 740:Generated_Source\PSoC4/cyfitter_cfg.c **** 
 269              		.loc 1 740 0
 270 00e6 1A60     		str	r2, [r3]
 743:Generated_Source\PSoC4/cyfitter_cfg.c **** 
 271              		.loc 1 743 0
 272 00e8 D822     		movs	r2, #216
 273 00ea 2F4B     		ldr	r3, .L8+92
 274 00ec 1201     		lsls	r2, r2, #4
 275 00ee 1A60     		str	r2, [r3]
 746:Generated_Source\PSoC4/cyfitter_cfg.c **** 	CY_SET_REG32((void *)(CYREG_PRT4_PC), 0x00000031u);
 276              		.loc 1 746 0
 277 00f0 0223     		movs	r3, #2
 278 00f2 2E4A     		ldr	r2, .L8+96
 279 00f4 1360     		str	r3, [r2]
 747:Generated_Source\PSoC4/cyfitter_cfg.c **** 	CY_SET_REG32((void *)(CYREG_PRT4_PC2), 0x00000002u);
 280              		.loc 1 747 0
 281 00f6 2E4A     		ldr	r2, .L8+100
 282 00f8 1160     		str	r1, [r2]
 748:Generated_Source\PSoC4/cyfitter_cfg.c **** 
 283              		.loc 1 748 0
 284 00fa 2E4A     		ldr	r2, .L8+104
 285 00fc 1360     		str	r3, [r2]
 286              	.LBB42:
 287              	.LBB37:
 217:Generated_Source\PSoC4/cyfitter_cfg.c **** 
ARM GAS  C:\Users\CCPOW_~1\AppData\Local\Temp\cca7RSpb.s 			page 20


 288              		.loc 1 217 0
 289 00fe 8022     		movs	r2, #128
 290 0100 2B68     		ldr	r3, [r5]
 291 0102 D202     		lsls	r2, r2, #11
 292 0104 1343     		orrs	r3, r2
 293 0106 2B60     		str	r3, [r5]
 220:Generated_Source\PSoC4/cyfitter_cfg.c **** 
 294              		.loc 1 220 0
 295 0108 FFF7FEFF 		bl	CySysClkWriteImoFreq
 296              	.LVL11:
 223:Generated_Source\PSoC4/cyfitter_cfg.c **** 	/* CYDEV_CLK_ILO_CONFIG Starting address: CYDEV_CLK_ILO_CONFIG */
 297              		.loc 1 223 0
 298 010c 2A68     		ldr	r2, [r5]
 299 010e 2A4B     		ldr	r3, .L8+108
 244:Generated_Source\PSoC4/cyfitter_cfg.c **** 	CyIntEnable(9u);
 300              		.loc 1 244 0
 301 0110 2A49     		ldr	r1, .L8+112
 223:Generated_Source\PSoC4/cyfitter_cfg.c **** 	/* CYDEV_CLK_ILO_CONFIG Starting address: CYDEV_CLK_ILO_CONFIG */
 302              		.loc 1 223 0
 303 0112 1340     		ands	r3, r2
 304 0114 2B60     		str	r3, [r5]
 225:Generated_Source\PSoC4/cyfitter_cfg.c **** 
 305              		.loc 1 225 0
 306 0116 2A4A     		ldr	r2, .L8+116
 307 0118 2A4B     		ldr	r3, .L8+120
 244:Generated_Source\PSoC4/cyfitter_cfg.c **** 	CyIntEnable(9u);
 308              		.loc 1 244 0
 309 011a 0920     		movs	r0, #9
 225:Generated_Source\PSoC4/cyfitter_cfg.c **** 
 310              		.loc 1 225 0
 311 011c 1A60     		str	r2, [r3]
 229:Generated_Source\PSoC4/cyfitter_cfg.c **** 	CY_SET_REG32((void *)(CYREG_CLK_SELECT12), 0x00000020u);
 312              		.loc 1 229 0
 313 011e 2A4B     		ldr	r3, .L8+124
 233:Generated_Source\PSoC4/cyfitter_cfg.c **** 
 314              		.loc 1 233 0
 315 0120 063A     		subs	r2, r2, #6
 229:Generated_Source\PSoC4/cyfitter_cfg.c **** 	CY_SET_REG32((void *)(CYREG_CLK_SELECT12), 0x00000020u);
 316              		.loc 1 229 0
 317 0122 1E60     		str	r6, [r3]
 230:Generated_Source\PSoC4/cyfitter_cfg.c **** 
 318              		.loc 1 230 0
 319 0124 294B     		ldr	r3, .L8+128
 320 0126 1C60     		str	r4, [r3]
 236:Generated_Source\PSoC4/cyfitter_cfg.c **** 
 321              		.loc 1 236 0
 322 0128 0024     		movs	r4, #0
 233:Generated_Source\PSoC4/cyfitter_cfg.c **** 
 323              		.loc 1 233 0
 324 012a 294B     		ldr	r3, .L8+132
 325 012c 1A60     		str	r2, [r3]
 239:Generated_Source\PSoC4/cyfitter_cfg.c **** 
 326              		.loc 1 239 0
 327 012e 294A     		ldr	r2, .L8+136
 328 0130 294B     		ldr	r3, .L8+140
 236:Generated_Source\PSoC4/cyfitter_cfg.c **** 
 329              		.loc 1 236 0
ARM GAS  C:\Users\CCPOW_~1\AppData\Local\Temp\cca7RSpb.s 			page 21


 330 0132 2C60     		str	r4, [r5]
 239:Generated_Source\PSoC4/cyfitter_cfg.c **** 
 331              		.loc 1 239 0
 332 0134 1A60     		str	r2, [r3]
 242:Generated_Source\PSoC4/cyfitter_cfg.c **** 
 333              		.loc 1 242 0
 334 0136 294A     		ldr	r2, .L8+144
 335 0138 294B     		ldr	r3, .L8+148
 336 013a 1A60     		str	r2, [r3]
 244:Generated_Source\PSoC4/cyfitter_cfg.c **** 	CyIntEnable(9u);
 337              		.loc 1 244 0
 338 013c FFF7FEFF 		bl	CyIntSetVector
 339              	.LVL12:
 245:Generated_Source\PSoC4/cyfitter_cfg.c **** 	CY_SET_REG32((void *)(CYREG_WDT_CONFIG), 0x00000000u);
 340              		.loc 1 245 0
 341 0140 0920     		movs	r0, #9
 342 0142 FFF7FEFF 		bl	CyIntEnable
 343              	.LVL13:
 246:Generated_Source\PSoC4/cyfitter_cfg.c **** }
 344              		.loc 1 246 0
 345 0146 274B     		ldr	r3, .L8+152
 346 0148 1C60     		str	r4, [r3]
 347              	.LBE37:
 348              	.LBE42:
 349              		.loc 1 757 0
 350 014a F7BD     		pop	{r0, r1, r2, r4, r5, r6, r7, pc}
 351              	.L9:
 352              		.align	2
 353              	.L8:
 354 014c 1C700F40 		.word	1074753564
 355 0150 00300F40 		.word	1074737152
 356 0154 00400F40 		.word	1074741248
 357 0158 00000000 		.word	.LANCHOR0
 358 015c 00600F40 		.word	1074749440
 359 0160 02600F40 		.word	1074749442
 360 0164 04000140 		.word	1073807364
 361 0168 0C000140 		.word	1073807372
 362 016c 10000140 		.word	1073807376
 363 0170 04009900 		.word	10027012
 364 0174 00500F40 		.word	1074745344
 365 0178 10500F40 		.word	1074745360
 366 017c 14500F40 		.word	1074745364
 367 0180 18500F40 		.word	1074745368
 368 0184 30500F40 		.word	1074745392
 369 0188 20000040 		.word	1073741856
 370 018c 00010B40 		.word	1074462976
 371 0190 00800F40 		.word	1074757632
 372 0194 01700F40 		.word	1074753537
 373 0198 00700F40 		.word	1074753536
 374 019c 08000440 		.word	1074003976
 375 01a0 00010440 		.word	1074004224
 376 01a4 08010440 		.word	1074004232
 377 01a8 08030440 		.word	1074004744
 378 01ac 00040440 		.word	1074004992
 379 01b0 08040440 		.word	1074005000
 380 01b4 18040440 		.word	1074005016
 381 01b8 FFFFFBFF 		.word	-262145
ARM GAS  C:\Users\CCPOW_~1\AppData\Local\Temp\cca7RSpb.s 			page 22


 382 01bc 00000000 		.word	CySysWdtIsr
 383 01c0 06000080 		.word	-2147483642
 384 01c4 04010B40 		.word	1074462980
 385 01c8 08020240 		.word	1073873416
 386 01cc 30020240 		.word	1073873456
 387 01d0 08010B40 		.word	1074462984
 388 01d4 0A000080 		.word	-2147483638
 389 01d8 00000240 		.word	1073872896
 390 01dc 0F000080 		.word	-2147483633
 391 01e0 40000240 		.word	1073872960
 392 01e4 0C020B40 		.word	1074463244
 393              		.cfi_endproc
 394              	.LFE6:
 395              		.size	cyfitter_cfg, .-cyfitter_cfg
 396              		.section	.rodata
 397              		.align	2
 398              		.set	.LANCHOR0,. + 0
 399              		.type	cy_cfg_addr_table.4864, %object
 400              		.size	cy_cfg_addr_table.4864, 32
 401              	cy_cfg_addr_table.4864:
 402 0000 03000F40 		.word	1074724867
 403 0004 59300F40 		.word	1074737241
 404 0008 3A310F40 		.word	1074737466
 405 000c 6E320F40 		.word	1074737774
 406 0010 52330F40 		.word	1074738002
 407 0014 09400F40 		.word	1074741257
 408 0018 0B410F40 		.word	1074741515
 409 001c 02600F40 		.word	1074749442
 410              		.type	cy_cfg_data_table.4865, %object
 411              		.size	cy_cfg_data_table.4865, 728
 412              	cy_cfg_data_table.4865:
 413 0020 80       		.byte	-128
 414 0021 0F       		.byte	15
 415 0022 81       		.byte	-127
 416 0023 7A       		.byte	122
 417 0024 82       		.byte	-126
 418 0025 38       		.byte	56
 419 0026 04       		.byte	4
 420 0027 33       		.byte	51
 421 0028 05       		.byte	5
 422 0029 01       		.byte	1
 423 002a 06       		.byte	6
 424 002b 0C       		.byte	12
 425 002c 0A       		.byte	10
 426 002d 08       		.byte	8
 427 002e 14       		.byte	20
 428 002f 33       		.byte	51
 429 0030 16       		.byte	22
 430 0031 04       		.byte	4
 431 0032 18       		.byte	24
 432 0033 0A       		.byte	10
 433 0034 1A       		.byte	26
 434 0035 34       		.byte	52
 435 0036 24       		.byte	36
 436 0037 03       		.byte	3
 437 0038 26       		.byte	38
 438 0039 14       		.byte	20
ARM GAS  C:\Users\CCPOW_~1\AppData\Local\Temp\cca7RSpb.s 			page 23


 439 003a 28       		.byte	40
 440 003b 40       		.byte	64
 441 003c 2A       		.byte	42
 442 003d 15       		.byte	21
 443 003e 30       		.byte	48
 444 003f 10       		.byte	16
 445 0040 32       		.byte	50
 446 0041 60       		.byte	96
 447 0042 33       		.byte	51
 448 0043 01       		.byte	1
 449 0044 34       		.byte	52
 450 0045 0F       		.byte	15
 451 0046 38       		.byte	56
 452 0047 08       		.byte	8
 453 0048 3A       		.byte	58
 454 0049 20       		.byte	32
 455 004a 3E       		.byte	62
 456 004b 01       		.byte	1
 457 004c 3F       		.byte	63
 458 004d 04       		.byte	4
 459 004e 40       		.byte	64
 460 004f 26       		.byte	38
 461 0050 41       		.byte	65
 462 0051 03       		.byte	3
 463 0052 45       		.byte	69
 464 0053 0C       		.byte	12
 465 0054 46       		.byte	70
 466 0055 0B       		.byte	11
 467 0056 47       		.byte	71
 468 0057 0E       		.byte	14
 469 0058 48       		.byte	72
 470 0059 15       		.byte	21
 471 005a 49       		.byte	73
 472 005b FF       		.byte	-1
 473 005c 4A       		.byte	74
 474 005d FF       		.byte	-1
 475 005e 4B       		.byte	75
 476 005f FF       		.byte	-1
 477 0060 4E       		.byte	78
 478 0061 F0       		.byte	-16
 479 0062 4F       		.byte	79
 480 0063 44       		.byte	68
 481 0064 50       		.byte	80
 482 0065 0C       		.byte	12
 483 0066 54       		.byte	84
 484 0067 01       		.byte	1
 485 0068 56       		.byte	86
 486 0069 04       		.byte	4
 487 006a 58       		.byte	88
 488 006b 04       		.byte	4
 489 006c 59       		.byte	89
 490 006d 04       		.byte	4
 491 006e 5A       		.byte	90
 492 006f 04       		.byte	4
 493 0070 5B       		.byte	91
 494 0071 04       		.byte	4
 495 0072 5F       		.byte	95
ARM GAS  C:\Users\CCPOW_~1\AppData\Local\Temp\cca7RSpb.s 			page 24


 496 0073 01       		.byte	1
 497 0074 66       		.byte	102
 498 0075 C0       		.byte	-64
 499 0076 6A       		.byte	106
 500 0077 40       		.byte	64
 501 0078 6B       		.byte	107
 502 0079 02       		.byte	2
 503 007a 81       		.byte	-127
 504 007b 10       		.byte	16
 505 007c 82       		.byte	-126
 506 007d 63       		.byte	99
 507 007e 84       		.byte	-124
 508 007f BC       		.byte	-68
 509 0080 85       		.byte	-123
 510 0081 08       		.byte	8
 511 0082 86       		.byte	-122
 512 0083 43       		.byte	67
 513 0084 88       		.byte	-120
 514 0085 FF       		.byte	-1
 515 0086 89       		.byte	-119
 516 0087 38       		.byte	56
 517 0088 8C       		.byte	-116
 518 0089 08       		.byte	8
 519 008a 8D       		.byte	-115
 520 008b 04       		.byte	4
 521 008c 8F       		.byte	-113
 522 008d 80       		.byte	-128
 523 008e 90       		.byte	-112
 524 008f 9F       		.byte	-97
 525 0090 92       		.byte	-110
 526 0091 60       		.byte	96
 527 0092 93       		.byte	-109
 528 0093 03       		.byte	3
 529 0094 94       		.byte	-108
 530 0095 03       		.byte	3
 531 0096 95       		.byte	-107
 532 0097 7F       		.byte	127
 533 0098 98       		.byte	-104
 534 0099 E3       		.byte	-29
 535 009a 99       		.byte	-103
 536 009b 3C       		.byte	60
 537 009c 9A       		.byte	-102
 538 009d 1C       		.byte	28
 539 009e 9B       		.byte	-101
 540 009f 42       		.byte	66
 541 00a0 9C       		.byte	-100
 542 00a1 10       		.byte	16
 543 00a2 9F       		.byte	-97
 544 00a3 04       		.byte	4
 545 00a4 A0       		.byte	-96
 546 00a5 02       		.byte	2
 547 00a6 A1       		.byte	-95
 548 00a7 20       		.byte	32
 549 00a8 A4       		.byte	-92
 550 00a9 04       		.byte	4
 551 00aa A5       		.byte	-91
 552 00ab 47       		.byte	71
ARM GAS  C:\Users\CCPOW_~1\AppData\Local\Temp\cca7RSpb.s 			page 25


 553 00ac A7       		.byte	-89
 554 00ad 38       		.byte	56
 555 00ae A8       		.byte	-88
 556 00af 1C       		.byte	28
 557 00b0 AC       		.byte	-84
 558 00b1 01       		.byte	1
 559 00b2 AD       		.byte	-83
 560 00b3 3C       		.byte	60
 561 00b4 AF       		.byte	-81
 562 00b5 41       		.byte	65
 563 00b6 B0       		.byte	-80
 564 00b7 5C       		.byte	92
 565 00b8 B1       		.byte	-79
 566 00b9 80       		.byte	-128
 567 00ba B2       		.byte	-78
 568 00bb 3C       		.byte	60
 569 00bc B4       		.byte	-76
 570 00bd 1F       		.byte	31
 571 00be B5       		.byte	-75
 572 00bf 3F       		.byte	63
 573 00c0 B6       		.byte	-74
 574 00c1 80       		.byte	-128
 575 00c2 B7       		.byte	-73
 576 00c3 40       		.byte	64
 577 00c4 B9       		.byte	-71
 578 00c5 80       		.byte	-128
 579 00c6 BA       		.byte	-70
 580 00c7 22       		.byte	34
 581 00c8 BB       		.byte	-69
 582 00c9 28       		.byte	40
 583 00ca BE       		.byte	-66
 584 00cb 40       		.byte	64
 585 00cc D6       		.byte	-42
 586 00cd 02       		.byte	2
 587 00ce D7       		.byte	-41
 588 00cf 13       		.byte	19
 589 00d0 D8       		.byte	-40
 590 00d1 04       		.byte	4
 591 00d2 D9       		.byte	-39
 592 00d3 04       		.byte	4
 593 00d4 DB       		.byte	-37
 594 00d5 04       		.byte	4
 595 00d6 DF       		.byte	-33
 596 00d7 01       		.byte	1
 597 00d8 00       		.byte	0
 598 00d9 04       		.byte	4
 599 00da 03       		.byte	3
 600 00db 08       		.byte	8
 601 00dc 04       		.byte	4
 602 00dd 28       		.byte	40
 603 00de 05       		.byte	5
 604 00df 01       		.byte	1
 605 00e0 06       		.byte	6
 606 00e1 02       		.byte	2
 607 00e2 09       		.byte	9
 608 00e3 08       		.byte	8
 609 00e4 0B       		.byte	11
ARM GAS  C:\Users\CCPOW_~1\AppData\Local\Temp\cca7RSpb.s 			page 26


 610 00e5 14       		.byte	20
 611 00e6 0D       		.byte	13
 612 00e7 02       		.byte	2
 613 00e8 0E       		.byte	14
 614 00e9 26       		.byte	38
 615 00ea 10       		.byte	16
 616 00eb 38       		.byte	56
 617 00ec 14       		.byte	20
 618 00ed 40       		.byte	64
 619 00ee 16       		.byte	22
 620 00ef 01       		.byte	1
 621 00f0 17       		.byte	23
 622 00f1 28       		.byte	40
 623 00f2 18       		.byte	24
 624 00f3 04       		.byte	4
 625 00f4 1A       		.byte	26
 626 00f5 50       		.byte	80
 627 00f6 1B       		.byte	27
 628 00f7 08       		.byte	8
 629 00f8 1C       		.byte	28
 630 00f9 41       		.byte	65
 631 00fa 1D       		.byte	29
 632 00fb 26       		.byte	38
 633 00fc 1E       		.byte	30
 634 00fd 04       		.byte	4
 635 00fe 1F       		.byte	31
 636 00ff 02       		.byte	2
 637 0100 22       		.byte	34
 638 0101 04       		.byte	4
 639 0102 24       		.byte	36
 640 0103 28       		.byte	40
 641 0104 26       		.byte	38
 642 0105 28       		.byte	40
 643 0106 27       		.byte	39
 644 0107 82       		.byte	-126
 645 0108 2D       		.byte	45
 646 0109 01       		.byte	1
 647 010a 2E       		.byte	46
 648 010b 04       		.byte	4
 649 010c 2F       		.byte	47
 650 010d 02       		.byte	2
 651 010e 35       		.byte	53
 652 010f 01       		.byte	1
 653 0110 36       		.byte	54
 654 0111 28       		.byte	40
 655 0112 37       		.byte	55
 656 0113 80       		.byte	-128
 657 0114 39       		.byte	57
 658 0115 08       		.byte	8
 659 0116 3E       		.byte	62
 660 0117 2A       		.byte	42
 661 0118 3F       		.byte	63
 662 0119 80       		.byte	-128
 663 011a 40       		.byte	64
 664 011b 04       		.byte	4
 665 011c 41       		.byte	65
 666 011d 08       		.byte	8
ARM GAS  C:\Users\CCPOW_~1\AppData\Local\Temp\cca7RSpb.s 			page 27


 667 011e 48       		.byte	72
 668 011f 28       		.byte	40
 669 0120 50       		.byte	80
 670 0121 80       		.byte	-128
 671 0122 51       		.byte	81
 672 0123 04       		.byte	4
 673 0124 58       		.byte	88
 674 0125 10       		.byte	16
 675 0126 5A       		.byte	90
 676 0127 49       		.byte	73
 677 0128 5C       		.byte	92
 678 0129 01       		.byte	1
 679 012a 63       		.byte	99
 680 012b 40       		.byte	64
 681 012c 6D       		.byte	109
 682 012d 51       		.byte	81
 683 012e 6E       		.byte	110
 684 012f 02       		.byte	2
 685 0130 6F       		.byte	111
 686 0131 10       		.byte	16
 687 0132 76       		.byte	118
 688 0133 2A       		.byte	42
 689 0134 77       		.byte	119
 690 0135 28       		.byte	40
 691 0136 87       		.byte	-121
 692 0137 40       		.byte	64
 693 0138 C0       		.byte	-64
 694 0139 F6       		.byte	-10
 695 013a C2       		.byte	-62
 696 013b F6       		.byte	-10
 697 013c C4       		.byte	-60
 698 013d F6       		.byte	-10
 699 013e CA       		.byte	-54
 700 013f D0       		.byte	-48
 701 0140 CC       		.byte	-52
 702 0141 F0       		.byte	-16
 703 0142 CE       		.byte	-50
 704 0143 F2       		.byte	-14
 705 0144 D0       		.byte	-48
 706 0145 06       		.byte	6
 707 0146 D2       		.byte	-46
 708 0147 04       		.byte	4
 709 0148 D6       		.byte	-42
 710 0149 8F       		.byte	-113
 711 014a D8       		.byte	-40
 712 014b 01       		.byte	1
 713 014c 02       		.byte	2
 714 014d 03       		.byte	3
 715 014e 03       		.byte	3
 716 014f 08       		.byte	8
 717 0150 06       		.byte	6
 718 0151 03       		.byte	3
 719 0152 08       		.byte	8
 720 0153 03       		.byte	3
 721 0154 0D       		.byte	13
 722 0155 01       		.byte	1
 723 0156 0E       		.byte	14
ARM GAS  C:\Users\CCPOW_~1\AppData\Local\Temp\cca7RSpb.s 			page 28


 724 0157 03       		.byte	3
 725 0158 0F       		.byte	15
 726 0159 02       		.byte	2
 727 015a 10       		.byte	16
 728 015b 21       		.byte	33
 729 015c 12       		.byte	18
 730 015d 18       		.byte	24
 731 015e 13       		.byte	19
 732 015f 04       		.byte	4
 733 0160 14       		.byte	20
 734 0161 13       		.byte	19
 735 0162 16       		.byte	22
 736 0163 64       		.byte	100
 737 0164 17       		.byte	23
 738 0165 08       		.byte	8
 739 0166 18       		.byte	24
 740 0167 03       		.byte	3
 741 0168 19       		.byte	25
 742 0169 03       		.byte	3
 743 016a 1C       		.byte	28
 744 016b 42       		.byte	66
 745 016c 1D       		.byte	29
 746 016d 02       		.byte	2
 747 016e 1E       		.byte	30
 748 016f 18       		.byte	24
 749 0170 1F       		.byte	31
 750 0171 01       		.byte	1
 751 0172 23       		.byte	35
 752 0173 04       		.byte	4
 753 0174 24       		.byte	36
 754 0175 F0       		.byte	-16
 755 0176 28       		.byte	40
 756 0177 F0       		.byte	-16
 757 0178 29       		.byte	41
 758 0179 03       		.byte	3
 759 017a 2C       		.byte	44
 760 017b 80       		.byte	-128
 761 017c 30       		.byte	48
 762 017d 80       		.byte	-128
 763 017e 31       		.byte	49
 764 017f 03       		.byte	3
 765 0180 32       		.byte	50
 766 0181 70       		.byte	112
 767 0182 33       		.byte	51
 768 0183 04       		.byte	4
 769 0184 34       		.byte	52
 770 0185 03       		.byte	3
 771 0186 35       		.byte	53
 772 0187 08       		.byte	8
 773 0188 36       		.byte	54
 774 0189 0C       		.byte	12
 775 018a 3E       		.byte	62
 776 018b 40       		.byte	64
 777 018c 3F       		.byte	63
 778 018d 14       		.byte	20
 779 018e 40       		.byte	64
 780 018f 24       		.byte	36
ARM GAS  C:\Users\CCPOW_~1\AppData\Local\Temp\cca7RSpb.s 			page 29


 781 0190 41       		.byte	65
 782 0191 06       		.byte	6
 783 0192 42       		.byte	66
 784 0193 03       		.byte	3
 785 0194 44       		.byte	68
 786 0195 01       		.byte	1
 787 0196 45       		.byte	69
 788 0197 C0       		.byte	-64
 789 0198 47       		.byte	71
 790 0199 E0       		.byte	-32
 791 019a 48       		.byte	72
 792 019b 22       		.byte	34
 793 019c 49       		.byte	73
 794 019d FF       		.byte	-1
 795 019e 4A       		.byte	74
 796 019f FF       		.byte	-1
 797 01a0 4B       		.byte	75
 798 01a1 FF       		.byte	-1
 799 01a2 4C       		.byte	76
 800 01a3 62       		.byte	98
 801 01a4 4D       		.byte	77
 802 01a5 A0       		.byte	-96
 803 01a6 4E       		.byte	78
 804 01a7 F0       		.byte	-16
 805 01a8 4F       		.byte	79
 806 01a9 41       		.byte	65
 807 01aa 50       		.byte	80
 808 01ab 0C       		.byte	12
 809 01ac 54       		.byte	84
 810 01ad 18       		.byte	24
 811 01ae 56       		.byte	86
 812 01af 04       		.byte	4
 813 01b0 58       		.byte	88
 814 01b1 04       		.byte	4
 815 01b2 59       		.byte	89
 816 01b3 04       		.byte	4
 817 01b4 5A       		.byte	90
 818 01b5 04       		.byte	4
 819 01b6 5B       		.byte	91
 820 01b7 04       		.byte	4
 821 01b8 5F       		.byte	95
 822 01b9 01       		.byte	1
 823 01ba 66       		.byte	102
 824 01bb 40       		.byte	64
 825 01bc 67       		.byte	103
 826 01bd 02       		.byte	2
 827 01be 69       		.byte	105
 828 01bf 10       		.byte	16
 829 01c0 6A       		.byte	106
 830 01c1 30       		.byte	48
 831 01c2 6B       		.byte	107
 832 01c3 10       		.byte	16
 833 01c4 6D       		.byte	109
 834 01c5 10       		.byte	16
 835 01c6 6E       		.byte	110
 836 01c7 10       		.byte	16
 837 01c8 6F       		.byte	111
ARM GAS  C:\Users\CCPOW_~1\AppData\Local\Temp\cca7RSpb.s 			page 30


 838 01c9 12       		.byte	18
 839 01ca 84       		.byte	-124
 840 01cb 10       		.byte	16
 841 01cc 85       		.byte	-123
 842 01cd 31       		.byte	49
 843 01ce 86       		.byte	-122
 844 01cf 0C       		.byte	12
 845 01d0 87       		.byte	-121
 846 01d1 46       		.byte	70
 847 01d2 89       		.byte	-119
 848 01d3 31       		.byte	49
 849 01d4 8B       		.byte	-117
 850 01d5 0E       		.byte	14
 851 01d6 8C       		.byte	-116
 852 01d7 10       		.byte	16
 853 01d8 94       		.byte	-108
 854 01d9 09       		.byte	9
 855 01da 96       		.byte	-106
 856 01db 10       		.byte	16
 857 01dc 97       		.byte	-105
 858 01dd 13       		.byte	19
 859 01de 99       		.byte	-103
 860 01df 6C       		.byte	108
 861 01e0 9B       		.byte	-101
 862 01e1 03       		.byte	3
 863 01e2 9E       		.byte	-98
 864 01e3 03       		.byte	3
 865 01e4 9F       		.byte	-97
 866 01e5 08       		.byte	8
 867 01e6 A0       		.byte	-96
 868 01e7 14       		.byte	20
 869 01e8 A1       		.byte	-95
 870 01e9 80       		.byte	-128
 871 01ea A4       		.byte	-92
 872 01eb 1C       		.byte	28
 873 01ec A6       		.byte	-90
 874 01ed 02       		.byte	2
 875 01ee A8       		.byte	-88
 876 01ef 0C       		.byte	12
 877 01f0 AA       		.byte	-86
 878 01f1 11       		.byte	17
 879 01f2 AB       		.byte	-85
 880 01f3 4C       		.byte	76
 881 01f4 B1       		.byte	-79
 882 01f5 30       		.byte	48
 883 01f6 B3       		.byte	-77
 884 01f7 4A       		.byte	74
 885 01f8 B5       		.byte	-75
 886 01f9 0F       		.byte	15
 887 01fa B6       		.byte	-74
 888 01fb 1F       		.byte	31
 889 01fc B7       		.byte	-73
 890 01fd 80       		.byte	-128
 891 01fe B9       		.byte	-71
 892 01ff 02       		.byte	2
 893 0200 BB       		.byte	-69
 894 0201 28       		.byte	40
ARM GAS  C:\Users\CCPOW_~1\AppData\Local\Temp\cca7RSpb.s 			page 31


 895 0202 BF       		.byte	-65
 896 0203 41       		.byte	65
 897 0204 C0       		.byte	-64
 898 0205 05       		.byte	5
 899 0206 C5       		.byte	-59
 900 0207 40       		.byte	64
 901 0208 C9       		.byte	-55
 902 0209 FF       		.byte	-1
 903 020a CA       		.byte	-54
 904 020b 07       		.byte	7
 905 020c CB       		.byte	-53
 906 020d FF       		.byte	-1
 907 020e CC       		.byte	-52
 908 020f 40       		.byte	64
 909 0210 CD       		.byte	-51
 910 0211 20       		.byte	32
 911 0212 CE       		.byte	-50
 912 0213 F0       		.byte	-16
 913 0214 CF       		.byte	-49
 914 0215 05       		.byte	5
 915 0216 D0       		.byte	-48
 916 0217 08       		.byte	8
 917 0218 D8       		.byte	-40
 918 0219 04       		.byte	4
 919 021a D9       		.byte	-39
 920 021b 04       		.byte	4
 921 021c DA       		.byte	-38
 922 021d 04       		.byte	4
 923 021e DF       		.byte	-33
 924 021f 01       		.byte	1
 925 0220 E0       		.byte	-32
 926 0221 40       		.byte	64
 927 0222 E1       		.byte	-31
 928 0223 A8       		.byte	-88
 929 0224 E2       		.byte	-30
 930 0225 40       		.byte	64
 931 0226 E3       		.byte	-29
 932 0227 20       		.byte	32
 933 0228 00       		.byte	0
 934 0229 84       		.byte	-124
 935 022a 04       		.byte	4
 936 022b 48       		.byte	72
 937 022c 05       		.byte	5
 938 022d 01       		.byte	1
 939 022e 06       		.byte	6
 940 022f 04       		.byte	4
 941 0230 08       		.byte	8
 942 0231 08       		.byte	8
 943 0232 0A       		.byte	10
 944 0233 11       		.byte	17
 945 0234 0C       		.byte	12
 946 0235 40       		.byte	64
 947 0236 0E       		.byte	14
 948 0237 2A       		.byte	42
 949 0238 0F       		.byte	15
 950 0239 80       		.byte	-128
 951 023a 10       		.byte	16
ARM GAS  C:\Users\CCPOW_~1\AppData\Local\Temp\cca7RSpb.s 			page 32


 952 023b 80       		.byte	-128
 953 023c 13       		.byte	19
 954 023d 14       		.byte	20
 955 023e 15       		.byte	21
 956 023f 40       		.byte	64
 957 0240 16       		.byte	22
 958 0241 20       		.byte	32
 959 0242 17       		.byte	23
 960 0243 10       		.byte	16
 961 0244 1A       		.byte	26
 962 0245 01       		.byte	1
 963 0246 1B       		.byte	27
 964 0247 80       		.byte	-128
 965 0248 1D       		.byte	29
 966 0249 93       		.byte	-109
 967 024a 1E       		.byte	30
 968 024b 20       		.byte	32
 969 024c 22       		.byte	34
 970 024d 52       		.byte	82
 971 024e 23       		.byte	35
 972 024f 14       		.byte	20
 973 0250 25       		.byte	37
 974 0251 10       		.byte	16
 975 0252 26       		.byte	38
 976 0253 01       		.byte	1
 977 0254 27       		.byte	39
 978 0255 20       		.byte	32
 979 0256 28       		.byte	40
 980 0257 08       		.byte	8
 981 0258 2B       		.byte	43
 982 0259 80       		.byte	-128
 983 025a 2D       		.byte	45
 984 025b 10       		.byte	16
 985 025c 2E       		.byte	46
 986 025d 22       		.byte	34
 987 025e 30       		.byte	48
 988 025f 08       		.byte	8
 989 0260 32       		.byte	50
 990 0261 90       		.byte	-112
 991 0262 34       		.byte	52
 992 0263 40       		.byte	64
 993 0264 35       		.byte	53
 994 0265 04       		.byte	4
 995 0266 37       		.byte	55
 996 0267 1A       		.byte	26
 997 0268 38       		.byte	56
 998 0269 04       		.byte	4
 999 026a 3B       		.byte	59
 1000 026b 10       		.byte	16
 1001 026c 3F       		.byte	63
 1002 026d 82       		.byte	-126
 1003 026e 45       		.byte	69
 1004 026f A2       		.byte	-94
 1005 0270 46       		.byte	70
 1006 0271 04       		.byte	4
 1007 0272 47       		.byte	71
 1008 0273 08       		.byte	8
ARM GAS  C:\Users\CCPOW_~1\AppData\Local\Temp\cca7RSpb.s 			page 33


 1009 0274 48       		.byte	72
 1010 0275 40       		.byte	64
 1011 0276 4A       		.byte	74
 1012 0277 8E       		.byte	-114
 1013 0278 4E       		.byte	78
 1014 0279 08       		.byte	8
 1015 027a 4F       		.byte	79
 1016 027b 02       		.byte	2
 1017 027c 50       		.byte	80
 1018 027d 08       		.byte	8
 1019 027e 56       		.byte	86
 1020 027f 02       		.byte	2
 1021 0280 59       		.byte	89
 1022 0281 20       		.byte	32
 1023 0282 5B       		.byte	91
 1024 0283 20       		.byte	32
 1025 0284 5D       		.byte	93
 1026 0285 02       		.byte	2
 1027 0286 65       		.byte	101
 1028 0287 20       		.byte	32
 1029 0288 66       		.byte	102
 1030 0289 80       		.byte	-128
 1031 028a 67       		.byte	103
 1032 028b 80       		.byte	-128
 1033 028c 81       		.byte	-127
 1034 028d 10       		.byte	16
 1035 028e 82       		.byte	-126
 1036 028f C1       		.byte	-63
 1037 0290 83       		.byte	-125
 1038 0291 40       		.byte	64
 1039 0292 87       		.byte	-121
 1040 0293 40       		.byte	64
 1041 0294 8D       		.byte	-115
 1042 0295 12       		.byte	18
 1043 0296 90       		.byte	-112
 1044 0297 4C       		.byte	76
 1045 0298 91       		.byte	-111
 1046 0299 50       		.byte	80
 1047 029a 92       		.byte	-110
 1048 029b 10       		.byte	16
 1049 029c 97       		.byte	-105
 1050 029d 14       		.byte	20
 1051 029e 99       		.byte	-103
 1052 029f 04       		.byte	4
 1053 02a0 9B       		.byte	-101
 1054 02a1 12       		.byte	18
 1055 02a2 9C       		.byte	-100
 1056 02a3 40       		.byte	64
 1057 02a4 9D       		.byte	-99
 1058 02a5 01       		.byte	1
 1059 02a6 9E       		.byte	-98
 1060 02a7 01       		.byte	1
 1061 02a8 A0       		.byte	-96
 1062 02a9 80       		.byte	-128
 1063 02aa A1       		.byte	-95
 1064 02ab 20       		.byte	32
 1065 02ac A2       		.byte	-94
ARM GAS  C:\Users\CCPOW_~1\AppData\Local\Temp\cca7RSpb.s 			page 34


 1066 02ad 08       		.byte	8
 1067 02ae A4       		.byte	-92
 1068 02af 08       		.byte	8
 1069 02b0 A6       		.byte	-90
 1070 02b1 10       		.byte	16
 1071 02b2 A7       		.byte	-89
 1072 02b3 40       		.byte	64
 1073 02b4 AD       		.byte	-83
 1074 02b5 04       		.byte	4
 1075 02b6 AE       		.byte	-82
 1076 02b7 01       		.byte	1
 1077 02b8 C0       		.byte	-64
 1078 02b9 F5       		.byte	-11
 1079 02ba C2       		.byte	-62
 1080 02bb F5       		.byte	-11
 1081 02bc C4       		.byte	-60
 1082 02bd EE       		.byte	-18
 1083 02be CA       		.byte	-54
 1084 02bf A5       		.byte	-91
 1085 02c0 CC       		.byte	-52
 1086 02c1 FE       		.byte	-2
 1087 02c2 CE       		.byte	-50
 1088 02c3 96       		.byte	-106
 1089 02c4 D0       		.byte	-48
 1090 02c5 F0       		.byte	-16
 1091 02c6 D2       		.byte	-46
 1092 02c7 28       		.byte	40
 1093 02c8 D6       		.byte	-42
 1094 02c9 80       		.byte	-128
 1095 02ca D8       		.byte	-40
 1096 02cb B0       		.byte	-80
 1097 02cc 0E       		.byte	14
 1098 02cd 08       		.byte	8
 1099 02ce 6E       		.byte	110
 1100 02cf 08       		.byte	8
 1101 02d0 71       		.byte	113
 1102 02d1 20       		.byte	32
 1103 02d2 77       		.byte	119
 1104 02d3 02       		.byte	2
 1105 02d4 87       		.byte	-121
 1106 02d5 02       		.byte	2
 1107 02d6 C2       		.byte	-62
 1108 02d7 80       		.byte	-128
 1109 02d8 DA       		.byte	-38
 1110 02d9 80       		.byte	-128
 1111 02da DC       		.byte	-36
 1112 02db 60       		.byte	96
 1113 02dc E6       		.byte	-26
 1114 02dd 40       		.byte	64
 1115 02de 0E       		.byte	14
 1116 02df 40       		.byte	64
 1117 02e0 60       		.byte	96
 1118 02e1 10       		.byte	16
 1119 02e2 80       		.byte	-128
 1120 02e3 10       		.byte	16
 1121 02e4 82       		.byte	-126
 1122 02e5 40       		.byte	64
ARM GAS  C:\Users\CCPOW_~1\AppData\Local\Temp\cca7RSpb.s 			page 35


 1123 02e6 85       		.byte	-123
 1124 02e7 20       		.byte	32
 1125 02e8 A5       		.byte	-91
 1126 02e9 20       		.byte	32
 1127 02ea C2       		.byte	-62
 1128 02eb 20       		.byte	32
 1129 02ec D8       		.byte	-40
 1130 02ed 40       		.byte	64
 1131 02ee E0       		.byte	-32
 1132 02ef 20       		.byte	32
 1133 02f0 E2       		.byte	-30
 1134 02f1 10       		.byte	16
 1135 02f2 E6       		.byte	-26
 1136 02f3 80       		.byte	-128
 1137 02f4 10       		.byte	16
 1138 02f5 01       		.byte	1
 1139 02f6 11       		.byte	17
 1140 02f7 01       		.byte	1
 1141              		.text
 1142              	.Letext0:
 1143              		.file 2 "d:\\programs\\psoccreator\\psoc creator\\4.1\\psoc creator\\import\\gnu\\arm\\5.4.1\\lib\
 1144              		.file 3 "Generated_Source\\PSoC4\\cytypes.h"
 1145              		.file 4 "Generated_Source\\PSoC4\\CyLib.h"