ARM GAS  C:\Users\CCPOW_~1\AppData\Local\Temp\ccDjFcsV.s 			page 1


   1              		.syntax unified
   2              		.cpu cortex-m0
   3              		.fpu softvfp
   4              		.eabi_attribute 20, 1
   5              		.eabi_attribute 21, 1
   6              		.eabi_attribute 23, 3
   7              		.eabi_attribute 24, 1
   8              		.eabi_attribute 25, 1
   9              		.eabi_attribute 26, 1
  10              		.eabi_attribute 30, 4
  11              		.eabi_attribute 34, 0
  12              		.eabi_attribute 18, 4
  13              		.thumb
  14              		.syntax unified
  15              		.file	"usbserialprotocol.c"
  16              		.text
  17              	.Ltext0:
  18              		.cfi_sections	.debug_frame
  19              		.section	.text.getValidByte,"ax",%progbits
  20              		.align	1
  21              		.global	getValidByte
  22              		.code	16
  23              		.thumb_func
  24              		.type	getValidByte, %function
  25              	getValidByte:
  26              	.LFB35:
  27              		.file 1 "usbserialprotocol.c"
   1:usbserialprotocol.c **** /* ========================================
   2:usbserialprotocol.c ****  *
   3:usbserialprotocol.c ****  * Copyright YOUR COMPANY, THE YEAR
   4:usbserialprotocol.c ****  * All Rights Reserved
   5:usbserialprotocol.c ****  * UNPUBLISHED, LICENSED SOFTWARE.
   6:usbserialprotocol.c ****  *
   7:usbserialprotocol.c ****  * CONFIDENTIAL AND PROPRIETARY INFORMATION
   8:usbserialprotocol.c ****  * WHICH IS THE PROPERTY OF your company.
   9:usbserialprotocol.c ****  *
  10:usbserialprotocol.c ****  * ========================================
  11:usbserialprotocol.c **** */
  12:usbserialprotocol.c **** 
  13:usbserialprotocol.c **** #include "usbserialprotocol.h"
  14:usbserialprotocol.c **** #include "common.h"
  15:usbserialprotocol.c **** 
  16:usbserialprotocol.c **** uint8 getValidByte()
  17:usbserialprotocol.c **** {
  28              		.loc 1 17 0
  29              		.cfi_startproc
  30              		@ args = 0, pretend = 0, frame = 0
  31              		@ frame_needed = 0, uses_anonymous_args = 0
  32 0000 10B5     		push	{r4, lr}
  33              		.cfi_def_cfa_offset 8
  34              		.cfi_offset 4, -8
  35              		.cfi_offset 14, -4
  36              	.L2:
  18:usbserialprotocol.c ****     uint8 retval = 0u;
  19:usbserialprotocol.c ****     while(DB_UART_SpiUartGetRxBufferSize() < 1); // wait for byte
  37              		.loc 1 19 0 discriminator 1
  38 0002 FFF7FEFF 		bl	DB_UART_SpiUartGetRxBufferSize
ARM GAS  C:\Users\CCPOW_~1\AppData\Local\Temp\ccDjFcsV.s 			page 2


  39              	.LVL0:
  40 0006 0028     		cmp	r0, #0
  41 0008 FBD0     		beq	.L2
  20:usbserialprotocol.c ****     retval = DB_UART_UartGetByte();
  42              		.loc 1 20 0
  43 000a FFF7FEFF 		bl	DB_UART_UartGetByte
  44              	.LVL1:
  21:usbserialprotocol.c ****     return retval;
  22:usbserialprotocol.c **** }
  45              		.loc 1 22 0
  46              		@ sp needed
  21:usbserialprotocol.c ****     return retval;
  47              		.loc 1 21 0
  48 000e C0B2     		uxtb	r0, r0
  49              		.loc 1 22 0
  50 0010 10BD     		pop	{r4, pc}
  51              		.cfi_endproc
  52              	.LFE35:
  53              		.size	getValidByte, .-getValidByte
  54              		.section	.text.pushMessage,"ax",%progbits
  55              		.align	1
  56              		.global	pushMessage
  57              		.code	16
  58              		.thumb_func
  59              		.type	pushMessage, %function
  60              	pushMessage:
  61              	.LFB36:
  23:usbserialprotocol.c **** 
  24:usbserialprotocol.c **** 
  25:usbserialprotocol.c **** void pushMessage(const uint8 data[], uint8 size)
  26:usbserialprotocol.c **** {
  62              		.loc 1 26 0
  63              		.cfi_startproc
  64              		@ args = 0, pretend = 0, frame = 0
  65              		@ frame_needed = 0, uses_anonymous_args = 0
  66              	.LVL2:
  67 0000 70B5     		push	{r4, r5, r6, lr}
  68              		.cfi_def_cfa_offset 16
  69              		.cfi_offset 4, -16
  70              		.cfi_offset 5, -12
  71              		.cfi_offset 6, -8
  72              		.cfi_offset 14, -4
  73 0002 0400     		movs	r4, r0
  74 0004 4518     		adds	r5, r0, r1
  75              	.LVL3:
  76              	.L7:
  77              	.LBB2:
  27:usbserialprotocol.c ****     for (uint8 i = 0; i < size; i++) {
  78              		.loc 1 27 0 discriminator 1
  79 0006 AC42     		cmp	r4, r5
  80 0008 04D0     		beq	.L9
  28:usbserialprotocol.c ****         DB_UART_UartPutChar(data[i]);   
  81              		.loc 1 28 0 discriminator 3
  82 000a 2078     		ldrb	r0, [r4]
  83 000c FFF7FEFF 		bl	DB_UART_SpiUartWriteTxData
  84              	.LVL4:
  85 0010 0134     		adds	r4, r4, #1
ARM GAS  C:\Users\CCPOW_~1\AppData\Local\Temp\ccDjFcsV.s 			page 3


  86              	.LVL5:
  87 0012 F8E7     		b	.L7
  88              	.LVL6:
  89              	.L9:
  90              	.LBE2:
  29:usbserialprotocol.c ****     }
  30:usbserialprotocol.c **** }
  91              		.loc 1 30 0
  92              		@ sp needed
  93              	.LVL7:
  94 0014 70BD     		pop	{r4, r5, r6, pc}
  95              		.cfi_endproc
  96              	.LFE36:
  97              		.size	pushMessage, .-pushMessage
  98              		.section	.text.pullMessage,"ax",%progbits
  99              		.align	1
 100              		.global	pullMessage
 101              		.code	16
 102              		.thumb_func
 103              		.type	pullMessage, %function
 104              	pullMessage:
 105              	.LFB37:
  31:usbserialprotocol.c **** 
  32:usbserialprotocol.c **** void pullMessage(uint8 data[], uint8 length)
  33:usbserialprotocol.c **** {
 106              		.loc 1 33 0
 107              		.cfi_startproc
 108              		@ args = 0, pretend = 0, frame = 0
 109              		@ frame_needed = 0, uses_anonymous_args = 0
 110              	.LVL8:
 111 0000 70B5     		push	{r4, r5, r6, lr}
 112              		.cfi_def_cfa_offset 16
 113              		.cfi_offset 4, -16
 114              		.cfi_offset 5, -12
 115              		.cfi_offset 6, -8
 116              		.cfi_offset 14, -4
 117 0002 0400     		movs	r4, r0
 118 0004 4518     		adds	r5, r0, r1
 119              	.LVL9:
 120              	.L11:
 121              	.LBB3:
  34:usbserialprotocol.c ****     for (uint8 i = 0; i < length; i++) {
 122              		.loc 1 34 0 discriminator 1
 123 0006 AC42     		cmp	r4, r5
 124 0008 04D0     		beq	.L13
  35:usbserialprotocol.c ****         data[i] = getValidByte();   
 125              		.loc 1 35 0 discriminator 3
 126 000a FFF7FEFF 		bl	getValidByte
 127              	.LVL10:
 128 000e 2070     		strb	r0, [r4]
 129              	.LVL11:
 130 0010 0134     		adds	r4, r4, #1
 131              	.LVL12:
 132 0012 F8E7     		b	.L11
 133              	.LVL13:
 134              	.L13:
 135              	.LBE3:
ARM GAS  C:\Users\CCPOW_~1\AppData\Local\Temp\ccDjFcsV.s 			page 4


  36:usbserialprotocol.c ****     }
  37:usbserialprotocol.c **** }
 136              		.loc 1 37 0
 137              		@ sp needed
 138              	.LVL14:
 139 0014 70BD     		pop	{r4, r5, r6, pc}
 140              		.cfi_endproc
 141              	.LFE37:
 142              		.size	pullMessage, .-pullMessage
 143              		.section	.text.syncConnection,"ax",%progbits
 144              		.align	1
 145              		.global	syncConnection
 146              		.code	16
 147              		.thumb_func
 148              		.type	syncConnection, %function
 149              	syncConnection:
 150              	.LFB38:
  38:usbserialprotocol.c **** 
  39:usbserialprotocol.c **** /* 
  40:usbserialprotocol.c ****  * synchronization protocol:
  41:usbserialprotocol.c ****  *
  42:usbserialprotocol.c ****  * 1) ATM -> "READY" -> PSoC
  43:usbserialprotocol.c ****  * 2) if bad:  PSoC -> received bad message -> ATM; goto 1)
  44:usbserialprotocol.c ****  *    if good: PSoC -> PSoC name (prov/norm) -> ATM
  45:usbserialprotocol.c ****  * 3) ATM -> "GO" -> PSoC
  46:usbserialprotocol.c ****  * 4) if bad: goto 1)
  47:usbserialprotocol.c ****  */
  48:usbserialprotocol.c **** void syncConnection(int prov) 
  49:usbserialprotocol.c **** {
 151              		.loc 1 49 0
 152              		.cfi_startproc
 153              		@ args = 0, pretend = 0, frame = 8
 154              		@ frame_needed = 0, uses_anonymous_args = 0
 155              	.LVL15:
 156 0000 37B5     		push	{r0, r1, r2, r4, r5, lr}
 157              		.cfi_def_cfa_offset 24
 158              		.cfi_offset 0, -24
 159              		.cfi_offset 1, -20
 160              		.cfi_offset 2, -16
 161              		.cfi_offset 4, -12
 162              		.cfi_offset 5, -8
 163              		.cfi_offset 14, -4
 164 0002 0500     		movs	r5, r0
 165              	.LVL16:
 166              	.L20:
  50:usbserialprotocol.c ****     uint8 message[1];
  51:usbserialprotocol.c ****     
  52:usbserialprotocol.c ****     do {
  53:usbserialprotocol.c ****         pullMessage(message, (uint8)1);                              
 167              		.loc 1 53 0
 168 0004 01AC     		add	r4, sp, #4
 169 0006 0121     		movs	r1, #1
 170 0008 2000     		movs	r0, r4
 171 000a FFF7FEFF 		bl	pullMessage
 172              	.LVL17:
 173 000e 2378     		ldrb	r3, [r4]
  54:usbserialprotocol.c ****         if (prov) {
ARM GAS  C:\Users\CCPOW_~1\AppData\Local\Temp\ccDjFcsV.s 			page 5


 174              		.loc 1 54 0
 175 0010 002D     		cmp	r5, #0
 176 0012 10D0     		beq	.L15
  55:usbserialprotocol.c ****             if (message[0] == SYNC_REQUEST_NO_PROV) {
 177              		.loc 1 55 0
 178 0014 162B     		cmp	r3, #22
 179 0016 02D1     		bne	.L16
 180              	.L19:
  56:usbserialprotocol.c ****                 pushMessage(&SYNC_CONFIRMED_PROV, (uint8)1);
 181              		.loc 1 56 0
 182 0018 0121     		movs	r1, #1
 183 001a 0E48     		ldr	r0, .L23
 184 001c 14E0     		b	.L22
 185              	.L16:
  57:usbserialprotocol.c ****             }
  58:usbserialprotocol.c ****             else if (message[0] == SYNC_REQUEST_PROV) {
 186              		.loc 1 58 0
 187 001e 152B     		cmp	r3, #21
 188 0020 03D1     		bne	.L18
  59:usbserialprotocol.c ****                 pushMessage(&SYNC_CONFIRMED_NO_PROV, (uint8)1);
 189              		.loc 1 59 0
 190 0022 0121     		movs	r1, #1
 191 0024 0B48     		ldr	r0, .L23
 192 0026 4018     		adds	r0, r0, r1
 193 0028 0EE0     		b	.L22
 194              	.L18:
  60:usbserialprotocol.c ****             }
  61:usbserialprotocol.c ****             else if (message[0] == PSOC_DEVICE_REQUEST) {
 195              		.loc 1 61 0
 196 002a 1E2B     		cmp	r3, #30
 197 002c 0ED1     		bne	.L17
  62:usbserialprotocol.c ****                 pushMessage(&SYNC_TYPE_HSM_P, (uint8)1);
 198              		.loc 1 62 0
 199 002e 0948     		ldr	r0, .L23
 200 0030 0121     		movs	r1, #1
 201 0032 0230     		adds	r0, r0, #2
 202 0034 08E0     		b	.L22
 203              	.L15:
  63:usbserialprotocol.c ****             }
  64:usbserialprotocol.c ****         }
  65:usbserialprotocol.c ****         else {
  66:usbserialprotocol.c ****             if (message[0] == SYNC_REQUEST_PROV) {
 204              		.loc 1 66 0
 205 0036 1A00     		movs	r2, r3
 206 0038 153A     		subs	r2, r2, #21
 207 003a 012A     		cmp	r2, #1
 208 003c ECD9     		bls	.L19
  67:usbserialprotocol.c ****                 pushMessage(&SYNC_CONFIRMED_PROV, (uint8)1);
  68:usbserialprotocol.c ****             }
  69:usbserialprotocol.c ****             else if (message[0] == SYNC_REQUEST_NO_PROV) {
  70:usbserialprotocol.c ****                 pushMessage(&SYNC_CONFIRMED_PROV, (uint8)1);
  71:usbserialprotocol.c ****             }
  72:usbserialprotocol.c ****             else if (message[0] == PSOC_DEVICE_REQUEST) {
 209              		.loc 1 72 0
 210 003e 1E2B     		cmp	r3, #30
 211 0040 04D1     		bne	.L17
  73:usbserialprotocol.c ****                 pushMessage(&SYNC_TYPE_HSM_N, (uint8)1);
ARM GAS  C:\Users\CCPOW_~1\AppData\Local\Temp\ccDjFcsV.s 			page 6


 212              		.loc 1 73 0
 213 0042 0121     		movs	r1, #1
 214 0044 0348     		ldr	r0, .L23
 215 0046 0330     		adds	r0, r0, #3
 216              	.L22:
 217 0048 FFF7FEFF 		bl	pushMessage
 218              	.LVL18:
 219              	.L17:
  74:usbserialprotocol.c ****             }
  75:usbserialprotocol.c ****         }
  76:usbserialprotocol.c ****     }
  77:usbserialprotocol.c ****     while (message[0] != SYNCED);
 220              		.loc 1 77 0
 221 004c 2378     		ldrb	r3, [r4]
 222 004e 1B2B     		cmp	r3, #27
 223 0050 D8D1     		bne	.L20
  78:usbserialprotocol.c ****     
  79:usbserialprotocol.c **** }
 224              		.loc 1 79 0
 225              		@ sp needed
 226              	.LVL19:
 227 0052 37BD     		pop	{r0, r1, r2, r4, r5, pc}
 228              	.L24:
 229              		.align	2
 230              	.L23:
 231 0054 00000000 		.word	.LANCHOR0
 232              		.cfi_endproc
 233              	.LFE38:
 234              		.size	syncConnection, .-syncConnection
 235              		.section	.rodata
 236              		.set	.LANCHOR0,. + 0
 237              		.type	SYNC_CONFIRMED_PROV, %object
 238              		.size	SYNC_CONFIRMED_PROV, 1
 239              	SYNC_CONFIRMED_PROV:
 240 0000 17       		.byte	23
 241              		.type	SYNC_CONFIRMED_NO_PROV, %object
 242              		.size	SYNC_CONFIRMED_NO_PROV, 1
 243              	SYNC_CONFIRMED_NO_PROV:
 244 0001 18       		.byte	24
 245              		.type	SYNC_TYPE_HSM_P, %object
 246              		.size	SYNC_TYPE_HSM_P, 1
 247              	SYNC_TYPE_HSM_P:
 248 0002 3C       		.byte	60
 249              		.type	SYNC_TYPE_HSM_N, %object
 250              		.size	SYNC_TYPE_HSM_N, 1
 251              	SYNC_TYPE_HSM_N:
 252 0003 1C       		.byte	28
 253              		.text
 254              	.Letext0:
 255              		.file 2 "Generated_Source\\PSoC4/cytypes.h"
 256              		.file 3 "common.h"
 257              		.file 4 "Generated_Source\\PSoC4/DB_UART_SPI_UART.h"