ARM GAS  C:\Users\CCPOW_~1\AppData\Local\Temp\ccMmOMOY.s 			page 1


   1              		.syntax unified
   2              		.cpu cortex-m0
   3              		.fpu softvfp
   4              		.eabi_attribute 20, 1
   5              		.eabi_attribute 21, 1
   6              		.eabi_attribute 23, 3
   7              		.eabi_attribute 24, 1
   8              		.eabi_attribute 25, 1
   9              		.eabi_attribute 26, 1
  10              		.eabi_attribute 30, 1
  11              		.eabi_attribute 34, 0
  12              		.eabi_attribute 18, 4
  13              		.thumb
  14              		.syntax unified
  15              		.file	"main.c"
  16              		.text
  17              	.Ltext0:
  18              		.cfi_sections	.debug_frame
  19              		.section	.text.eeprom_copy,"ax",%progbits
  20              		.align	2
  21              		.code	16
  22              		.thumb_func
  23              		.type	eeprom_copy, %function
  24              	eeprom_copy:
  25              	.LFB34:
  26              		.file 1 "common.h"
   1:common.h      **** #include "project.h"
   2:common.h      **** 
   3:common.h      **** // Lengths of various protocol materials
   4:common.h      **** #define PIN_LEN                         8
   5:common.h      **** #define UUID_LEN                        36
   6:common.h      **** #define R_LEN                           32
   7:common.h      **** #define NONCE_LEN                       32
   8:common.h      **** #define SIG_LEN                         64
   9:common.h      **** #define PK_LEN                          32
  10:common.h      **** #define RAND_KEY_LEN                    32
  11:common.h      **** #define SEED_LEN                        32
  12:common.h      **** #define HSM_KEY_LEN                     32
  13:common.h      **** #define BILL_LEN                        16
  14:common.h      **** #define CHECK_BALANCE_CIPHERTEXT_LEN    76
  15:common.h      **** #define WITHDRAW_CIPHERTEXT_LEN         70
  16:common.h      **** #define BALANCE_LEN                     4
  17:common.h      **** 
  18:common.h      **** 
  19:common.h      **** // General enums for denoting that a request was accepted/rejected
  20:common.h      **** static const uint8 ACCEPTED		            = 0x20;
  21:common.h      **** static const uint8 REJECTED		            = 0x21;
  22:common.h      **** 
  23:common.h      **** 
  24:common.h      **** // Constants for request types made to the card
  25:common.h      **** #define REQUEST_NAME                        0x00
  26:common.h      **** #define REQUEST_CARD_SIGNATURE              0x02
  27:common.h      **** #define REQUEST_PROVISION                   0x26
  28:common.h      **** #define REQUEST_NEW_PK                      0x0C
  29:common.h      **** 
  30:common.h      **** 
  31:common.h      **** // Constants for responses from the card
ARM GAS  C:\Users\CCPOW_~1\AppData\Local\Temp\ccMmOMOY.s 			page 2


  32:common.h      **** static const uint8 RETURN_NAME              = 0x01;
  33:common.h      **** static const uint8 RETURN_CARD_SIGNATURE    = 0x03;
  34:common.h      **** static const uint8 RETURN_NEW_PK            = 0x0D;
  35:common.h      **** 
  36:common.h      **** //Constants for request types made to the HSM
  37:common.h      **** #define UUID_REQUEST                        0x06
  38:common.h      **** #define NONCE_REQUEST                       0x04
  39:common.h      **** #define WITHDRAWAL_REQUEST                  0x08
  40:common.h      **** #define REQUEST_BALANCE                     0x0A
  41:common.h      **** 
  42:common.h      **** 
  43:common.h      **** // Enums for syncing with ATM
  44:common.h      **** static const uint8 SYNC_REQUEST_PROV        = 0x15;
  45:common.h      **** static const uint8 SYNC_REQUEST_NO_PROV     = 0x16;
  46:common.h      **** static const uint8 SYNC_CONFIRMED_PROV      = 0x17;
  47:common.h      **** static const uint8 SYNC_CONFIRMED_NO_PROV   = 0x18;
  48:common.h      **** static const uint8 SYNC_FAILED_NO_PROV      = 0x19;
  49:common.h      **** static const uint8 SYNC_FAILED_PROV         = 0x1A;
  50:common.h      **** static const uint8 SYNCED                   = 0x1B;
  51:common.h      **** static const uint8 SYNC_TYPE_CARD_N         = 0x1D;
  52:common.h      **** static const uint8 SYNC_TYPE_CARD_P         = 0x3D;
  53:common.h      **** static const uint8 SYNC_TYPE_HSM_N          = 0x1C;
  54:common.h      **** static const uint8 SYNC_TYPE_HSM_P          = 0x3C;
  55:common.h      **** static const uint8 PSOC_DEVICE_REQUEST      = 0x1E;
  56:common.h      **** 
  57:common.h      **** // HSM protocol constants
  58:common.h      **** static const uint8 INITIATE_BILLS_REQUEST   = 0x27;
  59:common.h      **** static const uint8 BILLS_REQUEST            = 0x28;
  60:common.h      **** static const uint8 BILL_RECEIVED            = 0x29;
  61:common.h      **** static const uint8 UUID_RESPONSE                = 0x07; 
  62:common.h      **** static const uint8 NONCE_RESPONSE               = 0x05;
  63:common.h      **** static const uint8 RETURN_WITHDRAWAL            = 0x09;
  64:common.h      **** static const uint8 RETURN_BALANCE               = 0x0B;
  65:common.h      **** 
  66:common.h      **** #define MAX_BILLS 128
  67:common.h      **** #define EMPTY_BILL "*****EMPTY*****"
  68:common.h      **** 
  69:common.h      **** // Constants for syncing
  70:common.h      **** #define SYNC_NORM 0
  71:common.h      **** #define SYNC_PROV 1
  72:common.h      **** 
  73:common.h      **** 
  74:common.h      **** //context for libhydrogen functions
  75:common.h      **** static const char CONTEXT[8] = {0, 0, 0, 0, 0, 0, 0, 0};
  76:common.h      **** 
  77:common.h      **** 
  78:common.h      **** //I just wanted the compiler to stop yelling at me :(
  79:common.h      **** static void eeprom_copy(uint8 *dst, const volatile uint8 *src, uint8 len) 
  80:common.h      **** {
  27              		.loc 1 80 0
  28              		.cfi_startproc
  29              		@ args = 0, pretend = 0, frame = 0
  30              		@ frame_needed = 0, uses_anonymous_args = 0
  31              	.LVL0:
  32 0000 10B5     		push	{r4, lr}
  33              		.cfi_def_cfa_offset 8
  34              		.cfi_offset 4, -8
ARM GAS  C:\Users\CCPOW_~1\AppData\Local\Temp\ccMmOMOY.s 			page 3


  35              		.cfi_offset 14, -4
  36              	.LVL1:
  37              	.LBB2:
  81:common.h      ****     for (int i = 0; i < len; i++) {
  38              		.loc 1 81 0
  39 0002 0023     		movs	r3, #0
  40 0004 03E0     		b	.L2
  41              	.LVL2:
  42              	.L3:
  82:common.h      ****         dst[i] = src[i];
  43              		.loc 1 82 0 discriminator 3
  44 0006 CC18     		adds	r4, r1, r3
  45 0008 2478     		ldrb	r4, [r4]
  46 000a C454     		strb	r4, [r0, r3]
  81:common.h      ****     for (int i = 0; i < len; i++) {
  47              		.loc 1 81 0 discriminator 3
  48 000c 0133     		adds	r3, r3, #1
  49              	.LVL3:
  50              	.L2:
  81:common.h      ****     for (int i = 0; i < len; i++) {
  51              		.loc 1 81 0 is_stmt 0 discriminator 1
  52 000e 9342     		cmp	r3, r2
  53 0010 F9DB     		blt	.L3
  54              	.LBE2:
  83:common.h      ****     }
  84:common.h      **** }
  55              		.loc 1 84 0 is_stmt 1
  56              		@ sp needed
  57 0012 10BD     		pop	{r4, pc}
  58              		.cfi_endproc
  59              	.LFE34:
  60              		.size	eeprom_copy, .-eeprom_copy
  61              		.section	.text.Reset_ISR,"ax",%progbits
  62              		.align	2
  63              		.global	Reset_ISR
  64              		.code	16
  65              		.thumb_func
  66              		.type	Reset_ISR, %function
  67              	Reset_ISR:
  68              	.LFB35:
  69              		.file 2 "main.c"
   1:main.c        **** /* ========================================
   2:main.c        ****  *
   3:main.c        ****  * Copyright YOUR COMPANY, THE YEAR
   4:main.c        ****  * All Rights Reserved
   5:main.c        ****  * UNPUBLISHED, LICENSED SOFTWARE.
   6:main.c        ****  *
   7:main.c        ****  * CONFIDENTIAL AND PROPRIETARY INFORMATION
   8:main.c        ****  * WHICH IS THE PROPERTY OF your company.
   9:main.c        ****  *
  10:main.c        ****  * ========================================
  11:main.c        **** */
  12:main.c        **** #include "project.h"
  13:main.c        **** #include <stdlib.h>
  14:main.c        **** #include <string.h>
  15:main.c        **** #include "common.h"
  16:main.c        **** 
ARM GAS  C:\Users\CCPOW_~1\AppData\Local\Temp\ccMmOMOY.s 			page 4


  17:main.c        **** //This is needed for the default communication between the BANK and DISPLAY over the USB-UART
  18:main.c        **** #include "usbserialprotocol.h"
  19:main.c        **** #include "SW1.h"
  20:main.c        **** 
  21:main.c        **** // Crypto library
  22:main.c        **** #include "hydrogen.h"
  23:main.c        **** 
  24:main.c        **** 
  25:main.c        **** // Global EEPROM variables
  26:main.c        **** static const uint8 MONEY[MAX_BILLS][BILL_LEN]   = {EMPTY_BILL};
  27:main.c        **** static const uint8 UUID[UUID_LEN]               = {0, 0, 0, 0, 0, 0, 0, 0, 0, 0, 0, 0, 0, 0, 0, 0, 
  28:main.c        **** static const uint8 ENC_KEY[HSM_KEY_LEN]         = {0, 0, 0, 0, 0, 0, 0, 0, 0, 0, 0, 0, 0, 0, 0, 0, 
  29:main.c        **** static const uint8 RAND_KEY[RAND_KEY_LEN]       = {0, 0, 0, 0, 0, 0, 0, 0, 0, 0, 0, 0, 0, 0, 0, 0, 
  30:main.c        **** static const uint8 BILLS_LEFT[1]                = {0x00};
  31:main.c        **** static const uint8 PROVISIONED[1]               = {0x00};
  32:main.c        **** static const uint8 CURRENT_NONCE[NONCE_LEN]     = {0, 0, 0, 0, 0, 0, 0, 0, 0, 0, 0, 0, 0, 0, 0, 0, 
  33:main.c        **** 
  34:main.c        **** 
  35:main.c        **** 
  36:main.c        **** 
  37:main.c        **** // Reset interrupt on button press
  38:main.c        **** CY_ISR(Reset_ISR)
  39:main.c        **** {
  70              		.loc 2 39 0
  71              		.cfi_startproc
  72              		@ args = 0, pretend = 0, frame = 0
  73              		@ frame_needed = 0, uses_anonymous_args = 0
  74 0000 10B5     		push	{r4, lr}
  75              		.cfi_def_cfa_offset 8
  76              		.cfi_offset 4, -8
  77              		.cfi_offset 14, -4
  40:main.c        **** 	pushMessage((uint8*)"In interrupt\n", strlen("In interrupt\n"));
  78              		.loc 2 40 0
  79 0002 0D21     		movs	r1, #13
  80 0004 0348     		ldr	r0, .L5
  81 0006 FFF7FEFF 		bl	pushMessage
  82              	.LVL4:
  41:main.c        **** 	SW1_ClearInterrupt();
  83              		.loc 2 41 0
  84 000a FFF7FEFF 		bl	SW1_ClearInterrupt
  85              	.LVL5:
  42:main.c        **** 	CySoftwareReset();
  86              		.loc 2 42 0
  87 000e FFF7FEFF 		bl	CySoftwareReset
  88              	.LVL6:
  43:main.c        **** }
  89              		.loc 2 43 0
  90              		@ sp needed
  91 0012 10BD     		pop	{r4, pc}
  92              	.L6:
  93              		.align	2
  94              	.L5:
  95 0014 00000000 		.word	.LC0
  96              		.cfi_endproc
  97              	.LFE35:
  98              		.size	Reset_ISR, .-Reset_ISR
  99              		.section	.text.provision,"ax",%progbits
ARM GAS  C:\Users\CCPOW_~1\AppData\Local\Temp\ccMmOMOY.s 			page 5


 100              		.align	2
 101              		.global	provision
 102              		.code	16
 103              		.thumb_func
 104              		.type	provision, %function
 105              	provision:
 106              	.LFB36:
  44:main.c        **** 
  45:main.c        **** 
  46:main.c        **** // Provisions HSM (should only ever be called once)
  47:main.c        **** void provision()
  48:main.c        **** {
 107              		.loc 2 48 0
 108              		.cfi_startproc
 109              		@ args = 0, pretend = 0, frame = 128
 110              		@ frame_needed = 0, uses_anonymous_args = 0
 111 0000 30B5     		push	{r4, r5, lr}
 112              		.cfi_def_cfa_offset 12
 113              		.cfi_offset 4, -12
 114              		.cfi_offset 5, -8
 115              		.cfi_offset 14, -4
 116 0002 A1B0     		sub	sp, sp, #132
 117              		.cfi_def_cfa_offset 144
 118              	.LVL7:
 119              	.LBB3:
  49:main.c        ****     uint8 message_type;
  50:main.c        ****     
  51:main.c        ****     uint8 hsm_key_buf[HSM_KEY_LEN];
  52:main.c        ****     uint8 rand_key_buf[RAND_KEY_LEN];
  53:main.c        ****     uint8 uuid_buf[UUID_LEN];
  54:main.c        ****     
  55:main.c        ****     uint8 num_bills;
  56:main.c        ****     uint8 bill[BILL_LEN];
  57:main.c        ****     
  58:main.c        ****     //set the bill array to be all empty
  59:main.c        **** 	for(int i = 0; i < MAX_BILLS; i++) {
 120              		.loc 2 59 0
 121 0004 0024     		movs	r4, #0
 122 0006 07E0     		b	.L8
 123              	.LVL8:
 124              	.L9:
  60:main.c        **** 		PIGGY_BANK_Write((uint8*)EMPTY_BILL, MONEY[i], BILL_LEN);
 125              		.loc 2 60 0 discriminator 3
 126 0008 2301     		lsls	r3, r4, #4
 127 000a 3E49     		ldr	r1, .L16
 128 000c C918     		adds	r1, r1, r3
 129 000e 1022     		movs	r2, #16
 130 0010 3D48     		ldr	r0, .L16+4
 131 0012 FFF7FEFF 		bl	PIGGY_BANK_Write
 132              	.LVL9:
  59:main.c        **** 		PIGGY_BANK_Write((uint8*)EMPTY_BILL, MONEY[i], BILL_LEN);
 133              		.loc 2 59 0 discriminator 3
 134 0016 0134     		adds	r4, r4, #1
 135              	.LVL10:
 136              	.L8:
  59:main.c        **** 		PIGGY_BANK_Write((uint8*)EMPTY_BILL, MONEY[i], BILL_LEN);
 137              		.loc 2 59 0 is_stmt 0 discriminator 1
ARM GAS  C:\Users\CCPOW_~1\AppData\Local\Temp\ccMmOMOY.s 			page 6


 138 0018 7F2C     		cmp	r4, #127
 139 001a F5DD     		ble	.L9
 140              	.LBE3:
  61:main.c        **** 	}
  62:main.c        ****     
  63:main.c        ****     // Synchronize with ATM
  64:main.c        **** 	syncConnection(SYNC_PROV);
 141              		.loc 2 64 0 is_stmt 1
 142 001c 0120     		movs	r0, #1
 143 001e FFF7FEFF 		bl	syncConnection
 144              	.LVL11:
  65:main.c        ****     
  66:main.c        ****     pullMessage(&message_type, 1);
 145              		.loc 2 66 0
 146 0022 7F24     		movs	r4, #127
 147              	.LVL12:
 148 0024 6C44     		add	r4, r4, sp
 149 0026 0121     		movs	r1, #1
 150 0028 2000     		movs	r0, r4
 151 002a FFF7FEFF 		bl	pullMessage
 152              	.LVL13:
  67:main.c        ****         
  68:main.c        ****     // check if provision message
  69:main.c        ****     if (message_type != REQUEST_PROVISION) {
 153              		.loc 2 69 0
 154 002e 2378     		ldrb	r3, [r4]
 155 0030 262B     		cmp	r3, #38
 156 0032 04D0     		beq	.L10
  70:main.c        **** 	    pushMessage(&REJECTED, 1);
 157              		.loc 2 70 0
 158 0034 0121     		movs	r1, #1
 159 0036 3548     		ldr	r0, .L16+8
 160 0038 FFF7FEFF 		bl	pushMessage
 161              	.LVL14:
  71:main.c        ****         return;
 162              		.loc 2 71 0
 163 003c 60E0     		b	.L7
 164              	.L10:
  72:main.c        ****     } 
  73:main.c        ****     
  74:main.c        **** 
  75:main.c        ****         
  76:main.c        ****     //get the hsm enc key, randomness key, and uuid
  77:main.c        ****     pullMessage(hsm_key_buf, HSM_KEY_LEN);    
 165              		.loc 2 77 0
 166 003e 2021     		movs	r1, #32
 167 0040 17A8     		add	r0, sp, #92
 168 0042 FFF7FEFF 		bl	pullMessage
 169              	.LVL15:
  78:main.c        **** 	pushMessage(&ACCEPTED, 1);
 170              		.loc 2 78 0
 171 0046 314C     		ldr	r4, .L16+8
 172 0048 651C     		adds	r5, r4, #1
 173 004a 0121     		movs	r1, #1
 174 004c 2800     		movs	r0, r5
 175 004e FFF7FEFF 		bl	pushMessage
 176              	.LVL16:
ARM GAS  C:\Users\CCPOW_~1\AppData\Local\Temp\ccMmOMOY.s 			page 7


  79:main.c        ****     pullMessage(rand_key_buf, RAND_KEY_LEN);
 177              		.loc 2 79 0
 178 0052 2021     		movs	r1, #32
 179 0054 0FA8     		add	r0, sp, #60
 180 0056 FFF7FEFF 		bl	pullMessage
 181              	.LVL17:
  80:main.c        ****     pushMessage(&ACCEPTED, 1);
 182              		.loc 2 80 0
 183 005a 0121     		movs	r1, #1
 184 005c 2800     		movs	r0, r5
 185 005e FFF7FEFF 		bl	pushMessage
 186              	.LVL18:
  81:main.c        ****     pullMessage(uuid_buf, UUID_LEN);
 187              		.loc 2 81 0
 188 0062 2421     		movs	r1, #36
 189 0064 06A8     		add	r0, sp, #24
 190 0066 FFF7FEFF 		bl	pullMessage
 191              	.LVL19:
  82:main.c        ****     
  83:main.c        ****     
  84:main.c        ****     //write them to eeprom
  85:main.c        ****     PIGGY_BANK_Write(hsm_key_buf, ENC_KEY, HSM_KEY_LEN);
 192              		.loc 2 85 0
 193 006a 211D     		adds	r1, r4, #4
 194 006c 2022     		movs	r2, #32
 195 006e 17A8     		add	r0, sp, #92
 196 0070 FFF7FEFF 		bl	PIGGY_BANK_Write
 197              	.LVL20:
  86:main.c        ****     PIGGY_BANK_Write(rand_key_buf, RAND_KEY, RAND_KEY_LEN);
 198              		.loc 2 86 0
 199 0074 2100     		movs	r1, r4
 200 0076 2431     		adds	r1, r1, #36
 201 0078 2022     		movs	r2, #32
 202 007a 0FA8     		add	r0, sp, #60
 203 007c FFF7FEFF 		bl	PIGGY_BANK_Write
 204              	.LVL21:
  87:main.c        **** 	PIGGY_BANK_Write(uuid_buf, UUID, UUID_LEN);
 205              		.loc 2 87 0
 206 0080 2100     		movs	r1, r4
 207 0082 4431     		adds	r1, r1, #68
 208 0084 2422     		movs	r2, #36
 209 0086 06A8     		add	r0, sp, #24
 210 0088 FFF7FEFF 		bl	PIGGY_BANK_Write
 211              	.LVL22:
  88:main.c        ****     
  89:main.c        ****     pushMessage(&INITIATE_BILLS_REQUEST, 1);
 212              		.loc 2 89 0
 213 008c 2000     		movs	r0, r4
 214 008e 6830     		adds	r0, r0, #104
 215 0090 0121     		movs	r1, #1
 216 0092 FFF7FEFF 		bl	pushMessage
 217              	.LVL23:
  90:main.c        ****     
  91:main.c        ****     pullMessage(&message_type, 1);
 218              		.loc 2 91 0
 219 0096 7F24     		movs	r4, #127
 220 0098 6C44     		add	r4, r4, sp
ARM GAS  C:\Users\CCPOW_~1\AppData\Local\Temp\ccMmOMOY.s 			page 8


 221 009a 0121     		movs	r1, #1
 222 009c 2000     		movs	r0, r4
 223 009e FFF7FEFF 		bl	pullMessage
 224              	.LVL24:
  92:main.c        ****     if (message_type != BILLS_REQUEST) {
 225              		.loc 2 92 0
 226 00a2 2378     		ldrb	r3, [r4]
 227 00a4 282B     		cmp	r3, #40
 228 00a6 04D0     		beq	.L12
  93:main.c        ****         pushMessage(&REJECTED, 1);
 229              		.loc 2 93 0
 230 00a8 0121     		movs	r1, #1
 231 00aa 1848     		ldr	r0, .L16+8
 232 00ac FFF7FEFF 		bl	pushMessage
 233              	.LVL25:
  94:main.c        ****         return;
 234              		.loc 2 94 0
 235 00b0 26E0     		b	.L7
 236              	.L12:
  95:main.c        ****     }
  96:main.c        ****     
  97:main.c        ****     // Get number of bills
  98:main.c        ****     pullMessage(&num_bills, 1);
 237              		.loc 2 98 0
 238 00b2 1724     		movs	r4, #23
 239 00b4 6C44     		add	r4, r4, sp
 240 00b6 0121     		movs	r1, #1
 241 00b8 2000     		movs	r0, r4
 242 00ba FFF7FEFF 		bl	pullMessage
 243              	.LVL26:
  99:main.c        ****     
 100:main.c        **** 	PIGGY_BANK_Write(&num_bills, BILLS_LEFT, 1u);
 244              		.loc 2 100 0
 245 00be 0122     		movs	r2, #1
 246 00c0 1249     		ldr	r1, .L16+8
 247 00c2 6C31     		adds	r1, r1, #108
 248 00c4 2000     		movs	r0, r4
 249 00c6 FFF7FEFF 		bl	PIGGY_BANK_Write
 250              	.LVL27:
 251              	.LBB4:
 101:main.c        **** 
 102:main.c        ****     // Load bills
 103:main.c        **** 	for (int i = num_bills - 1; i >= 0; i--) {
 252              		.loc 2 103 0
 253 00ca 2478     		ldrb	r4, [r4]
 254 00cc 013C     		subs	r4, r4, #1
 255              	.LVL28:
 256 00ce 10E0     		b	.L13
 257              	.L14:
 104:main.c        **** 		pullMessage(bill, BILL_LEN);
 258              		.loc 2 104 0 discriminator 3
 259 00d0 1021     		movs	r1, #16
 260 00d2 01A8     		add	r0, sp, #4
 261 00d4 FFF7FEFF 		bl	pullMessage
 262              	.LVL29:
 105:main.c        **** 		PIGGY_BANK_Write(bill, MONEY[i], BILL_LEN);
 263              		.loc 2 105 0 discriminator 3
ARM GAS  C:\Users\CCPOW_~1\AppData\Local\Temp\ccMmOMOY.s 			page 9


 264 00d8 2301     		lsls	r3, r4, #4
 265 00da 0A49     		ldr	r1, .L16
 266 00dc C918     		adds	r1, r1, r3
 267 00de 1022     		movs	r2, #16
 268 00e0 01A8     		add	r0, sp, #4
 269 00e2 FFF7FEFF 		bl	PIGGY_BANK_Write
 270              	.LVL30:
 106:main.c        ****         pushMessage(&BILL_RECEIVED, 1);
 271              		.loc 2 106 0 discriminator 3
 272 00e6 0121     		movs	r1, #1
 273 00e8 0848     		ldr	r0, .L16+8
 274 00ea 6D30     		adds	r0, r0, #109
 275 00ec FFF7FEFF 		bl	pushMessage
 276              	.LVL31:
 103:main.c        **** 		pullMessage(bill, BILL_LEN);
 277              		.loc 2 103 0 discriminator 3
 278 00f0 013C     		subs	r4, r4, #1
 279              	.LVL32:
 280              	.L13:
 103:main.c        **** 		pullMessage(bill, BILL_LEN);
 281              		.loc 2 103 0 is_stmt 0 discriminator 1
 282 00f2 002C     		cmp	r4, #0
 283 00f4 ECDA     		bge	.L14
 284              	.LBE4:
 107:main.c        **** 	}
 108:main.c        ****     pushMessage(&ACCEPTED, 1);
 285              		.loc 2 108 0 is_stmt 1
 286 00f6 0121     		movs	r1, #1
 287 00f8 0448     		ldr	r0, .L16+8
 288 00fa 0130     		adds	r0, r0, #1
 289 00fc FFF7FEFF 		bl	pushMessage
 290              	.LVL33:
 291              	.L7:
 109:main.c        **** }
 292              		.loc 2 109 0
 293 0100 21B0     		add	sp, sp, #132
 294              		@ sp needed
 295 0102 30BD     		pop	{r4, r5, pc}
 296              	.L17:
 297              		.align	2
 298              	.L16:
 299 0104 00000000 		.word	.LANCHOR0
 300 0108 10000000 		.word	.LC3
 301 010c 00080000 		.word	.LANCHOR1
 302              		.cfi_endproc
 303              	.LFE36:
 304              		.size	provision, .-provision
 305              		.section	.text.dispenseBill,"ax",%progbits
 306              		.align	2
 307              		.global	dispenseBill
 308              		.code	16
 309              		.thumb_func
 310              		.type	dispenseBill, %function
 311              	dispenseBill:
 312              	.LFB37:
 110:main.c        **** 
 111:main.c        **** void dispenseBill()
ARM GAS  C:\Users\CCPOW_~1\AppData\Local\Temp\ccMmOMOY.s 			page 10


 112:main.c        **** {
 313              		.loc 2 112 0
 314              		.cfi_startproc
 315              		@ args = 0, pretend = 0, frame = 24
 316              		@ frame_needed = 0, uses_anonymous_args = 0
 317 0000 30B5     		push	{r4, r5, lr}
 318              		.cfi_def_cfa_offset 12
 319              		.cfi_offset 4, -12
 320              		.cfi_offset 5, -8
 321              		.cfi_offset 14, -4
 322 0002 87B0     		sub	sp, sp, #28
 323              		.cfi_def_cfa_offset 40
 113:main.c        ****     uint8 bills_left;
 114:main.c        ****     uint8 bill[BILL_LEN];
 115:main.c        ****     
 116:main.c        ****     eeprom_copy(&bills_left, (const volatile uint8 *)BILLS_LEFT, 1);
 324              		.loc 2 116 0
 325 0004 1724     		movs	r4, #23
 326 0006 6C44     		add	r4, r4, sp
 327 0008 0122     		movs	r2, #1
 328 000a 1449     		ldr	r1, .L21
 329 000c 6C31     		adds	r1, r1, #108
 330 000e 2000     		movs	r0, r4
 331 0010 FFF7FEFF 		bl	eeprom_copy
 332              	.LVL34:
 117:main.c        ****     if (bills_left <= 0)
 333              		.loc 2 117 0
 334 0014 2178     		ldrb	r1, [r4]
 335 0016 0029     		cmp	r1, #0
 336 0018 1ED0     		beq	.L18
 118:main.c        ****         return;
 119:main.c        ****     
 120:main.c        ****     eeprom_copy(bill, (const volatile uint8 *)MONEY[bills_left - 1], BILL_LEN);
 337              		.loc 2 120 0
 338 001a 0139     		subs	r1, r1, #1
 339 001c 104D     		ldr	r5, .L21+4
 340 001e 0901     		lsls	r1, r1, #4
 341 0020 6918     		adds	r1, r5, r1
 342 0022 1022     		movs	r2, #16
 343 0024 01A8     		add	r0, sp, #4
 344 0026 FFF7FEFF 		bl	eeprom_copy
 345              	.LVL35:
 121:main.c        **** 	pushMessage(bill, BILL_LEN);
 346              		.loc 2 121 0
 347 002a 1021     		movs	r1, #16
 348 002c 01A8     		add	r0, sp, #4
 349 002e FFF7FEFF 		bl	pushMessage
 350              	.LVL36:
 122:main.c        **** 
 123:main.c        **** 	PIGGY_BANK_Write((uint8*)EMPTY_BILL, MONEY[bills_left - 1], BILL_LEN);
 351              		.loc 2 123 0
 352 0032 1724     		movs	r4, #23
 353 0034 6C44     		add	r4, r4, sp
 354 0036 2178     		ldrb	r1, [r4]
 355 0038 0139     		subs	r1, r1, #1
 356 003a 0901     		lsls	r1, r1, #4
 357 003c 6918     		adds	r1, r5, r1
ARM GAS  C:\Users\CCPOW_~1\AppData\Local\Temp\ccMmOMOY.s 			page 11


 358 003e 1022     		movs	r2, #16
 359 0040 0848     		ldr	r0, .L21+8
 360 0042 FFF7FEFF 		bl	PIGGY_BANK_Write
 361              	.LVL37:
 124:main.c        ****     bills_left -= 1;
 362              		.loc 2 124 0
 363 0046 2378     		ldrb	r3, [r4]
 364 0048 013B     		subs	r3, r3, #1
 365 004a 2370     		strb	r3, [r4]
 125:main.c        ****     PIGGY_BANK_Write(&bills_left, BILLS_LEFT, 1);
 366              		.loc 2 125 0
 367 004c 0122     		movs	r2, #1
 368 004e 0349     		ldr	r1, .L21
 369 0050 6C31     		adds	r1, r1, #108
 370 0052 2000     		movs	r0, r4
 371 0054 FFF7FEFF 		bl	PIGGY_BANK_Write
 372              	.LVL38:
 373              	.L18:
 126:main.c        **** }
 374              		.loc 2 126 0
 375 0058 07B0     		add	sp, sp, #28
 376              		@ sp needed
 377 005a 30BD     		pop	{r4, r5, pc}
 378              	.L22:
 379              		.align	2
 380              	.L21:
 381 005c 00080000 		.word	.LANCHOR1
 382 0060 00000000 		.word	.LANCHOR0
 383 0064 10000000 		.word	.LC3
 384              		.cfi_endproc
 385              	.LFE37:
 386              		.size	dispenseBill, .-dispenseBill
 387              		.section	.text.generateNonce,"ax",%progbits
 388              		.align	2
 389              		.global	generateNonce
 390              		.code	16
 391              		.thumb_func
 392              		.type	generateNonce, %function
 393              	generateNonce:
 394              	.LFB38:
 127:main.c        **** 
 128:main.c        **** void generateNonce(uint8 *nonce)
 129:main.c        **** {
 395              		.loc 2 129 0
 396              		.cfi_startproc
 397              		@ args = 0, pretend = 0, frame = 0
 398              		@ frame_needed = 0, uses_anonymous_args = 0
 399              	.LVL39:
 400 0000 10B5     		push	{r4, lr}
 401              		.cfi_def_cfa_offset 8
 402              		.cfi_offset 4, -8
 403              		.cfi_offset 14, -4
 404 0002 0400     		movs	r4, r0
 130:main.c        ****     hydro_random_buf(nonce, NONCE_LEN);
 405              		.loc 2 130 0
 406 0004 2021     		movs	r1, #32
 407 0006 FFF7FEFF 		bl	hydro_random_buf
ARM GAS  C:\Users\CCPOW_~1\AppData\Local\Temp\ccMmOMOY.s 			page 12


 408              	.LVL40:
 131:main.c        ****     PIGGY_BANK_Write(nonce, CURRENT_NONCE, NONCE_LEN);
 409              		.loc 2 131 0
 410 000a 2022     		movs	r2, #32
 411 000c 0249     		ldr	r1, .L24
 412 000e 7031     		adds	r1, r1, #112
 413 0010 2000     		movs	r0, r4
 414 0012 FFF7FEFF 		bl	PIGGY_BANK_Write
 415              	.LVL41:
 132:main.c        **** }
 416              		.loc 2 132 0
 417              		@ sp needed
 418              	.LVL42:
 419 0016 10BD     		pop	{r4, pc}
 420              	.L25:
 421              		.align	2
 422              	.L24:
 423 0018 00080000 		.word	.LANCHOR1
 424              		.cfi_endproc
 425              	.LFE38:
 426              		.size	generateNonce, .-generateNonce
 427              		.section	.text.main,"ax",%progbits
 428              		.align	2
 429              		.global	main
 430              		.code	16
 431              		.thumb_func
 432              		.type	main, %function
 433              	main:
 434              	.LFB39:
 133:main.c        **** 
 134:main.c        **** int main(void)
 135:main.c        **** {
 435              		.loc 2 135 0
 436              		.cfi_startproc
 437              		@ args = 0, pretend = 0, frame = 192
 438              		@ frame_needed = 0, uses_anonymous_args = 0
 439 0000 30B5     		push	{r4, r5, lr}
 440              		.cfi_def_cfa_offset 12
 441              		.cfi_offset 4, -12
 442              		.cfi_offset 5, -8
 443              		.cfi_offset 14, -4
 444 0002 B5B0     		sub	sp, sp, #212
 445              		.cfi_def_cfa_offset 224
 136:main.c        **** 	// Enable global interrupts
 137:main.c        ****     CyGlobalIntEnable; 
 446              		.loc 2 137 0
 447              		.syntax divided
 448              	@ 137 "main.c" 1
 449 0004 62B6     		CPSIE   i
 450              	@ 0 "" 2
 138:main.c        **** 
 139:main.c        ****     // Start reset button
 140:main.c        **** 	Reset_isr_StartEx(Reset_ISR);
 451              		.loc 2 140 0
 452              		.thumb
 453              		.syntax unified
 454 0006 8148     		ldr	r0, .L47
ARM GAS  C:\Users\CCPOW_~1\AppData\Local\Temp\ccMmOMOY.s 			page 13


 455 0008 FFF7FEFF 		bl	Reset_isr_StartEx
 456              	.LVL43:
 141:main.c        **** 
 142:main.c        ****     /* Place your initialization/startup code here (e.g. MyInst_Start()) */
 143:main.c        ****     PIGGY_BANK_Start();
 457              		.loc 2 143 0
 458 000c FFF7FEFF 		bl	PIGGY_BANK_Start
 459              	.LVL44:
 144:main.c        ****     DB_UART_Start();
 460              		.loc 2 144 0
 461 0010 FFF7FEFF 		bl	DB_UART_Start
 462              	.LVL45:
 145:main.c        ****     
 146:main.c        ****     // Provision security module on first boot
 147:main.c        ****     if (*(volatile const uint8 *)PROVISIONED == 0x00)
 463              		.loc 2 147 0
 464 0014 7E4B     		ldr	r3, .L47+4
 465 0016 1B7C     		ldrb	r3, [r3, #16]
 466 0018 002B     		cmp	r3, #0
 467 001a 0DD1     		bne	.L27
 148:main.c        ****     {
 149:main.c        ****         //initial connection sync
 150:main.c        ****         syncConnection(SYNC_PROV);
 468              		.loc 2 150 0
 469 001c 0120     		movs	r0, #1
 470 001e FFF7FEFF 		bl	syncConnection
 471              	.LVL46:
 151:main.c        ****     	provision();
 472              		.loc 2 151 0
 473 0022 FFF7FEFF 		bl	provision
 474              	.LVL47:
 152:main.c        **** 
 153:main.c        ****         // Mark as provisioned
 154:main.c        ****     	PIGGY_BANK_Write((uint8[]){0x01}, PROVISIONED, 1u);
 475              		.loc 2 154 0
 476 0026 33A8     		add	r0, sp, #204
 477 0028 0123     		movs	r3, #1
 478 002a 0370     		strb	r3, [r0]
 479 002c 0122     		movs	r2, #1
 480 002e 7849     		ldr	r1, .L47+4
 481 0030 1031     		adds	r1, r1, #16
 482 0032 FFF7FEFF 		bl	PIGGY_BANK_Write
 483              	.LVL48:
 484 0036 02E0     		b	.L46
 485              	.L27:
 155:main.c        ****     }
 156:main.c        ****     else 
 157:main.c        ****     {
 158:main.c        ****         //initial connection sync
 159:main.c        ****         syncConnection(SYNC_NORM);
 486              		.loc 2 159 0
 487 0038 0020     		movs	r0, #0
 488 003a FFF7FEFF 		bl	syncConnection
 489              	.LVL49:
 490              	.L46:
 491              	.LBB5:
 160:main.c        ****     }
ARM GAS  C:\Users\CCPOW_~1\AppData\Local\Temp\ccMmOMOY.s 			page 14


 161:main.c        ****     
 162:main.c        ****     // Go into infinite loop
 163:main.c        ****     while (1) {
 164:main.c        ****         uint8 message_type;
 165:main.c        ****         
 166:main.c        ****         // Synchronize with atm
 167:main.c        ****     	syncConnection(SYNC_NORM);
 492              		.loc 2 167 0
 493 003e 0020     		movs	r0, #0
 494 0040 FFF7FEFF 		bl	syncConnection
 495              	.LVL50:
 168:main.c        **** 
 169:main.c        ****     	pullMessage(&message_type, 1);
 496              		.loc 2 169 0
 497 0044 1524     		movs	r4, #21
 498 0046 6C44     		add	r4, r4, sp
 499 0048 0121     		movs	r1, #1
 500 004a 2000     		movs	r0, r4
 501 004c FFF7FEFF 		bl	pullMessage
 502              	.LVL51:
 170:main.c        **** 
 171:main.c        ****         switch(message_type)
 503              		.loc 2 171 0
 504 0050 2378     		ldrb	r3, [r4]
 505 0052 062B     		cmp	r3, #6
 506 0054 0AD0     		beq	.L30
 507 0056 DAB2     		uxtb	r2, r3
 508 0058 062A     		cmp	r2, #6
 509 005a 02D8     		bhi	.L31
 510 005c 042B     		cmp	r3, #4
 511 005e 15D0     		beq	.L32
 512 0060 EDE7     		b	.L46
 513              	.L31:
 514 0062 082B     		cmp	r3, #8
 515 0064 68D0     		beq	.L33
 516 0066 0A2B     		cmp	r3, #10
 517 0068 1DD0     		beq	.L34
 518 006a E8E7     		b	.L46
 519              	.L30:
 520              	.LBB6:
 172:main.c        ****         {
 173:main.c        ****         	case UUID_REQUEST:
 174:main.c        ****             {
 175:main.c        ****                 uint8 uuid[UUID_LEN];
 176:main.c        ****                 eeprom_copy(uuid, (volatile const uint8 *)UUID, UUID_LEN);
 521              		.loc 2 176 0
 522 006c 2422     		movs	r2, #36
 523 006e 6949     		ldr	r1, .L47+8
 524 0070 4431     		adds	r1, r1, #68
 525 0072 20A8     		add	r0, sp, #128
 526 0074 FFF7FEFF 		bl	eeprom_copy
 527              	.LVL52:
 177:main.c        ****                 
 178:main.c        ****                 pushMessage(&UUID_RESPONSE, 1);
 528              		.loc 2 178 0
 529 0078 0121     		movs	r1, #1
 530 007a 6548     		ldr	r0, .L47+4
ARM GAS  C:\Users\CCPOW_~1\AppData\Local\Temp\ccMmOMOY.s 			page 15


 531 007c 1130     		adds	r0, r0, #17
 532 007e FFF7FEFF 		bl	pushMessage
 533              	.LVL53:
 179:main.c        **** 	        	pushMessage(uuid, UUID_LEN);
 534              		.loc 2 179 0
 535 0082 2421     		movs	r1, #36
 536 0084 20A8     		add	r0, sp, #128
 537 0086 FFF7FEFF 		bl	pushMessage
 538              	.LVL54:
 539 008a D8E7     		b	.L46
 540              	.L32:
 541              	.LBE6:
 542              	.LBB7:
 180:main.c        **** 	        	break;
 181:main.c        ****             }
 182:main.c        ****         	case NONCE_REQUEST:
 183:main.c        ****             {
 184:main.c        ****                 uint8 nonce[NONCE_LEN];
 185:main.c        ****                 
 186:main.c        ****                 generateNonce(nonce);
 543              		.loc 2 186 0
 544 008c 20A8     		add	r0, sp, #128
 545 008e FFF7FEFF 		bl	generateNonce
 546              	.LVL55:
 187:main.c        ****                 
 188:main.c        ****                 pushMessage(&NONCE_RESPONSE, 1);
 547              		.loc 2 188 0
 548 0092 0121     		movs	r1, #1
 549 0094 5E48     		ldr	r0, .L47+4
 550 0096 1230     		adds	r0, r0, #18
 551 0098 FFF7FEFF 		bl	pushMessage
 552              	.LVL56:
 189:main.c        ****                 pushMessage(nonce, NONCE_LEN);
 553              		.loc 2 189 0
 554 009c 2021     		movs	r1, #32
 555 009e 20A8     		add	r0, sp, #128
 556 00a0 FFF7FEFF 		bl	pushMessage
 557              	.LVL57:
 558 00a4 CBE7     		b	.L46
 559              	.L34:
 560              	.LBE7:
 561              	.LBB8:
 190:main.c        **** 	        	break;
 191:main.c        ****             }
 192:main.c        ****             case REQUEST_BALANCE:
 193:main.c        ****             {
 194:main.c        ****                 uint8 ciphertext[CHECK_BALANCE_CIPHERTEXT_LEN];
 195:main.c        **** 	        	uint8 plaintext[1 + NONCE_LEN + BALANCE_LEN];
 196:main.c        ****                 uint8 key[HSM_KEY_LEN];
 197:main.c        ****                 uint8 curr_nonce[NONCE_LEN];
 198:main.c        ****                 
 199:main.c        ****                 eeprom_copy(key, (const volatile uint8 *)ENC_KEY, HSM_KEY_LEN);
 562              		.loc 2 199 0
 563 00a6 5B4C     		ldr	r4, .L47+8
 564 00a8 211D     		adds	r1, r4, #4
 565 00aa 06AD     		add	r5, sp, #24
 566 00ac 2022     		movs	r2, #32
ARM GAS  C:\Users\CCPOW_~1\AppData\Local\Temp\ccMmOMOY.s 			page 16


 567 00ae 2800     		movs	r0, r5
 568 00b0 FFF7FEFF 		bl	eeprom_copy
 569              	.LVL58:
 200:main.c        ****                 eeprom_copy(curr_nonce, (const volatile uint8 *)CURRENT_NONCE, NONCE_LEN);
 570              		.loc 2 200 0
 571 00b4 2100     		movs	r1, r4
 572 00b6 7031     		adds	r1, r1, #112
 573 00b8 2022     		movs	r2, #32
 574 00ba 0EA8     		add	r0, sp, #56
 575 00bc FFF7FEFF 		bl	eeprom_copy
 576              	.LVL59:
 201:main.c        **** 
 202:main.c        ****                 pullMessage(ciphertext, CHECK_BALANCE_CIPHERTEXT_LEN);
 577              		.loc 2 202 0
 578 00c0 4C21     		movs	r1, #76
 579 00c2 20A8     		add	r0, sp, #128
 580 00c4 FFF7FEFF 		bl	pullMessage
 581              	.LVL60:
 203:main.c        **** 
 204:main.c        **** 			    // decrypt message, fail if authentication is wrong
 205:main.c        **** 	        	if (hydro_secretbox_decrypt(plaintext, ciphertext, CHECK_BALANCE_CIPHERTEXT_LEN, 0, CONTE
 582              		.loc 2 205 0
 583 00c8 0395     		str	r5, [sp, #12]
 584 00ca 514B     		ldr	r3, .L47+4
 585 00cc 1433     		adds	r3, r3, #20
 586 00ce 0293     		str	r3, [sp, #8]
 587 00d0 0022     		movs	r2, #0
 588 00d2 0023     		movs	r3, #0
 589 00d4 0092     		str	r2, [sp]
 590 00d6 0193     		str	r3, [sp, #4]
 591 00d8 4C32     		adds	r2, r2, #76
 592 00da 20A9     		add	r1, sp, #128
 593 00dc 16A8     		add	r0, sp, #88
 594 00de FFF7FEFF 		bl	hydro_secretbox_decrypt
 595              	.LVL61:
 596 00e2 0028     		cmp	r0, #0
 597 00e4 04D0     		beq	.L35
 206:main.c        ****                 {
 207:main.c        ****                     pushMessage(&REJECTED,1);
 598              		.loc 2 207 0
 599 00e6 0121     		movs	r1, #1
 600 00e8 4A48     		ldr	r0, .L47+8
 601 00ea FFF7FEFF 		bl	pushMessage
 602              	.LVL62:
 208:main.c        **** 	        		break;
 603              		.loc 2 208 0
 604 00ee A6E7     		b	.L46
 605              	.L35:
 209:main.c        **** 	        	}	
 210:main.c        ****                 
 211:main.c        ****                 //ptext format: OPCODE | HSM_NONCE | BALANCE
 212:main.c        ****                 
 213:main.c        ****                 // Send message if request is not a balance request
 214:main.c        ****                 if (plaintext[0] != REQUEST_BALANCE)
 606              		.loc 2 214 0
 607 00f0 16AB     		add	r3, sp, #88
 608 00f2 1B78     		ldrb	r3, [r3]
ARM GAS  C:\Users\CCPOW_~1\AppData\Local\Temp\ccMmOMOY.s 			page 17


 609 00f4 0A2B     		cmp	r3, #10
 610 00f6 04D0     		beq	.L37
 215:main.c        ****                 {
 216:main.c        ****                     pushMessage(&REJECTED,1);
 611              		.loc 2 216 0
 612 00f8 0121     		movs	r1, #1
 613 00fa 4648     		ldr	r0, .L47+8
 614 00fc FFF7FEFF 		bl	pushMessage
 615              	.LVL63:
 217:main.c        ****                     break;
 616              		.loc 2 217 0
 617 0100 9DE7     		b	.L46
 618              	.L37:
 218:main.c        ****                 }
 219:main.c        **** 		        else {
 220:main.c        ****                     //check that the nonce matches
 221:main.c        ****                     if (memcmp(plaintext + 1, curr_nonce, NONCE_LEN))
 619              		.loc 2 221 0
 620 0102 2022     		movs	r2, #32
 621 0104 0EA9     		add	r1, sp, #56
 622 0106 5920     		movs	r0, #89
 623 0108 6844     		add	r0, r0, sp
 624 010a FFF7FEFF 		bl	memcmp
 625              	.LVL64:
 626 010e 0028     		cmp	r0, #0
 627 0110 04D0     		beq	.L38
 222:main.c        ****                     {
 223:main.c        ****                         pushMessage(&REJECTED,1);
 628              		.loc 2 223 0
 629 0112 0121     		movs	r1, #1
 630 0114 3F48     		ldr	r0, .L47+8
 631 0116 FFF7FEFF 		bl	pushMessage
 632              	.LVL65:
 224:main.c        ****                         break;
 633              		.loc 2 224 0
 634 011a 90E7     		b	.L46
 635              	.L38:
 225:main.c        ****                     }
 226:main.c        ****                     
 227:main.c        **** 					// Resets the nonce to prevent replays
 228:main.c        ****                     generateNonce(curr_nonce);
 636              		.loc 2 228 0
 637 011c 0EA8     		add	r0, sp, #56
 638 011e FFF7FEFF 		bl	generateNonce
 639              	.LVL66:
 229:main.c        ****                     
 230:main.c        ****                     /* Handle actual balance check */
 231:main.c        ****                     
 232:main.c        ****                     // Push the balance to the atm
 233:main.c        ****                     pushMessage(&RETURN_BALANCE, 1);
 640              		.loc 2 233 0
 641 0122 0121     		movs	r1, #1
 642 0124 3A48     		ldr	r0, .L47+4
 643 0126 1C30     		adds	r0, r0, #28
 644 0128 FFF7FEFF 		bl	pushMessage
 645              	.LVL67:
 234:main.c        ****                     pushMessage(&plaintext[1 + NONCE_LEN], BALANCE_LEN);
ARM GAS  C:\Users\CCPOW_~1\AppData\Local\Temp\ccMmOMOY.s 			page 18


 646              		.loc 2 234 0
 647 012c 0421     		movs	r1, #4
 648 012e 7920     		movs	r0, #121
 649 0130 6844     		add	r0, r0, sp
 650 0132 FFF7FEFF 		bl	pushMessage
 651              	.LVL68:
 235:main.c        **** 		        	break;
 652              		.loc 2 235 0
 653 0136 82E7     		b	.L46
 654              	.L33:
 655              	.LBE8:
 656              	.LBB9:
 236:main.c        ****                 }
 237:main.c        ****             }
 238:main.c        ****         	case WITHDRAWAL_REQUEST:
 239:main.c        ****             {
 240:main.c        ****                 uint8 ciphertext[WITHDRAW_CIPHERTEXT_LEN];
 241:main.c        **** 	        	uint8 plaintext[1 + NONCE_LEN + 1]; //opcode + nonce + 1 byte for num bills
 242:main.c        ****                 uint8 key[HSM_KEY_LEN];
 243:main.c        ****                 uint8 curr_nonce[NONCE_LEN];
 244:main.c        ****                 uint8 withdraw_amount;
 245:main.c        ****                 uint8 bills_left;
 246:main.c        ****                 
 247:main.c        ****                 eeprom_copy(key, (const volatile uint8 *)ENC_KEY, HSM_KEY_LEN);
 657              		.loc 2 247 0
 658 0138 364C     		ldr	r4, .L47+8
 659 013a 211D     		adds	r1, r4, #4
 660 013c 06AD     		add	r5, sp, #24
 661 013e 2022     		movs	r2, #32
 662 0140 2800     		movs	r0, r5
 663 0142 FFF7FEFF 		bl	eeprom_copy
 664              	.LVL69:
 248:main.c        ****                 eeprom_copy(curr_nonce, (const volatile uint8 *)CURRENT_NONCE, NONCE_LEN);
 665              		.loc 2 248 0
 666 0146 2100     		movs	r1, r4
 667 0148 7031     		adds	r1, r1, #112
 668 014a 2022     		movs	r2, #32
 669 014c 0EA8     		add	r0, sp, #56
 670 014e FFF7FEFF 		bl	eeprom_copy
 671              	.LVL70:
 249:main.c        ****                 eeprom_copy(&bills_left, (const volatile uint8 *)BILLS_LEFT, 1);
 672              		.loc 2 249 0
 673 0152 2100     		movs	r1, r4
 674 0154 6C31     		adds	r1, r1, #108
 675 0156 0122     		movs	r2, #1
 676 0158 1720     		movs	r0, #23
 677 015a 6844     		add	r0, r0, sp
 678 015c FFF7FEFF 		bl	eeprom_copy
 679              	.LVL71:
 250:main.c        ****                 
 251:main.c        ****                 pullMessage(ciphertext, WITHDRAW_CIPHERTEXT_LEN);
 680              		.loc 2 251 0
 681 0160 4621     		movs	r1, #70
 682 0162 20A8     		add	r0, sp, #128
 683 0164 FFF7FEFF 		bl	pullMessage
 684              	.LVL72:
 252:main.c        **** 
ARM GAS  C:\Users\CCPOW_~1\AppData\Local\Temp\ccMmOMOY.s 			page 19


 253:main.c        **** 			    // decrypt message, fail if authentication is wrong
 254:main.c        **** 	        	if (hydro_secretbox_decrypt(plaintext, ciphertext, WITHDRAW_CIPHERTEXT_LEN, 0, CONTEXT, k
 685              		.loc 2 254 0
 686 0168 0395     		str	r5, [sp, #12]
 687 016a 294B     		ldr	r3, .L47+4
 688 016c 1433     		adds	r3, r3, #20
 689 016e 0293     		str	r3, [sp, #8]
 690 0170 0022     		movs	r2, #0
 691 0172 0023     		movs	r3, #0
 692 0174 0092     		str	r2, [sp]
 693 0176 0193     		str	r3, [sp, #4]
 694 0178 4632     		adds	r2, r2, #70
 695 017a 20A9     		add	r1, sp, #128
 696 017c 16A8     		add	r0, sp, #88
 697 017e FFF7FEFF 		bl	hydro_secretbox_decrypt
 698              	.LVL73:
 699 0182 0028     		cmp	r0, #0
 700 0184 04D0     		beq	.L39
 255:main.c        ****                 {
 256:main.c        ****                     pushMessage(&REJECTED,1);
 701              		.loc 2 256 0
 702 0186 0121     		movs	r1, #1
 703 0188 2248     		ldr	r0, .L47+8
 704 018a FFF7FEFF 		bl	pushMessage
 705              	.LVL74:
 257:main.c        **** 	        		break;
 706              		.loc 2 257 0
 707 018e 56E7     		b	.L46
 708              	.L39:
 258:main.c        **** 	        	}	
 259:main.c        ****                 
 260:main.c        ****                 // Send message if request is not a balance request
 261:main.c        ****                 if (plaintext[0] != WITHDRAWAL_REQUEST)
 709              		.loc 2 261 0
 710 0190 16AB     		add	r3, sp, #88
 711 0192 1B78     		ldrb	r3, [r3]
 712 0194 082B     		cmp	r3, #8
 713 0196 04D0     		beq	.L41
 262:main.c        ****                 {
 263:main.c        ****                     pushMessage(&REJECTED,1);
 714              		.loc 2 263 0
 715 0198 0121     		movs	r1, #1
 716 019a 1E48     		ldr	r0, .L47+8
 717 019c FFF7FEFF 		bl	pushMessage
 718              	.LVL75:
 264:main.c        ****                     break;
 719              		.loc 2 264 0
 720 01a0 4DE7     		b	.L46
 721              	.L41:
 265:main.c        ****                 }
 266:main.c        ****                 
 267:main.c        ****                 //check that the nonce matches
 268:main.c        ****                 if (memcmp(plaintext + 1, curr_nonce, NONCE_LEN))
 722              		.loc 2 268 0
 723 01a2 2022     		movs	r2, #32
 724 01a4 0EA9     		add	r1, sp, #56
 725 01a6 5920     		movs	r0, #89
ARM GAS  C:\Users\CCPOW_~1\AppData\Local\Temp\ccMmOMOY.s 			page 20


 726 01a8 6844     		add	r0, r0, sp
 727 01aa FFF7FEFF 		bl	memcmp
 728              	.LVL76:
 729 01ae 0028     		cmp	r0, #0
 730 01b0 04D0     		beq	.L42
 269:main.c        ****                 {
 270:main.c        ****                     pushMessage(&REJECTED,1);
 731              		.loc 2 270 0
 732 01b2 0121     		movs	r1, #1
 733 01b4 1748     		ldr	r0, .L47+8
 734 01b6 FFF7FEFF 		bl	pushMessage
 735              	.LVL77:
 271:main.c        ****                     break;
 736              		.loc 2 271 0
 737 01ba 40E7     		b	.L46
 738              	.L42:
 272:main.c        ****                 }
 273:main.c        ****                     
 274:main.c        **** 		        // Resets the nonce to prevent replays
 275:main.c        ****                 generateNonce(curr_nonce);
 739              		.loc 2 275 0
 740 01bc 0EA8     		add	r0, sp, #56
 741 01be FFF7FEFF 		bl	generateNonce
 742              	.LVL78:
 276:main.c        ****                     
 277:main.c        ****                 /* Handle actual withdrawal */
 278:main.c        ****                     
 279:main.c        ****                 withdraw_amount = plaintext[1 + NONCE_LEN];
 743              		.loc 2 279 0
 744 01c2 2123     		movs	r3, #33
 745 01c4 16AA     		add	r2, sp, #88
 746 01c6 D35C     		ldrb	r3, [r2, r3]
 747 01c8 1622     		movs	r2, #22
 748 01ca 6A44     		add	r2, r2, sp
 749 01cc 1370     		strb	r3, [r2]
 280:main.c        ****                 if (bills_left < withdraw_amount) 
 750              		.loc 2 280 0
 751 01ce 1722     		movs	r2, #23
 752 01d0 6A44     		add	r2, r2, sp
 753 01d2 1278     		ldrb	r2, [r2]
 754 01d4 9342     		cmp	r3, r2
 755 01d6 04D9     		bls	.L43
 281:main.c        ****                 {
 282:main.c        ****                     pushMessage(&REJECTED,1); // dont have the funds to handle this withdrawal
 756              		.loc 2 282 0
 757 01d8 0121     		movs	r1, #1
 758 01da 0E48     		ldr	r0, .L47+8
 759 01dc FFF7FEFF 		bl	pushMessage
 760              	.LVL79:
 283:main.c        **** 		            break;
 761              		.loc 2 283 0
 762 01e0 2DE7     		b	.L46
 763              	.L43:
 284:main.c        ****                 }
 285:main.c        ****                 
 286:main.c        ****                 pushMessage(&RETURN_WITHDRAWAL, 1);
 764              		.loc 2 286 0
ARM GAS  C:\Users\CCPOW_~1\AppData\Local\Temp\ccMmOMOY.s 			page 21


 765 01e2 0121     		movs	r1, #1
 766 01e4 0A48     		ldr	r0, .L47+4
 767 01e6 1D30     		adds	r0, r0, #29
 768 01e8 FFF7FEFF 		bl	pushMessage
 769              	.LVL80:
 287:main.c        ****                 pushMessage(&withdraw_amount, 1);
 770              		.loc 2 287 0
 771 01ec 0121     		movs	r1, #1
 772 01ee 1620     		movs	r0, #22
 773 01f0 6844     		add	r0, r0, sp
 774 01f2 FFF7FEFF 		bl	pushMessage
 775              	.LVL81:
 776              	.LBB10:
 288:main.c        ****                 
 289:main.c        ****                 for (int i = 0; i < withdraw_amount; i++) {
 777              		.loc 2 289 0
 778 01f6 0024     		movs	r4, #0
 779 01f8 02E0     		b	.L44
 780              	.LVL82:
 781              	.L45:
 290:main.c        **** 		        	dispenseBill();
 782              		.loc 2 290 0 discriminator 3
 783 01fa FFF7FEFF 		bl	dispenseBill
 784              	.LVL83:
 289:main.c        **** 		        	dispenseBill();
 785              		.loc 2 289 0 discriminator 3
 786 01fe 0134     		adds	r4, r4, #1
 787              	.LVL84:
 788              	.L44:
 289:main.c        **** 		        	dispenseBill();
 789              		.loc 2 289 0 is_stmt 0 discriminator 1
 790 0200 1623     		movs	r3, #22
 791 0202 6B44     		add	r3, r3, sp
 792 0204 1B78     		ldrb	r3, [r3]
 793 0206 9C42     		cmp	r4, r3
 794 0208 F7DB     		blt	.L45
 795 020a 18E7     		b	.L46
 796              	.L48:
 797              		.align	2
 798              	.L47:
 799 020c 00000000 		.word	Reset_ISR
 800 0210 80080000 		.word	.LANCHOR2
 801 0214 00080000 		.word	.LANCHOR1
 802              	.LBE10:
 803              	.LBE9:
 804              	.LBE5:
 805              		.cfi_endproc
 806              	.LFE39:
 807              		.size	main, .-main
 808              		.section	.rodata
 809              		.align	2
 810              		.set	.LANCHOR0,. + 0
 811              		.set	.LANCHOR1,. + 2048
 812              		.set	.LANCHOR2,. + 2176
 813              		.type	MONEY, %object
 814              		.size	MONEY, 2048
 815              	MONEY:
ARM GAS  C:\Users\CCPOW_~1\AppData\Local\Temp\ccMmOMOY.s 			page 22


 816 0000 2A2A2A2A 		.ascii	"*****EMPTY*****\000"
 816      2A454D50 
 816      54592A2A 
 816      2A2A2A00 
 817 0010 00000000 		.space	2032
 817      00000000 
 817      00000000 
 817      00000000 
 817      00000000 
 818              		.type	REJECTED, %object
 819              		.size	REJECTED, 1
 820              	REJECTED:
 821 0800 21       		.byte	33
 822              		.type	ACCEPTED, %object
 823              		.size	ACCEPTED, 1
 824              	ACCEPTED:
 825 0801 20       		.byte	32
 826 0802 0000     		.space	2
 827              		.type	ENC_KEY, %object
 828              		.size	ENC_KEY, 32
 829              	ENC_KEY:
 830 0804 00000000 		.space	32
 830      00000000 
 830      00000000 
 830      00000000 
 830      00000000 
 831              		.type	RAND_KEY, %object
 832              		.size	RAND_KEY, 32
 833              	RAND_KEY:
 834 0824 00000000 		.space	32
 834      00000000 
 834      00000000 
 834      00000000 
 834      00000000 
 835              		.type	UUID, %object
 836              		.size	UUID, 36
 837              	UUID:
 838 0844 00000000 		.space	36
 838      00000000 
 838      00000000 
 838      00000000 
 838      00000000 
 839              		.type	INITIATE_BILLS_REQUEST, %object
 840              		.size	INITIATE_BILLS_REQUEST, 1
 841              	INITIATE_BILLS_REQUEST:
 842 0868 27       		.byte	39
 843 0869 000000   		.space	3
 844              		.type	BILLS_LEFT, %object
 845              		.size	BILLS_LEFT, 1
 846              	BILLS_LEFT:
 847 086c 00       		.space	1
 848              		.type	BILL_RECEIVED, %object
 849              		.size	BILL_RECEIVED, 1
 850              	BILL_RECEIVED:
 851 086d 29       		.byte	41
 852 086e 0000     		.space	2
 853              		.type	CURRENT_NONCE, %object
ARM GAS  C:\Users\CCPOW_~1\AppData\Local\Temp\ccMmOMOY.s 			page 23


 854              		.size	CURRENT_NONCE, 32
 855              	CURRENT_NONCE:
 856 0870 00000000 		.space	32
 856      00000000 
 856      00000000 
 856      00000000 
 856      00000000 
 857              		.type	PROVISIONED, %object
 858              		.size	PROVISIONED, 1
 859              	PROVISIONED:
 860 0890 00       		.space	1
 861              		.type	UUID_RESPONSE, %object
 862              		.size	UUID_RESPONSE, 1
 863              	UUID_RESPONSE:
 864 0891 07       		.byte	7
 865              		.type	NONCE_RESPONSE, %object
 866              		.size	NONCE_RESPONSE, 1
 867              	NONCE_RESPONSE:
 868 0892 05       		.byte	5
 869 0893 00       		.space	1
 870              		.type	CONTEXT, %object
 871              		.size	CONTEXT, 8
 872              	CONTEXT:
 873 0894 00000000 		.space	8
 873      00000000 
 874              		.type	RETURN_BALANCE, %object
 875              		.size	RETURN_BALANCE, 1
 876              	RETURN_BALANCE:
 877 089c 0B       		.byte	11
 878              		.type	RETURN_WITHDRAWAL, %object
 879              		.size	RETURN_WITHDRAWAL, 1
 880              	RETURN_WITHDRAWAL:
 881 089d 09       		.byte	9
 882              		.section	.rodata.str1.4,"aMS",%progbits,1
 883              		.align	2
 884              	.LC0:
 885 0000 496E2069 		.ascii	"In interrupt\012\000"
 885      6E746572 
 885      72757074 
 885      0A00
 886 000e 0000     		.space	2
 887              	.LC3:
 888 0010 2A2A2A2A 		.ascii	"*****EMPTY*****\000"
 888      2A454D50 
 888      54592A2A 
 888      2A2A2A00 
 889              		.text
 890              	.Letext0:
 891              		.file 3 "..\\libhydrogen.cylib\\libhydrogen/hydrogen.h"
 892              		.file 4 "usbserialprotocol.h"
 893              		.file 5 "Generated_Source\\PSoC4/SW1.h"
 894              		.file 6 "Generated_Source\\PSoC4/CyLib.h"
 895              		.file 7 "Generated_Source\\PSoC4/PIGGY_BANK.h"
 896              		.file 8 "d:\\programs\\psoccreator\\psoc creator\\4.1\\psoc creator\\import\\gnu\\arm\\5.4.1\\arm-
 897              		.file 9 "Generated_Source\\PSoC4/Reset_isr.h"
 898              		.file 10 "Generated_Source\\PSoC4/DB_UART.h"
 899              		.file 11 "Generated_Source\\PSoC4/cytypes.h"
ARM GAS  C:\Users\CCPOW_~1\AppData\Local\Temp\ccMmOMOY.s 			page 24

