ARM GAS  C:\Users\CCPOW_~1\AppData\Local\Temp\ccQfR6ec.s 			page 1


   1              		.syntax unified
   2              		.cpu cortex-m0
   3              		.fpu softvfp
   4              		.eabi_attribute 20, 1
   5              		.eabi_attribute 21, 1
   6              		.eabi_attribute 23, 3
   7              		.eabi_attribute 24, 1
   8              		.eabi_attribute 25, 1
   9              		.eabi_attribute 26, 1
  10              		.eabi_attribute 30, 4
  11              		.eabi_attribute 34, 0
  12              		.eabi_attribute 18, 4
  13              		.thumb
  14              		.syntax unified
  15              		.file	"hydrogen.c"
  16              		.text
  17              	.Ltext0:
  18              		.cfi_sections	.debug_frame
  19              		.section	.text.mem_cpy,"ax",%progbits
  20              		.align	1
  21              		.code	16
  22              		.thumb_func
  23              		.type	mem_cpy, %function
  24              	mem_cpy:
  25              	.LFB12:
  26              		.file 1 "libhydrogen\\impl/common.h"
   1:libhydrogen\impl/common.h **** #include <assert.h>
   2:libhydrogen\impl/common.h **** #include <errno.h>
   3:libhydrogen\impl/common.h **** #include <limits.h>
   4:libhydrogen\impl/common.h **** #include <stdbool.h>
   5:libhydrogen\impl/common.h **** #include <stdint.h>
   6:libhydrogen\impl/common.h **** #include <stdlib.h>
   7:libhydrogen\impl/common.h **** #include <string.h>
   8:libhydrogen\impl/common.h **** 
   9:libhydrogen\impl/common.h **** #include "../hydrogen.h"
  10:libhydrogen\impl/common.h **** 
  11:libhydrogen\impl/common.h **** #if !defined(__unix__) && (defined(__APPLE__) || defined(__linux__))
  12:libhydrogen\impl/common.h **** # define __unix__ 1
  13:libhydrogen\impl/common.h **** #endif
  14:libhydrogen\impl/common.h **** #ifndef __GNUC__
  15:libhydrogen\impl/common.h **** # define __restrict__
  16:libhydrogen\impl/common.h **** #endif
  17:libhydrogen\impl/common.h **** 
  18:libhydrogen\impl/common.h **** #if defined(__BYTE_ORDER__) && defined(__ORDER_BIG_ENDIAN__) && \
  19:libhydrogen\impl/common.h ****     __BYTE_ORDER__ == __ORDER_BIG_ENDIAN__
  20:libhydrogen\impl/common.h **** # define NATIVE_BIG_ENDIAN
  21:libhydrogen\impl/common.h **** #endif
  22:libhydrogen\impl/common.h **** #ifndef NATIVE_BIG_ENDIAN
  23:libhydrogen\impl/common.h **** # ifndef NATIVE_LITTLE_ENDIAN
  24:libhydrogen\impl/common.h **** #  define NATIVE_LITTLE_ENDIAN
  25:libhydrogen\impl/common.h **** # endif
  26:libhydrogen\impl/common.h **** #endif
  27:libhydrogen\impl/common.h **** 
  28:libhydrogen\impl/common.h **** #ifndef TLS
  29:libhydrogen\impl/common.h **** # ifdef _WIN32
  30:libhydrogen\impl/common.h **** #  define TLS __declspec(thread)
  31:libhydrogen\impl/common.h **** # elif (defined(__clang__) || defined(__GNUC__)) && defined(__unix__)
ARM GAS  C:\Users\CCPOW_~1\AppData\Local\Temp\ccQfR6ec.s 			page 2


  32:libhydrogen\impl/common.h **** #  define TLS __thread
  33:libhydrogen\impl/common.h **** # else
  34:libhydrogen\impl/common.h **** #  define TLS
  35:libhydrogen\impl/common.h **** # endif
  36:libhydrogen\impl/common.h **** #endif
  37:libhydrogen\impl/common.h **** 
  38:libhydrogen\impl/common.h **** #ifndef SIZE_MAX
  39:libhydrogen\impl/common.h **** # define SIZE_MAX ((size_t) -1)
  40:libhydrogen\impl/common.h **** #endif
  41:libhydrogen\impl/common.h **** 
  42:libhydrogen\impl/common.h **** #define COMPILER_ASSERT(X) (void) sizeof(char[(X) ? 1 : -1])
  43:libhydrogen\impl/common.h **** 
  44:libhydrogen\impl/common.h **** #define ROTL32(x, b) (uint32_t)(((x) << (b)) | ((x) >> (32 - (b))))
  45:libhydrogen\impl/common.h **** #define ROTL64(x, b) (uint64_t)(((x) << (b)) | ((x) >> (64 - (b))))
  46:libhydrogen\impl/common.h **** #define ROTR32(x, b) (uint32_t)(((x) >> (b)) | ((x) << (32 - (b))))
  47:libhydrogen\impl/common.h **** #define ROTR64(x, b) (uint64_t)(((x) >> (b)) | ((x) << (64 - (b))))
  48:libhydrogen\impl/common.h **** 
  49:libhydrogen\impl/common.h **** #define LOAD64_LE(SRC) load64_le(SRC)
  50:libhydrogen\impl/common.h **** static inline uint64_t
  51:libhydrogen\impl/common.h **** load64_le(const uint8_t src[8])
  52:libhydrogen\impl/common.h **** {
  53:libhydrogen\impl/common.h **** #ifdef NATIVE_LITTLE_ENDIAN
  54:libhydrogen\impl/common.h ****     uint64_t w;
  55:libhydrogen\impl/common.h ****     memcpy(&w, src, sizeof w);
  56:libhydrogen\impl/common.h ****     return w;
  57:libhydrogen\impl/common.h **** #else
  58:libhydrogen\impl/common.h ****     uint64_t w = (uint64_t) src[0];
  59:libhydrogen\impl/common.h ****     w |= (uint64_t) src[1] << 8;
  60:libhydrogen\impl/common.h ****     w |= (uint64_t) src[2] << 16;
  61:libhydrogen\impl/common.h ****     w |= (uint64_t) src[3] << 24;
  62:libhydrogen\impl/common.h ****     w |= (uint64_t) src[4] << 32;
  63:libhydrogen\impl/common.h ****     w |= (uint64_t) src[5] << 40;
  64:libhydrogen\impl/common.h ****     w |= (uint64_t) src[6] << 48;
  65:libhydrogen\impl/common.h ****     w |= (uint64_t) src[7] << 56;
  66:libhydrogen\impl/common.h ****     return w;
  67:libhydrogen\impl/common.h **** #endif
  68:libhydrogen\impl/common.h **** }
  69:libhydrogen\impl/common.h **** 
  70:libhydrogen\impl/common.h **** #define STORE64_LE(DST, W) store64_le((DST), (W))
  71:libhydrogen\impl/common.h **** static inline void
  72:libhydrogen\impl/common.h **** store64_le(uint8_t dst[8], uint64_t w)
  73:libhydrogen\impl/common.h **** {
  74:libhydrogen\impl/common.h **** #ifdef NATIVE_LITTLE_ENDIAN
  75:libhydrogen\impl/common.h ****     memcpy(dst, &w, sizeof w);
  76:libhydrogen\impl/common.h **** #else
  77:libhydrogen\impl/common.h ****     dst[0] = (uint8_t) w;
  78:libhydrogen\impl/common.h ****     w >>= 8;
  79:libhydrogen\impl/common.h ****     dst[1] = (uint8_t) w;
  80:libhydrogen\impl/common.h ****     w >>= 8;
  81:libhydrogen\impl/common.h ****     dst[2] = (uint8_t) w;
  82:libhydrogen\impl/common.h ****     w >>= 8;
  83:libhydrogen\impl/common.h ****     dst[3] = (uint8_t) w;
  84:libhydrogen\impl/common.h ****     w >>= 8;
  85:libhydrogen\impl/common.h ****     dst[4] = (uint8_t) w;
  86:libhydrogen\impl/common.h ****     w >>= 8;
  87:libhydrogen\impl/common.h ****     dst[5] = (uint8_t) w;
  88:libhydrogen\impl/common.h ****     w >>= 8;
ARM GAS  C:\Users\CCPOW_~1\AppData\Local\Temp\ccQfR6ec.s 			page 3


  89:libhydrogen\impl/common.h ****     dst[6] = (uint8_t) w;
  90:libhydrogen\impl/common.h ****     w >>= 8;
  91:libhydrogen\impl/common.h ****     dst[7] = (uint8_t) w;
  92:libhydrogen\impl/common.h **** #endif
  93:libhydrogen\impl/common.h **** }
  94:libhydrogen\impl/common.h **** 
  95:libhydrogen\impl/common.h **** #define LOAD32_LE(SRC) load32_le(SRC)
  96:libhydrogen\impl/common.h **** static inline uint32_t
  97:libhydrogen\impl/common.h **** load32_le(const uint8_t src[4])
  98:libhydrogen\impl/common.h **** {
  99:libhydrogen\impl/common.h **** #ifdef NATIVE_LITTLE_ENDIAN
 100:libhydrogen\impl/common.h ****     uint32_t w;
 101:libhydrogen\impl/common.h ****     memcpy(&w, src, sizeof w);
 102:libhydrogen\impl/common.h ****     return w;
 103:libhydrogen\impl/common.h **** #else
 104:libhydrogen\impl/common.h ****     uint32_t w = (uint32_t) src[0];
 105:libhydrogen\impl/common.h ****     w |= (uint32_t) src[1] << 8;
 106:libhydrogen\impl/common.h ****     w |= (uint32_t) src[2] << 16;
 107:libhydrogen\impl/common.h ****     w |= (uint32_t) src[3] << 24;
 108:libhydrogen\impl/common.h ****     return w;
 109:libhydrogen\impl/common.h **** #endif
 110:libhydrogen\impl/common.h **** }
 111:libhydrogen\impl/common.h **** 
 112:libhydrogen\impl/common.h **** #define STORE32_LE(DST, W) store32_le((DST), (W))
 113:libhydrogen\impl/common.h **** static inline void
 114:libhydrogen\impl/common.h **** store32_le(uint8_t dst[4], uint32_t w)
 115:libhydrogen\impl/common.h **** {
 116:libhydrogen\impl/common.h **** #ifdef NATIVE_LITTLE_ENDIAN
 117:libhydrogen\impl/common.h ****     memcpy(dst, &w, sizeof w);
 118:libhydrogen\impl/common.h **** #else
 119:libhydrogen\impl/common.h ****     dst[0] = (uint8_t) w;
 120:libhydrogen\impl/common.h ****     w >>= 8;
 121:libhydrogen\impl/common.h ****     dst[1] = (uint8_t) w;
 122:libhydrogen\impl/common.h ****     w >>= 8;
 123:libhydrogen\impl/common.h ****     dst[2] = (uint8_t) w;
 124:libhydrogen\impl/common.h ****     w >>= 8;
 125:libhydrogen\impl/common.h ****     dst[3] = (uint8_t) w;
 126:libhydrogen\impl/common.h **** #endif
 127:libhydrogen\impl/common.h **** }
 128:libhydrogen\impl/common.h **** 
 129:libhydrogen\impl/common.h **** #define LOAD16_LE(SRC) load16_le(SRC)
 130:libhydrogen\impl/common.h **** static inline uint16_t
 131:libhydrogen\impl/common.h **** load16_le(const uint8_t src[2])
 132:libhydrogen\impl/common.h **** {
 133:libhydrogen\impl/common.h **** #ifdef NATIVE_LITTLE_ENDIAN
 134:libhydrogen\impl/common.h ****     uint16_t w;
 135:libhydrogen\impl/common.h ****     memcpy(&w, src, sizeof w);
 136:libhydrogen\impl/common.h ****     return w;
 137:libhydrogen\impl/common.h **** #else
 138:libhydrogen\impl/common.h ****     uint16_t w = (uint16_t) src[0];
 139:libhydrogen\impl/common.h ****     w |= (uint16_t) src[1] << 8;
 140:libhydrogen\impl/common.h ****     return w;
 141:libhydrogen\impl/common.h **** #endif
 142:libhydrogen\impl/common.h **** }
 143:libhydrogen\impl/common.h **** 
 144:libhydrogen\impl/common.h **** #define STORE16_LE(DST, W) store16_le((DST), (W))
 145:libhydrogen\impl/common.h **** static inline void
ARM GAS  C:\Users\CCPOW_~1\AppData\Local\Temp\ccQfR6ec.s 			page 4


 146:libhydrogen\impl/common.h **** store16_le(uint8_t dst[2], uint16_t w)
 147:libhydrogen\impl/common.h **** {
 148:libhydrogen\impl/common.h **** #ifdef NATIVE_LITTLE_ENDIAN
 149:libhydrogen\impl/common.h ****     memcpy(dst, &w, sizeof w);
 150:libhydrogen\impl/common.h **** #else
 151:libhydrogen\impl/common.h ****     dst[0] = (uint8_t) w;
 152:libhydrogen\impl/common.h ****     w >>= 8;
 153:libhydrogen\impl/common.h ****     dst[1] = (uint8_t) w;
 154:libhydrogen\impl/common.h **** #endif
 155:libhydrogen\impl/common.h **** }
 156:libhydrogen\impl/common.h **** 
 157:libhydrogen\impl/common.h **** /* ----- */
 158:libhydrogen\impl/common.h **** 
 159:libhydrogen\impl/common.h **** #define LOAD64_BE(SRC) load64_be(SRC)
 160:libhydrogen\impl/common.h **** static inline uint64_t
 161:libhydrogen\impl/common.h **** load64_be(const uint8_t src[8])
 162:libhydrogen\impl/common.h **** {
 163:libhydrogen\impl/common.h **** #ifdef NATIVE_BIG_ENDIAN
 164:libhydrogen\impl/common.h ****     uint64_t w;
 165:libhydrogen\impl/common.h ****     memcpy(&w, src, sizeof w);
 166:libhydrogen\impl/common.h ****     return w;
 167:libhydrogen\impl/common.h **** #else
 168:libhydrogen\impl/common.h ****     uint64_t w = (uint64_t) src[7];
 169:libhydrogen\impl/common.h ****     w |= (uint64_t) src[6] << 8;
 170:libhydrogen\impl/common.h ****     w |= (uint64_t) src[5] << 16;
 171:libhydrogen\impl/common.h ****     w |= (uint64_t) src[4] << 24;
 172:libhydrogen\impl/common.h ****     w |= (uint64_t) src[3] << 32;
 173:libhydrogen\impl/common.h ****     w |= (uint64_t) src[2] << 40;
 174:libhydrogen\impl/common.h ****     w |= (uint64_t) src[1] << 48;
 175:libhydrogen\impl/common.h ****     w |= (uint64_t) src[0] << 56;
 176:libhydrogen\impl/common.h ****     return w;
 177:libhydrogen\impl/common.h **** #endif
 178:libhydrogen\impl/common.h **** }
 179:libhydrogen\impl/common.h **** 
 180:libhydrogen\impl/common.h **** #define STORE64_BE(DST, W) store64_be((DST), (W))
 181:libhydrogen\impl/common.h **** static inline void
 182:libhydrogen\impl/common.h **** store64_be(uint8_t dst[8], uint64_t w)
 183:libhydrogen\impl/common.h **** {
 184:libhydrogen\impl/common.h **** #ifdef NATIVE_BIG_ENDIAN
 185:libhydrogen\impl/common.h ****     memcpy(dst, &w, sizeof w);
 186:libhydrogen\impl/common.h **** #else
 187:libhydrogen\impl/common.h ****     dst[7] = (uint8_t) w;
 188:libhydrogen\impl/common.h ****     w >>= 8;
 189:libhydrogen\impl/common.h ****     dst[6] = (uint8_t) w;
 190:libhydrogen\impl/common.h ****     w >>= 8;
 191:libhydrogen\impl/common.h ****     dst[5] = (uint8_t) w;
 192:libhydrogen\impl/common.h ****     w >>= 8;
 193:libhydrogen\impl/common.h ****     dst[4] = (uint8_t) w;
 194:libhydrogen\impl/common.h ****     w >>= 8;
 195:libhydrogen\impl/common.h ****     dst[3] = (uint8_t) w;
 196:libhydrogen\impl/common.h ****     w >>= 8;
 197:libhydrogen\impl/common.h ****     dst[2] = (uint8_t) w;
 198:libhydrogen\impl/common.h ****     w >>= 8;
 199:libhydrogen\impl/common.h ****     dst[1] = (uint8_t) w;
 200:libhydrogen\impl/common.h ****     w >>= 8;
 201:libhydrogen\impl/common.h ****     dst[0] = (uint8_t) w;
 202:libhydrogen\impl/common.h **** #endif
ARM GAS  C:\Users\CCPOW_~1\AppData\Local\Temp\ccQfR6ec.s 			page 5


 203:libhydrogen\impl/common.h **** }
 204:libhydrogen\impl/common.h **** 
 205:libhydrogen\impl/common.h **** #define LOAD32_BE(SRC) load32_be(SRC)
 206:libhydrogen\impl/common.h **** static inline uint32_t
 207:libhydrogen\impl/common.h **** load32_be(const uint8_t src[4])
 208:libhydrogen\impl/common.h **** {
 209:libhydrogen\impl/common.h **** #ifdef NATIVE_BIG_ENDIAN
 210:libhydrogen\impl/common.h ****     uint32_t w;
 211:libhydrogen\impl/common.h ****     memcpy(&w, src, sizeof w);
 212:libhydrogen\impl/common.h ****     return w;
 213:libhydrogen\impl/common.h **** #else
 214:libhydrogen\impl/common.h ****     uint32_t w = (uint32_t) src[3];
 215:libhydrogen\impl/common.h ****     w |= (uint32_t) src[2] << 8;
 216:libhydrogen\impl/common.h ****     w |= (uint32_t) src[1] << 16;
 217:libhydrogen\impl/common.h ****     w |= (uint32_t) src[0] << 24;
 218:libhydrogen\impl/common.h ****     return w;
 219:libhydrogen\impl/common.h **** #endif
 220:libhydrogen\impl/common.h **** }
 221:libhydrogen\impl/common.h **** 
 222:libhydrogen\impl/common.h **** #define STORE32_BE(DST, W) store32_be((DST), (W))
 223:libhydrogen\impl/common.h **** static inline void
 224:libhydrogen\impl/common.h **** store32_be(uint8_t dst[4], uint32_t w)
 225:libhydrogen\impl/common.h **** {
 226:libhydrogen\impl/common.h **** #ifdef NATIVE_BIG_ENDIAN
 227:libhydrogen\impl/common.h ****     memcpy(dst, &w, sizeof w);
 228:libhydrogen\impl/common.h **** #else
 229:libhydrogen\impl/common.h ****     dst[3] = (uint8_t) w;
 230:libhydrogen\impl/common.h ****     w >>= 8;
 231:libhydrogen\impl/common.h ****     dst[2] = (uint8_t) w;
 232:libhydrogen\impl/common.h ****     w >>= 8;
 233:libhydrogen\impl/common.h ****     dst[1] = (uint8_t) w;
 234:libhydrogen\impl/common.h ****     w >>= 8;
 235:libhydrogen\impl/common.h ****     dst[0] = (uint8_t) w;
 236:libhydrogen\impl/common.h **** #endif
 237:libhydrogen\impl/common.h **** }
 238:libhydrogen\impl/common.h **** 
 239:libhydrogen\impl/common.h **** #define LOAD16_BE(SRC) load16_be(SRC)
 240:libhydrogen\impl/common.h **** static inline uint16_t
 241:libhydrogen\impl/common.h **** load16_be(const uint8_t src[2])
 242:libhydrogen\impl/common.h **** {
 243:libhydrogen\impl/common.h **** #ifdef NATIVE_BIG_ENDIAN
 244:libhydrogen\impl/common.h ****     uint16_t w;
 245:libhydrogen\impl/common.h ****     memcpy(&w, src, sizeof w);
 246:libhydrogen\impl/common.h ****     return w;
 247:libhydrogen\impl/common.h **** #else
 248:libhydrogen\impl/common.h ****     uint16_t w = (uint16_t) src[1];
 249:libhydrogen\impl/common.h ****     w |= (uint16_t) src[0] << 8;
 250:libhydrogen\impl/common.h ****     return w;
 251:libhydrogen\impl/common.h **** #endif
 252:libhydrogen\impl/common.h **** }
 253:libhydrogen\impl/common.h **** 
 254:libhydrogen\impl/common.h **** #define STORE16_BE(DST, W) store16_be((DST), (W))
 255:libhydrogen\impl/common.h **** static inline void
 256:libhydrogen\impl/common.h **** store16_be(uint8_t dst[2], uint16_t w)
 257:libhydrogen\impl/common.h **** {
 258:libhydrogen\impl/common.h **** #ifdef NATIVE_BIG_ENDIAN
 259:libhydrogen\impl/common.h ****     memcpy(dst, &w, sizeof w);
ARM GAS  C:\Users\CCPOW_~1\AppData\Local\Temp\ccQfR6ec.s 			page 6


 260:libhydrogen\impl/common.h **** #else
 261:libhydrogen\impl/common.h ****     dst[1] = (uint8_t) w;
 262:libhydrogen\impl/common.h ****     w >>= 8;
 263:libhydrogen\impl/common.h ****     dst[0] = (uint8_t) w;
 264:libhydrogen\impl/common.h **** #endif
 265:libhydrogen\impl/common.h **** }
 266:libhydrogen\impl/common.h **** 
 267:libhydrogen\impl/common.h **** static inline void
 268:libhydrogen\impl/common.h **** mem_cpy(void *__restrict__ dst_, const void *__restrict__ src_, size_t n)
 269:libhydrogen\impl/common.h **** {
  27              		.loc 1 269 0
  28              		.cfi_startproc
  29              		@ args = 0, pretend = 0, frame = 0
  30              		@ frame_needed = 0, uses_anonymous_args = 0
  31              	.LVL0:
 270:libhydrogen\impl/common.h ****     unsigned char *      dst = (unsigned char *) dst_;
 271:libhydrogen\impl/common.h ****     const unsigned char *src = (const unsigned char *) src_;
 272:libhydrogen\impl/common.h ****     size_t               i;
 273:libhydrogen\impl/common.h **** 
 274:libhydrogen\impl/common.h ****     for (i = 0; i < n; i++) {
  32              		.loc 1 274 0
  33 0000 0023     		movs	r3, #0
 269:libhydrogen\impl/common.h ****     unsigned char *      dst = (unsigned char *) dst_;
  34              		.loc 1 269 0
  35 0002 10B5     		push	{r4, lr}
  36              		.cfi_def_cfa_offset 8
  37              		.cfi_offset 4, -8
  38              		.cfi_offset 14, -4
  39              	.LVL1:
  40              	.L2:
  41              		.loc 1 274 0 discriminator 1
  42 0004 9342     		cmp	r3, r2
  43 0006 03D0     		beq	.L5
 275:libhydrogen\impl/common.h ****         dst[i] = src[i];
  44              		.loc 1 275 0 discriminator 3
  45 0008 CC5C     		ldrb	r4, [r1, r3]
  46 000a C454     		strb	r4, [r0, r3]
 274:libhydrogen\impl/common.h ****         dst[i] = src[i];
  47              		.loc 1 274 0 discriminator 3
  48 000c 0133     		adds	r3, r3, #1
  49              	.LVL2:
  50 000e F9E7     		b	.L2
  51              	.L5:
 276:libhydrogen\impl/common.h ****     }
 277:libhydrogen\impl/common.h **** }
  52              		.loc 1 277 0
  53              		@ sp needed
  54 0010 10BD     		pop	{r4, pc}
  55              		.cfi_endproc
  56              	.LFE12:
  57              		.size	mem_cpy, .-mem_cpy
  58              		.section	.text.mem_zero,"ax",%progbits
  59              		.align	1
  60              		.code	16
  61              		.thumb_func
  62              		.type	mem_zero, %function
  63              	mem_zero:
ARM GAS  C:\Users\CCPOW_~1\AppData\Local\Temp\ccQfR6ec.s 			page 7


  64              	.LFB13:
 278:libhydrogen\impl/common.h **** 
 279:libhydrogen\impl/common.h **** static inline void
 280:libhydrogen\impl/common.h **** mem_zero(void *dst_, size_t n)
 281:libhydrogen\impl/common.h **** {
  65              		.loc 1 281 0
  66              		.cfi_startproc
  67              		@ args = 0, pretend = 0, frame = 0
  68              		@ frame_needed = 0, uses_anonymous_args = 0
  69              		@ link register save eliminated.
  70              	.LVL3:
 282:libhydrogen\impl/common.h ****     unsigned char *dst = (unsigned char *) dst_;
 283:libhydrogen\impl/common.h ****     size_t         i;
 284:libhydrogen\impl/common.h **** 
 285:libhydrogen\impl/common.h ****     for (i = 0; i < n; i++) {
 286:libhydrogen\impl/common.h ****         dst[i] = 0;
  71              		.loc 1 286 0
  72 0000 0023     		movs	r3, #0
  73 0002 4118     		adds	r1, r0, r1
  74              	.LVL4:
  75              	.L7:
 285:libhydrogen\impl/common.h ****         dst[i] = 0;
  76              		.loc 1 285 0 discriminator 1
  77 0004 8842     		cmp	r0, r1
  78 0006 02D0     		beq	.L9
  79              		.loc 1 286 0 discriminator 3
  80 0008 0370     		strb	r3, [r0]
  81              	.LVL5:
  82 000a 0130     		adds	r0, r0, #1
  83              	.LVL6:
  84 000c FAE7     		b	.L7
  85              	.L9:
 287:libhydrogen\impl/common.h ****     }
 288:libhydrogen\impl/common.h **** }
  86              		.loc 1 288 0
  87              		@ sp needed
  88 000e 7047     		bx	lr
  89              		.cfi_endproc
  90              	.LFE13:
  91              		.size	mem_zero, .-mem_zero
  92              		.section	.text.mem_xor,"ax",%progbits
  93              		.align	1
  94              		.code	16
  95              		.thumb_func
  96              		.type	mem_xor, %function
  97              	mem_xor:
  98              	.LFB14:
 289:libhydrogen\impl/common.h **** 
 290:libhydrogen\impl/common.h **** static inline void
 291:libhydrogen\impl/common.h **** mem_xor(void *__restrict__ dst_, const void *__restrict__ src_, size_t n)
 292:libhydrogen\impl/common.h **** {
  99              		.loc 1 292 0
 100              		.cfi_startproc
 101              		@ args = 0, pretend = 0, frame = 0
 102              		@ frame_needed = 0, uses_anonymous_args = 0
 103              	.LVL7:
 293:libhydrogen\impl/common.h ****     unsigned char *      dst = (unsigned char *) dst_;
ARM GAS  C:\Users\CCPOW_~1\AppData\Local\Temp\ccQfR6ec.s 			page 8


 294:libhydrogen\impl/common.h ****     const unsigned char *src = (const unsigned char *) src_;
 295:libhydrogen\impl/common.h ****     size_t               i;
 296:libhydrogen\impl/common.h **** 
 297:libhydrogen\impl/common.h ****     for (i = 0; i < n; i++) {
 104              		.loc 1 297 0
 105 0000 0023     		movs	r3, #0
 292:libhydrogen\impl/common.h ****     unsigned char *      dst = (unsigned char *) dst_;
 106              		.loc 1 292 0
 107 0002 30B5     		push	{r4, r5, lr}
 108              		.cfi_def_cfa_offset 12
 109              		.cfi_offset 4, -12
 110              		.cfi_offset 5, -8
 111              		.cfi_offset 14, -4
 112              	.LVL8:
 113              	.L11:
 114              		.loc 1 297 0 discriminator 1
 115 0004 9342     		cmp	r3, r2
 116 0006 05D0     		beq	.L13
 298:libhydrogen\impl/common.h ****         dst[i] ^= src[i];
 117              		.loc 1 298 0 discriminator 3
 118 0008 C55C     		ldrb	r5, [r0, r3]
 119 000a CC5C     		ldrb	r4, [r1, r3]
 120 000c 6C40     		eors	r4, r5
 121 000e C454     		strb	r4, [r0, r3]
 297:libhydrogen\impl/common.h ****         dst[i] ^= src[i];
 122              		.loc 1 297 0 discriminator 3
 123 0010 0133     		adds	r3, r3, #1
 124              	.LVL9:
 125 0012 F7E7     		b	.L11
 126              	.L13:
 299:libhydrogen\impl/common.h ****     }
 300:libhydrogen\impl/common.h **** }
 127              		.loc 1 300 0
 128              		@ sp needed
 129 0014 30BD     		pop	{r4, r5, pc}
 130              		.cfi_endproc
 131              	.LFE14:
 132              		.size	mem_xor, .-mem_xor
 133              		.section	.text.mem_xor2,"ax",%progbits
 134              		.align	1
 135              		.code	16
 136              		.thumb_func
 137              		.type	mem_xor2, %function
 138              	mem_xor2:
 139              	.LFB15:
 301:libhydrogen\impl/common.h **** 
 302:libhydrogen\impl/common.h **** static inline void
 303:libhydrogen\impl/common.h **** mem_xor2(void *__restrict__ dst_, const void *__restrict__ src1_, const void *__restrict__ src2_,
 304:libhydrogen\impl/common.h ****          size_t n)
 305:libhydrogen\impl/common.h **** {
 140              		.loc 1 305 0
 141              		.cfi_startproc
 142              		@ args = 0, pretend = 0, frame = 0
 143              		@ frame_needed = 0, uses_anonymous_args = 0
 144              	.LVL10:
 145 0000 70B5     		push	{r4, r5, r6, lr}
 146              		.cfi_def_cfa_offset 16
ARM GAS  C:\Users\CCPOW_~1\AppData\Local\Temp\ccQfR6ec.s 			page 9


 147              		.cfi_offset 4, -16
 148              		.cfi_offset 5, -12
 149              		.cfi_offset 6, -8
 150              		.cfi_offset 14, -4
 306:libhydrogen\impl/common.h ****     unsigned char *      dst  = (unsigned char *) dst_;
 307:libhydrogen\impl/common.h ****     const unsigned char *src1 = (const unsigned char *) src1_;
 308:libhydrogen\impl/common.h ****     const unsigned char *src2 = (const unsigned char *) src2_;
 309:libhydrogen\impl/common.h ****     size_t               i;
 310:libhydrogen\impl/common.h **** 
 311:libhydrogen\impl/common.h ****     for (i = 0; i < n; i++) {
 151              		.loc 1 311 0
 152 0002 0024     		movs	r4, #0
 153              	.LVL11:
 154              	.L15:
 155              		.loc 1 311 0 is_stmt 0 discriminator 1
 156 0004 9C42     		cmp	r4, r3
 157 0006 05D0     		beq	.L17
 312:libhydrogen\impl/common.h ****         dst[i] = src1[i] ^ src2[i];
 158              		.loc 1 312 0 is_stmt 1 discriminator 3
 159 0008 0E5D     		ldrb	r6, [r1, r4]
 160 000a 155D     		ldrb	r5, [r2, r4]
 161 000c 7540     		eors	r5, r6
 162 000e 0555     		strb	r5, [r0, r4]
 311:libhydrogen\impl/common.h ****         dst[i] = src1[i] ^ src2[i];
 163              		.loc 1 311 0 discriminator 3
 164 0010 0134     		adds	r4, r4, #1
 165              	.LVL12:
 166 0012 F7E7     		b	.L15
 167              	.L17:
 313:libhydrogen\impl/common.h ****     }
 314:libhydrogen\impl/common.h **** }
 168              		.loc 1 314 0
 169              		@ sp needed
 170              	.LVL13:
 171 0014 70BD     		pop	{r4, r5, r6, pc}
 172              		.cfi_endproc
 173              	.LFE15:
 174              		.size	mem_xor2, .-mem_xor2
 175              		.section	.text.gimli_core_u8,"ax",%progbits
 176              		.align	1
 177              		.code	16
 178              		.thumb_func
 179              		.type	gimli_core_u8, %function
 180              	gimli_core_u8:
 181              	.LFB29:
 182              		.file 2 "libhydrogen\\impl/gimli-core.h"
   1:libhydrogen\impl/gimli-core.h **** #ifdef __SSSE3__
   2:libhydrogen\impl/gimli-core.h **** # include "gimli-core/ssse3.h"
   3:libhydrogen\impl/gimli-core.h **** #else
   4:libhydrogen\impl/gimli-core.h **** # include "gimli-core/portable.h"
   5:libhydrogen\impl/gimli-core.h **** #endif
   6:libhydrogen\impl/gimli-core.h **** 
   7:libhydrogen\impl/gimli-core.h **** static void
   8:libhydrogen\impl/gimli-core.h **** gimli_core_u8(uint8_t state_u8[gimli_BLOCKBYTES], uint8_t tag)
   9:libhydrogen\impl/gimli-core.h **** {
 183              		.loc 2 9 0
 184              		.cfi_startproc
ARM GAS  C:\Users\CCPOW_~1\AppData\Local\Temp\ccQfR6ec.s 			page 10


 185              		@ args = 0, pretend = 0, frame = 8
 186              		@ frame_needed = 0, uses_anonymous_args = 0
 187              	.LVL14:
 188 0000 F7B5     		push	{r0, r1, r2, r4, r5, r6, r7, lr}
 189              		.cfi_def_cfa_offset 32
 190              		.cfi_offset 0, -32
 191              		.cfi_offset 1, -28
 192              		.cfi_offset 2, -24
 193              		.cfi_offset 4, -20
 194              		.cfi_offset 5, -16
 195              		.cfi_offset 6, -12
 196              		.cfi_offset 7, -8
 197              		.cfi_offset 14, -4
  10:libhydrogen\impl/gimli-core.h ****     state_u8[gimli_BLOCKBYTES - 1] ^= tag;
 198              		.loc 2 10 0
 199 0002 0200     		movs	r2, r0
 200 0004 2F32     		adds	r2, r2, #47
 201 0006 1378     		ldrb	r3, [r2]
 202 0008 1825     		movs	r5, #24
 203 000a 5940     		eors	r1, r3
 204              	.LVL15:
 205 000c 0300     		movs	r3, r0
 206 000e 1033     		adds	r3, r3, #16
 207 0010 0193     		str	r3, [sp, #4]
 208              	.LBB56:
 209              	.LBB57:
 210              		.file 3 "libhydrogen\\impl/gimli-core/portable.h"
   1:libhydrogen\impl/gimli-core/portable.h **** static void
   2:libhydrogen\impl/gimli-core/portable.h **** gimli_core(uint32_t state[gimli_BLOCKBYTES / 4])
   3:libhydrogen\impl/gimli-core/portable.h **** {
   4:libhydrogen\impl/gimli-core/portable.h ****     unsigned int round;
   5:libhydrogen\impl/gimli-core/portable.h ****     unsigned int column;
   6:libhydrogen\impl/gimli-core/portable.h ****     uint32_t     x;
   7:libhydrogen\impl/gimli-core/portable.h ****     uint32_t     y;
   8:libhydrogen\impl/gimli-core/portable.h ****     uint32_t     z;
   9:libhydrogen\impl/gimli-core/portable.h **** 
  10:libhydrogen\impl/gimli-core/portable.h ****     for (round = 24; round > 0; round--) {
  11:libhydrogen\impl/gimli-core/portable.h ****         for (column = 0; column < 4; column++) {
  12:libhydrogen\impl/gimli-core/portable.h ****             x = ROTL32(state[column], 24);
  13:libhydrogen\impl/gimli-core/portable.h ****             y = ROTL32(state[4 + column], 9);
  14:libhydrogen\impl/gimli-core/portable.h ****             z = state[8 + column];
  15:libhydrogen\impl/gimli-core/portable.h **** 
  16:libhydrogen\impl/gimli-core/portable.h ****             state[8 + column] = x ^ (z << 1) ^ ((y & z) << 2);
  17:libhydrogen\impl/gimli-core/portable.h ****             state[4 + column] = y ^ x ^ ((x | z) << 1);
  18:libhydrogen\impl/gimli-core/portable.h ****             state[column]     = z ^ y ^ ((x & y) << 3);
  19:libhydrogen\impl/gimli-core/portable.h ****         }
  20:libhydrogen\impl/gimli-core/portable.h ****         switch (round & 3) {
 211              		.loc 3 20 0
 212 0012 0323     		movs	r3, #3
 213 0014 9C46     		mov	ip, r3
 214              	.LBE57:
 215              	.LBE56:
 216              		.loc 2 10 0
 217 0016 1170     		strb	r1, [r2]
 218              	.LVL16:
 219              	.L19:
 220 0018 0200     		movs	r2, r0
ARM GAS  C:\Users\CCPOW_~1\AppData\Local\Temp\ccQfR6ec.s 			page 11


 221              	.LVL17:
 222              	.L20:
 223              	.LBB59:
 224              	.LBB58:
  12:libhydrogen\impl/gimli-core/portable.h ****             y = ROTL32(state[4 + column], 9);
 225              		.loc 3 12 0
 226 001a 0821     		movs	r1, #8
 227 001c 1368     		ldr	r3, [r2]
  13:libhydrogen\impl/gimli-core/portable.h ****             z = state[8 + column];
 228              		.loc 3 13 0
 229 001e 1469     		ldr	r4, [r2, #16]
  12:libhydrogen\impl/gimli-core/portable.h ****             y = ROTL32(state[4 + column], 9);
 230              		.loc 3 12 0
 231 0020 CB41     		rors	r3, r3, r1
 232              	.LVL18:
  13:libhydrogen\impl/gimli-core/portable.h ****             z = state[8 + column];
 233              		.loc 3 13 0
 234 0022 0F31     		adds	r1, r1, #15
 235 0024 CC41     		rors	r4, r4, r1
 236              	.LVL19:
  14:libhydrogen\impl/gimli-core/portable.h **** 
 237              		.loc 3 14 0
 238 0026 116A     		ldr	r1, [r2, #32]
 239              	.LVL20:
  16:libhydrogen\impl/gimli-core/portable.h ****             state[4 + column] = y ^ x ^ ((x | z) << 1);
 240              		.loc 3 16 0
 241 0028 0E00     		movs	r6, r1
 242 002a 4F00     		lsls	r7, r1, #1
 243 002c 2640     		ands	r6, r4
 244 002e 5F40     		eors	r7, r3
 245 0030 B600     		lsls	r6, r6, #2
 246 0032 7E40     		eors	r6, r7
  17:libhydrogen\impl/gimli-core/portable.h ****             state[column]     = z ^ y ^ ((x & y) << 3);
 247              		.loc 3 17 0
 248 0034 1F00     		movs	r7, r3
  16:libhydrogen\impl/gimli-core/portable.h ****             state[4 + column] = y ^ x ^ ((x | z) << 1);
 249              		.loc 3 16 0
 250 0036 1662     		str	r6, [r2, #32]
  17:libhydrogen\impl/gimli-core/portable.h ****             state[column]     = z ^ y ^ ((x & y) << 3);
 251              		.loc 3 17 0
 252 0038 1E00     		movs	r6, r3
 253 003a 0F43     		orrs	r7, r1
  18:libhydrogen\impl/gimli-core/portable.h ****         }
 254              		.loc 3 18 0
 255 003c 2340     		ands	r3, r4
 256              	.LVL21:
  17:libhydrogen\impl/gimli-core/portable.h ****             state[column]     = z ^ y ^ ((x & y) << 3);
 257              		.loc 3 17 0
 258 003e 7F00     		lsls	r7, r7, #1
 259 0040 6640     		eors	r6, r4
 260              	.LVL22:
  18:libhydrogen\impl/gimli-core/portable.h ****         }
 261              		.loc 3 18 0
 262 0042 DB00     		lsls	r3, r3, #3
 263 0044 6140     		eors	r1, r4
 264              	.LVL23:
 265 0046 4B40     		eors	r3, r1
ARM GAS  C:\Users\CCPOW_~1\AppData\Local\Temp\ccQfR6ec.s 			page 12


  17:libhydrogen\impl/gimli-core/portable.h ****             state[column]     = z ^ y ^ ((x & y) << 3);
 266              		.loc 3 17 0
 267 0048 7E40     		eors	r6, r7
 268 004a 1661     		str	r6, [r2, #16]
  18:libhydrogen\impl/gimli-core/portable.h ****         }
 269              		.loc 3 18 0
 270 004c 08C2     		stmia	r2!, {r3}
 271              	.LVL24:
  11:libhydrogen\impl/gimli-core/portable.h ****             x = ROTL32(state[column], 24);
 272              		.loc 3 11 0
 273 004e 019B     		ldr	r3, [sp, #4]
 274 0050 9342     		cmp	r3, r2
 275 0052 E2D1     		bne	.L20
 276              		.loc 3 20 0
 277 0054 6346     		mov	r3, ip
 278 0056 2B40     		ands	r3, r5
 279 0058 0AD0     		beq	.L22
 280 005a 022B     		cmp	r3, #2
 281 005c 13D1     		bne	.L21
  21:libhydrogen\impl/gimli-core/portable.h ****         case 0:
  22:libhydrogen\impl/gimli-core/portable.h ****             x        = state[0];
  23:libhydrogen\impl/gimli-core/portable.h ****             state[0] = state[1];
  24:libhydrogen\impl/gimli-core/portable.h ****             state[1] = x;
  25:libhydrogen\impl/gimli-core/portable.h ****             x        = state[2];
  26:libhydrogen\impl/gimli-core/portable.h ****             state[2] = state[3];
  27:libhydrogen\impl/gimli-core/portable.h ****             state[3] = x;
  28:libhydrogen\impl/gimli-core/portable.h ****             state[0] ^= ((uint32_t) 0x9e377900 | round);
  29:libhydrogen\impl/gimli-core/portable.h ****             break;
  30:libhydrogen\impl/gimli-core/portable.h ****         case 2:
  31:libhydrogen\impl/gimli-core/portable.h ****             x        = state[0];
 282              		.loc 3 31 0
 283 005e 0368     		ldr	r3, [r0]
 284              	.LVL25:
  32:libhydrogen\impl/gimli-core/portable.h ****             state[0] = state[2];
 285              		.loc 3 32 0
 286 0060 8268     		ldr	r2, [r0, #8]
  33:libhydrogen\impl/gimli-core/portable.h ****             state[2] = x;
 287              		.loc 3 33 0
 288 0062 8360     		str	r3, [r0, #8]
  32:libhydrogen\impl/gimli-core/portable.h ****             state[0] = state[2];
 289              		.loc 3 32 0
 290 0064 0260     		str	r2, [r0]
  34:libhydrogen\impl/gimli-core/portable.h ****             x        = state[1];
 291              		.loc 3 34 0
 292 0066 4368     		ldr	r3, [r0, #4]
 293              	.LVL26:
  35:libhydrogen\impl/gimli-core/portable.h ****             state[1] = state[3];
 294              		.loc 3 35 0
 295 0068 C268     		ldr	r2, [r0, #12]
  36:libhydrogen\impl/gimli-core/portable.h ****             state[3] = x;
 296              		.loc 3 36 0
 297 006a C360     		str	r3, [r0, #12]
  35:libhydrogen\impl/gimli-core/portable.h ****             state[1] = state[3];
 298              		.loc 3 35 0
 299 006c 4260     		str	r2, [r0, #4]
 300 006e 0AE0     		b	.L21
 301              	.LVL27:
ARM GAS  C:\Users\CCPOW_~1\AppData\Local\Temp\ccQfR6ec.s 			page 13


 302              	.L22:
  24:libhydrogen\impl/gimli-core/portable.h ****             x        = state[2];
 303              		.loc 3 24 0
 304 0070 0368     		ldr	r3, [r0]
  23:libhydrogen\impl/gimli-core/portable.h ****             state[1] = x;
 305              		.loc 3 23 0
 306 0072 4268     		ldr	r2, [r0, #4]
  24:libhydrogen\impl/gimli-core/portable.h ****             x        = state[2];
 307              		.loc 3 24 0
 308 0074 4360     		str	r3, [r0, #4]
  25:libhydrogen\impl/gimli-core/portable.h ****             state[2] = state[3];
 309              		.loc 3 25 0
 310 0076 8368     		ldr	r3, [r0, #8]
 311              	.LVL28:
  26:libhydrogen\impl/gimli-core/portable.h ****             state[3] = x;
 312              		.loc 3 26 0
 313 0078 C168     		ldr	r1, [r0, #12]
  27:libhydrogen\impl/gimli-core/portable.h ****             state[0] ^= ((uint32_t) 0x9e377900 | round);
 314              		.loc 3 27 0
 315 007a C360     		str	r3, [r0, #12]
  28:libhydrogen\impl/gimli-core/portable.h ****             break;
 316              		.loc 3 28 0
 317 007c 044B     		ldr	r3, .L26
 318              	.LVL29:
  26:libhydrogen\impl/gimli-core/portable.h ****             state[3] = x;
 319              		.loc 3 26 0
 320 007e 8160     		str	r1, [r0, #8]
 321              	.LVL30:
  28:libhydrogen\impl/gimli-core/portable.h ****             break;
 322              		.loc 3 28 0
 323 0080 2B43     		orrs	r3, r5
 324 0082 5340     		eors	r3, r2
 325 0084 0360     		str	r3, [r0]
 326              	.LVL31:
 327              	.L21:
 328 0086 013D     		subs	r5, r5, #1
 329              	.LVL32:
  10:libhydrogen\impl/gimli-core/portable.h ****         for (column = 0; column < 4; column++) {
 330              		.loc 3 10 0
 331 0088 002D     		cmp	r5, #0
 332 008a C5D1     		bne	.L19
 333              	.LBE58:
 334              	.LBE59:
  11:libhydrogen\impl/gimli-core.h **** #ifndef NATIVE_LITTLE_ENDIAN
  12:libhydrogen\impl/gimli-core.h ****     uint32_t state_u32[12];
  13:libhydrogen\impl/gimli-core.h ****     int      i;
  14:libhydrogen\impl/gimli-core.h **** 
  15:libhydrogen\impl/gimli-core.h ****     for (i = 0; i < 12; i++) {
  16:libhydrogen\impl/gimli-core.h ****         state_u32[i] = LOAD32_LE(&state_u8[i * 4]);
  17:libhydrogen\impl/gimli-core.h ****     }
  18:libhydrogen\impl/gimli-core.h ****     gimli_core(state_u32);
  19:libhydrogen\impl/gimli-core.h ****     for (i = 0; i < 12; i++) {
  20:libhydrogen\impl/gimli-core.h ****         STORE32_LE(&state_u8[i * 4], state_u32[i]);
  21:libhydrogen\impl/gimli-core.h ****     }
  22:libhydrogen\impl/gimli-core.h **** #else
  23:libhydrogen\impl/gimli-core.h ****     gimli_core((uint32_t *) (void *) state_u8); /* state_u8 must be properly aligned */
  24:libhydrogen\impl/gimli-core.h **** #endif
ARM GAS  C:\Users\CCPOW_~1\AppData\Local\Temp\ccQfR6ec.s 			page 14


  25:libhydrogen\impl/gimli-core.h **** }
 335              		.loc 2 25 0
 336              		@ sp needed
 337              	.LVL33:
 338              	.LVL34:
 339 008c F7BD     		pop	{r0, r1, r2, r4, r5, r6, r7, pc}
 340              	.L27:
 341 008e C046     		.align	2
 342              	.L26:
 343 0090 0079379E 		.word	-1640531712
 344              		.cfi_endproc
 345              	.LFE29:
 346              		.size	gimli_core_u8, .-gimli_core_u8
 347              		.section	.text.hydro_secretbox_finalize,"ax",%progbits
 348              		.align	1
 349              		.code	16
 350              		.thumb_func
 351              		.type	hydro_secretbox_finalize, %function
 352              	hydro_secretbox_finalize:
 353              	.LFB51:
 354              		.file 4 "libhydrogen\\impl/secretbox.h"
   1:libhydrogen\impl/secretbox.h **** #define hydro_secretbox_IVBYTES 20
   2:libhydrogen\impl/secretbox.h **** #define hydro_secretbox_SIVBYTES 20
   3:libhydrogen\impl/secretbox.h **** #define hydro_secretbox_MACBYTES 16
   4:libhydrogen\impl/secretbox.h **** 
   5:libhydrogen\impl/secretbox.h **** void
   6:libhydrogen\impl/secretbox.h **** hydro_secretbox_keygen(uint8_t key[hydro_secretbox_KEYBYTES])
   7:libhydrogen\impl/secretbox.h **** {
   8:libhydrogen\impl/secretbox.h ****     hydro_random_buf(key, hydro_secretbox_KEYBYTES);
   9:libhydrogen\impl/secretbox.h **** }
  10:libhydrogen\impl/secretbox.h **** 
  11:libhydrogen\impl/secretbox.h **** static void
  12:libhydrogen\impl/secretbox.h **** hydro_secretbox_xor_enc(uint8_t buf[gimli_BLOCKBYTES], uint8_t *out, const uint8_t *in,
  13:libhydrogen\impl/secretbox.h ****                         size_t inlen)
  14:libhydrogen\impl/secretbox.h **** {
  15:libhydrogen\impl/secretbox.h ****     size_t i;
  16:libhydrogen\impl/secretbox.h ****     size_t leftover;
  17:libhydrogen\impl/secretbox.h **** 
  18:libhydrogen\impl/secretbox.h ****     for (i = 0; i < inlen / gimli_RATE; i++) {
  19:libhydrogen\impl/secretbox.h ****         mem_xor2(&out[i * gimli_RATE], &in[i * gimli_RATE], buf, gimli_RATE);
  20:libhydrogen\impl/secretbox.h ****         memcpy(buf, &out[i * gimli_RATE], gimli_RATE);
  21:libhydrogen\impl/secretbox.h ****         gimli_core_u8(buf, gimli_TAG_PAYLOAD);
  22:libhydrogen\impl/secretbox.h ****     }
  23:libhydrogen\impl/secretbox.h ****     leftover = inlen % gimli_RATE;
  24:libhydrogen\impl/secretbox.h ****     if (leftover != 0) {
  25:libhydrogen\impl/secretbox.h ****         mem_xor2(&out[i * gimli_RATE], &in[i * gimli_RATE], buf, leftover);
  26:libhydrogen\impl/secretbox.h ****         mem_cpy(buf, &out[i * gimli_RATE], leftover);
  27:libhydrogen\impl/secretbox.h ****     }
  28:libhydrogen\impl/secretbox.h ****     gimli_pad_u8(buf, leftover, gimli_DOMAIN_AEAD);
  29:libhydrogen\impl/secretbox.h ****     gimli_core_u8(buf, gimli_TAG_PAYLOAD);
  30:libhydrogen\impl/secretbox.h **** }
  31:libhydrogen\impl/secretbox.h **** 
  32:libhydrogen\impl/secretbox.h **** static void
  33:libhydrogen\impl/secretbox.h **** hydro_secretbox_xor_dec(uint8_t buf[gimli_BLOCKBYTES], uint8_t *out, const uint8_t *in,
  34:libhydrogen\impl/secretbox.h ****                         size_t inlen)
  35:libhydrogen\impl/secretbox.h **** {
  36:libhydrogen\impl/secretbox.h ****     size_t i;
ARM GAS  C:\Users\CCPOW_~1\AppData\Local\Temp\ccQfR6ec.s 			page 15


  37:libhydrogen\impl/secretbox.h ****     size_t leftover;
  38:libhydrogen\impl/secretbox.h **** 
  39:libhydrogen\impl/secretbox.h ****     for (i = 0; i < inlen / gimli_RATE; i++) {
  40:libhydrogen\impl/secretbox.h ****         mem_xor2(&out[i * gimli_RATE], &in[i * gimli_RATE], buf, gimli_RATE);
  41:libhydrogen\impl/secretbox.h ****         memcpy(buf, &in[i * gimli_RATE], gimli_RATE);
  42:libhydrogen\impl/secretbox.h ****         gimli_core_u8(buf, gimli_TAG_PAYLOAD);
  43:libhydrogen\impl/secretbox.h ****     }
  44:libhydrogen\impl/secretbox.h ****     leftover = inlen % gimli_RATE;
  45:libhydrogen\impl/secretbox.h ****     if (leftover != 0) {
  46:libhydrogen\impl/secretbox.h ****         mem_xor2(&out[i * gimli_RATE], &in[i * gimli_RATE], buf, leftover);
  47:libhydrogen\impl/secretbox.h ****         mem_cpy(buf, &in[i * gimli_RATE], leftover);
  48:libhydrogen\impl/secretbox.h ****     }
  49:libhydrogen\impl/secretbox.h ****     gimli_pad_u8(buf, leftover, gimli_DOMAIN_AEAD);
  50:libhydrogen\impl/secretbox.h ****     gimli_core_u8(buf, gimli_TAG_PAYLOAD);
  51:libhydrogen\impl/secretbox.h **** }
  52:libhydrogen\impl/secretbox.h **** 
  53:libhydrogen\impl/secretbox.h **** static void
  54:libhydrogen\impl/secretbox.h **** hydro_secretbox_setup(uint8_t buf[gimli_BLOCKBYTES], uint64_t msg_id,
  55:libhydrogen\impl/secretbox.h ****                       const char    ctx[hydro_secretbox_CONTEXTBYTES],
  56:libhydrogen\impl/secretbox.h ****                       const uint8_t key[hydro_secretbox_KEYBYTES],
  57:libhydrogen\impl/secretbox.h ****                       const uint8_t iv[hydro_secretbox_IVBYTES], uint8_t key_tag)
  58:libhydrogen\impl/secretbox.h **** {
  59:libhydrogen\impl/secretbox.h ****     static const uint8_t prefix[] = { 6, 's', 'b', 'x', '2', '5', '6', 8 };
  60:libhydrogen\impl/secretbox.h ****     uint8_t              msg_id_le[8];
  61:libhydrogen\impl/secretbox.h **** 
  62:libhydrogen\impl/secretbox.h ****     mem_zero(buf, gimli_BLOCKBYTES);
  63:libhydrogen\impl/secretbox.h ****     COMPILER_ASSERT(hydro_secretbox_CONTEXTBYTES == 8);
  64:libhydrogen\impl/secretbox.h ****     COMPILER_ASSERT(sizeof prefix + hydro_secretbox_CONTEXTBYTES <= gimli_RATE);
  65:libhydrogen\impl/secretbox.h ****     memcpy(buf, prefix, sizeof prefix);
  66:libhydrogen\impl/secretbox.h ****     memcpy(buf + sizeof prefix, ctx, hydro_secretbox_CONTEXTBYTES);
  67:libhydrogen\impl/secretbox.h ****     COMPILER_ASSERT(sizeof prefix + hydro_secretbox_CONTEXTBYTES == gimli_RATE);
  68:libhydrogen\impl/secretbox.h ****     gimli_core_u8(buf, gimli_TAG_HEADER);
  69:libhydrogen\impl/secretbox.h **** 
  70:libhydrogen\impl/secretbox.h ****     COMPILER_ASSERT(hydro_secretbox_KEYBYTES == 2 * gimli_RATE);
  71:libhydrogen\impl/secretbox.h ****     mem_xor(buf, key, gimli_RATE);
  72:libhydrogen\impl/secretbox.h ****     gimli_core_u8(buf, key_tag);
  73:libhydrogen\impl/secretbox.h ****     mem_xor(buf, key + gimli_RATE, gimli_RATE);
  74:libhydrogen\impl/secretbox.h ****     gimli_core_u8(buf, key_tag);
  75:libhydrogen\impl/secretbox.h **** 
  76:libhydrogen\impl/secretbox.h ****     COMPILER_ASSERT(hydro_secretbox_IVBYTES < gimli_RATE * 2);
  77:libhydrogen\impl/secretbox.h ****     buf[0] ^= hydro_secretbox_IVBYTES;
  78:libhydrogen\impl/secretbox.h ****     mem_xor(&buf[1], iv, gimli_RATE - 1);
  79:libhydrogen\impl/secretbox.h ****     gimli_core_u8(buf, gimli_TAG_HEADER);
  80:libhydrogen\impl/secretbox.h ****     mem_xor(buf, iv + gimli_RATE - 1, hydro_secretbox_IVBYTES - (gimli_RATE - 1));
  81:libhydrogen\impl/secretbox.h ****     STORE64_LE(msg_id_le, msg_id);
  82:libhydrogen\impl/secretbox.h ****     COMPILER_ASSERT(hydro_secretbox_IVBYTES - gimli_RATE + 8 <= gimli_RATE);
  83:libhydrogen\impl/secretbox.h ****     mem_xor(buf + hydro_secretbox_IVBYTES - gimli_RATE, msg_id_le, 8);
  84:libhydrogen\impl/secretbox.h ****     gimli_core_u8(buf, gimli_TAG_HEADER);
  85:libhydrogen\impl/secretbox.h **** }
  86:libhydrogen\impl/secretbox.h **** 
  87:libhydrogen\impl/secretbox.h **** static void
  88:libhydrogen\impl/secretbox.h **** hydro_secretbox_finalize(uint8_t *buf, const uint8_t key[hydro_secretbox_KEYBYTES], uint8_t tag)
  89:libhydrogen\impl/secretbox.h **** {
 355              		.loc 4 89 0
 356              		.cfi_startproc
 357              		@ args = 0, pretend = 0, frame = 0
 358              		@ frame_needed = 0, uses_anonymous_args = 0
ARM GAS  C:\Users\CCPOW_~1\AppData\Local\Temp\ccQfR6ec.s 			page 16


 359              	.LVL35:
 360 0000 F8B5     		push	{r3, r4, r5, r6, r7, lr}
 361              		.cfi_def_cfa_offset 24
 362              		.cfi_offset 3, -24
 363              		.cfi_offset 4, -20
 364              		.cfi_offset 5, -16
 365              		.cfi_offset 6, -12
 366              		.cfi_offset 7, -8
 367              		.cfi_offset 14, -4
  90:libhydrogen\impl/secretbox.h ****     COMPILER_ASSERT(hydro_secretbox_KEYBYTES == gimli_CAPACITY);
  91:libhydrogen\impl/secretbox.h ****     mem_xor(buf + gimli_RATE, key, hydro_secretbox_KEYBYTES);
 368              		.loc 4 91 0
 369 0002 0600     		movs	r6, r0
  89:libhydrogen\impl/secretbox.h ****     COMPILER_ASSERT(hydro_secretbox_KEYBYTES == gimli_CAPACITY);
 370              		.loc 4 89 0
 371 0004 1500     		movs	r5, r2
 372 0006 0400     		movs	r4, r0
 373 0008 0F00     		movs	r7, r1
 374              		.loc 4 91 0
 375 000a 1036     		adds	r6, r6, #16
 376 000c 3000     		movs	r0, r6
 377              	.LVL36:
 378 000e 2022     		movs	r2, #32
 379              	.LVL37:
 380 0010 FFF7FEFF 		bl	mem_xor
 381              	.LVL38:
  92:libhydrogen\impl/secretbox.h ****     gimli_core_u8(buf, tag);
 382              		.loc 4 92 0
 383 0014 2900     		movs	r1, r5
 384 0016 2000     		movs	r0, r4
 385 0018 FFF7FEFF 		bl	gimli_core_u8
 386              	.LVL39:
  93:libhydrogen\impl/secretbox.h ****     mem_xor(buf + gimli_RATE, key, hydro_secretbox_KEYBYTES);
 387              		.loc 4 93 0
 388 001c 3900     		movs	r1, r7
 389 001e 3000     		movs	r0, r6
 390 0020 2022     		movs	r2, #32
 391 0022 FFF7FEFF 		bl	mem_xor
 392              	.LVL40:
  94:libhydrogen\impl/secretbox.h ****     gimli_core_u8(buf, tag);
 393              		.loc 4 94 0
 394 0026 2900     		movs	r1, r5
 395 0028 2000     		movs	r0, r4
 396 002a FFF7FEFF 		bl	gimli_core_u8
 397              	.LVL41:
  95:libhydrogen\impl/secretbox.h **** }
 398              		.loc 4 95 0
 399              		@ sp needed
 400              	.LVL42:
 401              	.LVL43:
 402              	.LVL44:
 403 002e F8BD     		pop	{r3, r4, r5, r6, r7, pc}
 404              		.cfi_endproc
 405              	.LFE51:
 406              		.size	hydro_secretbox_finalize, .-hydro_secretbox_finalize
 407              		.section	.text.hydro_x25519_propagate,"ax",%progbits
 408              		.align	1
ARM GAS  C:\Users\CCPOW_~1\AppData\Local\Temp\ccQfR6ec.s 			page 17


 409              		.code	16
 410              		.thumb_func
 411              		.type	hydro_x25519_propagate, %function
 412              	hydro_x25519_propagate:
 413              	.LFB60:
 414              		.file 5 "libhydrogen\\impl/x25519.h"
   1:libhydrogen\impl/x25519.h **** /*
   2:libhydrogen\impl/x25519.h ****  * Based on Michael Hamburg's STROBE reference implementation.
   3:libhydrogen\impl/x25519.h ****  * Copyright (c) 2015-2016 Cryptography Research, Inc.
   4:libhydrogen\impl/x25519.h ****  * MIT License (MIT)
   5:libhydrogen\impl/x25519.h ****  */
   6:libhydrogen\impl/x25519.h **** 
   7:libhydrogen\impl/x25519.h **** #if defined(__GNUC__) && defined(__SIZEOF_INT128__)
   8:libhydrogen\impl/x25519.h **** # define hydro_x25519_WBITS 64
   9:libhydrogen\impl/x25519.h **** #else
  10:libhydrogen\impl/x25519.h **** # define hydro_x25519_WBITS 32
  11:libhydrogen\impl/x25519.h **** #endif
  12:libhydrogen\impl/x25519.h **** 
  13:libhydrogen\impl/x25519.h **** #if hydro_x25519_WBITS == 64
  14:libhydrogen\impl/x25519.h **** typedef uint64_t    hydro_x25519_limb_t;
  15:libhydrogen\impl/x25519.h **** typedef __uint128_t hydro_x25519_dlimb_t;
  16:libhydrogen\impl/x25519.h **** typedef __int128_t  hydro_x25519_sdlimb_t;
  17:libhydrogen\impl/x25519.h **** # define hydro_x25519_eswap_limb(X) LOAD64_LE((const uint8_t *) &(X))
  18:libhydrogen\impl/x25519.h **** # define hydro_x25519_LIMB(x) x##ull
  19:libhydrogen\impl/x25519.h **** #elif hydro_x25519_WBITS == 32
  20:libhydrogen\impl/x25519.h **** typedef uint32_t hydro_x25519_limb_t;
  21:libhydrogen\impl/x25519.h **** typedef uint64_t hydro_x25519_dlimb_t;
  22:libhydrogen\impl/x25519.h **** typedef int64_t  hydro_x25519_sdlimb_t;
  23:libhydrogen\impl/x25519.h **** # define hydro_x25519_eswap_limb(X) LOAD32_LE((const uint8_t *) &(X))
  24:libhydrogen\impl/x25519.h **** # define hydro_x25519_LIMB(x) (uint32_t)(x##ull), (uint32_t)((x##ull) >> 32)
  25:libhydrogen\impl/x25519.h **** #else
  26:libhydrogen\impl/x25519.h **** # error "Need to know hydro_x25519_WBITS"
  27:libhydrogen\impl/x25519.h **** #endif
  28:libhydrogen\impl/x25519.h **** 
  29:libhydrogen\impl/x25519.h **** #define hydro_x25519_NLIMBS (256 / hydro_x25519_WBITS)
  30:libhydrogen\impl/x25519.h **** typedef hydro_x25519_limb_t hydro_x25519_fe[hydro_x25519_NLIMBS];
  31:libhydrogen\impl/x25519.h **** 
  32:libhydrogen\impl/x25519.h **** typedef hydro_x25519_limb_t hydro_x25519_scalar_t[hydro_x25519_NLIMBS];
  33:libhydrogen\impl/x25519.h **** 
  34:libhydrogen\impl/x25519.h **** static const hydro_x25519_limb_t hydro_x25519_MONTGOMERY_FACTOR =
  35:libhydrogen\impl/x25519.h ****     (hydro_x25519_limb_t) 0xd2b51da312547e1bull;
  36:libhydrogen\impl/x25519.h **** 
  37:libhydrogen\impl/x25519.h **** static const hydro_x25519_scalar_t hydro_x25519_sc_p = { hydro_x25519_LIMB(0x5812631a5cf5d3ed),
  38:libhydrogen\impl/x25519.h ****                                                          hydro_x25519_LIMB(0x14def9dea2f79cd6),
  39:libhydrogen\impl/x25519.h ****                                                          hydro_x25519_LIMB(0x0000000000000000),
  40:libhydrogen\impl/x25519.h ****                                                          hydro_x25519_LIMB(0x1000000000000000) };
  41:libhydrogen\impl/x25519.h **** 
  42:libhydrogen\impl/x25519.h **** static const hydro_x25519_scalar_t hydro_x25519_sc_r2 = { hydro_x25519_LIMB(0xa40611e3449c0f01),
  43:libhydrogen\impl/x25519.h ****                                                           hydro_x25519_LIMB(0xd00e1ba768859347),
  44:libhydrogen\impl/x25519.h ****                                                           hydro_x25519_LIMB(0xceec73d217f5be65),
  45:libhydrogen\impl/x25519.h ****                                                           hydro_x25519_LIMB(0x0399411b7c309a3d) };
  46:libhydrogen\impl/x25519.h **** 
  47:libhydrogen\impl/x25519.h **** static const uint8_t hydro_x25519_BASE_POINT[hydro_x25519_BYTES] = { 9 };
  48:libhydrogen\impl/x25519.h **** 
  49:libhydrogen\impl/x25519.h **** static const hydro_x25519_limb_t hydro_x25519_a24[1] = { 121665 };
  50:libhydrogen\impl/x25519.h **** 
  51:libhydrogen\impl/x25519.h **** static inline hydro_x25519_limb_t
ARM GAS  C:\Users\CCPOW_~1\AppData\Local\Temp\ccQfR6ec.s 			page 18


  52:libhydrogen\impl/x25519.h **** hydro_x25519_umaal(hydro_x25519_limb_t *carry, hydro_x25519_limb_t acc, hydro_x25519_limb_t mand,
  53:libhydrogen\impl/x25519.h ****                    hydro_x25519_limb_t mier)
  54:libhydrogen\impl/x25519.h **** {
  55:libhydrogen\impl/x25519.h ****     hydro_x25519_dlimb_t tmp = (hydro_x25519_dlimb_t) mand * mier + acc + *carry;
  56:libhydrogen\impl/x25519.h **** 
  57:libhydrogen\impl/x25519.h ****     *carry = tmp >> hydro_x25519_WBITS;
  58:libhydrogen\impl/x25519.h ****     return (hydro_x25519_limb_t) tmp;
  59:libhydrogen\impl/x25519.h **** }
  60:libhydrogen\impl/x25519.h **** 
  61:libhydrogen\impl/x25519.h **** static inline hydro_x25519_limb_t
  62:libhydrogen\impl/x25519.h **** hydro_x25519_adc(hydro_x25519_limb_t *carry, hydro_x25519_limb_t acc, hydro_x25519_limb_t mand)
  63:libhydrogen\impl/x25519.h **** {
  64:libhydrogen\impl/x25519.h ****     hydro_x25519_dlimb_t total = (hydro_x25519_dlimb_t) *carry + acc + mand;
  65:libhydrogen\impl/x25519.h **** 
  66:libhydrogen\impl/x25519.h ****     *carry = total >> hydro_x25519_WBITS;
  67:libhydrogen\impl/x25519.h ****     return (hydro_x25519_limb_t) total;
  68:libhydrogen\impl/x25519.h **** }
  69:libhydrogen\impl/x25519.h **** 
  70:libhydrogen\impl/x25519.h **** static inline hydro_x25519_limb_t
  71:libhydrogen\impl/x25519.h **** hydro_x25519_adc0(hydro_x25519_limb_t *carry, hydro_x25519_limb_t acc)
  72:libhydrogen\impl/x25519.h **** {
  73:libhydrogen\impl/x25519.h ****     hydro_x25519_dlimb_t total = (hydro_x25519_dlimb_t) *carry + acc;
  74:libhydrogen\impl/x25519.h **** 
  75:libhydrogen\impl/x25519.h ****     *carry = total >> hydro_x25519_WBITS;
  76:libhydrogen\impl/x25519.h ****     return (hydro_x25519_limb_t) total;
  77:libhydrogen\impl/x25519.h **** }
  78:libhydrogen\impl/x25519.h **** 
  79:libhydrogen\impl/x25519.h **** static void
  80:libhydrogen\impl/x25519.h **** hydro_x25519_propagate(hydro_x25519_fe x, hydro_x25519_limb_t over)
  81:libhydrogen\impl/x25519.h **** {
 415              		.loc 5 81 0
 416              		.cfi_startproc
 417              		@ args = 0, pretend = 0, frame = 8
 418              		@ frame_needed = 0, uses_anonymous_args = 0
 419              	.LVL45:
 420 0000 F7B5     		push	{r0, r1, r2, r4, r5, r6, r7, lr}
 421              		.cfi_def_cfa_offset 32
 422              		.cfi_offset 0, -32
 423              		.cfi_offset 1, -28
 424              		.cfi_offset 2, -24
 425              		.cfi_offset 4, -20
 426              		.cfi_offset 5, -16
 427              		.cfi_offset 6, -12
 428              		.cfi_offset 7, -8
 429              		.cfi_offset 14, -4
  82:libhydrogen\impl/x25519.h ****     hydro_x25519_limb_t carry;
  83:libhydrogen\impl/x25519.h ****     int                 i;
  84:libhydrogen\impl/x25519.h **** 
  85:libhydrogen\impl/x25519.h ****     over = x[hydro_x25519_NLIMBS - 1] >> (hydro_x25519_WBITS - 1) | over << 1;
 430              		.loc 5 85 0
 431 0002 C669     		ldr	r6, [r0, #28]
 432 0004 4900     		lsls	r1, r1, #1
 433              	.LVL46:
  86:libhydrogen\impl/x25519.h ****     x[hydro_x25519_NLIMBS - 1] &= ~((hydro_x25519_limb_t) 1 << (hydro_x25519_WBITS - 1));
 434              		.loc 5 86 0
 435 0006 7700     		lsls	r7, r6, #1
  87:libhydrogen\impl/x25519.h ****     carry = over * 19;
ARM GAS  C:\Users\CCPOW_~1\AppData\Local\Temp\ccQfR6ec.s 			page 19


 436              		.loc 5 87 0
 437 0008 F60F     		lsrs	r6, r6, #31
 438              	.LVL47:
 439 000a 0E43     		orrs	r6, r1
 440              	.LVL48:
 441 000c 1321     		movs	r1, #19
 442 000e 7143     		muls	r1, r6
 443              	.LVL49:
 444 0010 2026     		movs	r6, #32
 445              	.LVL50:
 446 0012 B446     		mov	ip, r6
  86:libhydrogen\impl/x25519.h ****     x[hydro_x25519_NLIMBS - 1] &= ~((hydro_x25519_limb_t) 1 << (hydro_x25519_WBITS - 1));
 447              		.loc 5 86 0
 448 0014 7F08     		lsrs	r7, r7, #1
 449 0016 C761     		str	r7, [r0, #28]
 450              	.LVL51:
 451 0018 8444     		add	ip, ip, r0
 452              	.LVL52:
 453              	.L30:
 454              	.LBB60:
 455              	.LBB61:
  75:libhydrogen\impl/x25519.h ****     return (hydro_x25519_limb_t) total;
 456              		.loc 5 75 0 discriminator 3
 457 001a 0023     		movs	r3, #0
 458 001c 0E00     		movs	r6, r1
 459 001e 1D00     		movs	r5, r3
 460 0020 1F00     		movs	r7, r3
 461 0022 0468     		ldr	r4, [r0]
 462 0024 3619     		adds	r6, r6, r4
 463 0026 6F41     		adcs	r7, r7, r5
 464              	.LBE61:
 465              	.LBE60:
  88:libhydrogen\impl/x25519.h ****     for (i = 0; i < hydro_x25519_NLIMBS; i++) {
  89:libhydrogen\impl/x25519.h ****         x[i] = hydro_x25519_adc0(&carry, x[i]);
 466              		.loc 5 89 0 discriminator 3
 467 0028 6118     		adds	r1, r4, r1
 468              	.LVL53:
 469              	.LBB64:
 470              	.LBB62:
  75:libhydrogen\impl/x25519.h ****     return (hydro_x25519_limb_t) total;
 471              		.loc 5 75 0 discriminator 3
 472 002a 0096     		str	r6, [sp]
 473 002c 0197     		str	r7, [sp, #4]
 474              	.LVL54:
 475              	.LBE62:
 476              	.LBE64:
 477              		.loc 5 89 0 discriminator 3
 478 002e 02C0     		stmia	r0!, {r1}
 479              	.LBB65:
 480              	.LBB63:
  75:libhydrogen\impl/x25519.h ****     return (hydro_x25519_limb_t) total;
 481              		.loc 5 75 0 discriminator 3
 482 0030 0199     		ldr	r1, [sp, #4]
 483              	.LBE63:
 484              	.LBE65:
  88:libhydrogen\impl/x25519.h ****     for (i = 0; i < hydro_x25519_NLIMBS; i++) {
 485              		.loc 5 88 0 discriminator 3
ARM GAS  C:\Users\CCPOW_~1\AppData\Local\Temp\ccQfR6ec.s 			page 20


 486 0032 8445     		cmp	ip, r0
 487 0034 F1D1     		bne	.L30
  90:libhydrogen\impl/x25519.h ****     }
  91:libhydrogen\impl/x25519.h **** }
 488              		.loc 5 91 0
 489              		@ sp needed
 490 0036 F7BD     		pop	{r0, r1, r2, r4, r5, r6, r7, pc}
 491              		.cfi_endproc
 492              	.LFE60:
 493              		.size	hydro_x25519_propagate, .-hydro_x25519_propagate
 494              		.section	.text.hydro_x25519_add,"ax",%progbits
 495              		.align	1
 496              		.code	16
 497              		.thumb_func
 498              		.type	hydro_x25519_add, %function
 499              	hydro_x25519_add:
 500              	.LFB61:
  92:libhydrogen\impl/x25519.h **** 
  93:libhydrogen\impl/x25519.h **** static void
  94:libhydrogen\impl/x25519.h **** hydro_x25519_add(hydro_x25519_fe out, const hydro_x25519_fe a, const hydro_x25519_fe b)
  95:libhydrogen\impl/x25519.h **** {
 501              		.loc 5 95 0
 502              		.cfi_startproc
 503              		@ args = 0, pretend = 0, frame = 24
 504              		@ frame_needed = 0, uses_anonymous_args = 0
 505              	.LVL55:
 506 0000 0023     		movs	r3, #0
  96:libhydrogen\impl/x25519.h ****     hydro_x25519_limb_t carry = 0;
 507              		.loc 5 96 0
 508 0002 9C46     		mov	ip, r3
  95:libhydrogen\impl/x25519.h ****     hydro_x25519_limb_t carry = 0;
 509              		.loc 5 95 0
 510 0004 F0B5     		push	{r4, r5, r6, r7, lr}
 511              		.cfi_def_cfa_offset 20
 512              		.cfi_offset 4, -20
 513              		.cfi_offset 5, -16
 514              		.cfi_offset 6, -12
 515              		.cfi_offset 7, -8
 516              		.cfi_offset 14, -4
 517 0006 87B0     		sub	sp, sp, #28
 518              		.cfi_def_cfa_offset 48
  95:libhydrogen\impl/x25519.h ****     hydro_x25519_limb_t carry = 0;
 519              		.loc 5 95 0
 520 0008 0491     		str	r1, [sp, #16]
 521 000a 0592     		str	r2, [sp, #20]
 522              	.LVL56:
 523              	.L33:
 524              	.LBB66:
 525              	.LBB67:
  64:libhydrogen\impl/x25519.h **** 
 526              		.loc 5 64 0 discriminator 3
 527 000c 0027     		movs	r7, #0
 528 000e 049A     		ldr	r2, [sp, #16]
 529 0010 0197     		str	r7, [sp, #4]
 530 0012 D658     		ldr	r6, [r2, r3]
 531 0014 059A     		ldr	r2, [sp, #20]
 532 0016 0397     		str	r7, [sp, #12]
ARM GAS  C:\Users\CCPOW_~1\AppData\Local\Temp\ccQfR6ec.s 			page 21


 533 0018 D258     		ldr	r2, [r2, r3]
 534 001a 0092     		str	r2, [sp]
 535 001c 6246     		mov	r2, ip
 536 001e 009C     		ldr	r4, [sp]
 537 0020 019D     		ldr	r5, [sp, #4]
 538 0022 A419     		adds	r4, r4, r6
 539 0024 7D41     		adcs	r5, r5, r7
 540 0026 0292     		str	r2, [sp, #8]
 541 0028 0299     		ldr	r1, [sp, #8]
 542 002a 039A     		ldr	r2, [sp, #12]
 543 002c 6418     		adds	r4, r4, r1
 544 002e 5541     		adcs	r5, r5, r2
 545              	.LVL57:
 546              	.LBE67:
 547              	.LBE66:
  97:libhydrogen\impl/x25519.h ****     int                 i;
  98:libhydrogen\impl/x25519.h **** 
  99:libhydrogen\impl/x25519.h ****     for (i = 0; i < hydro_x25519_NLIMBS; i++) {
 100:libhydrogen\impl/x25519.h ****         out[i] = hydro_x25519_adc(&carry, a[i], b[i]);
 548              		.loc 5 100 0 discriminator 3
 549 0030 C450     		str	r4, [r0, r3]
 550              	.LVL58:
 551 0032 0433     		adds	r3, r3, #4
 552              	.LBB69:
 553              	.LBB68:
  66:libhydrogen\impl/x25519.h ****     return (hydro_x25519_limb_t) total;
 554              		.loc 5 66 0 discriminator 3
 555 0034 AC46     		mov	ip, r5
 556              	.LVL59:
 557              	.LBE68:
 558              	.LBE69:
  99:libhydrogen\impl/x25519.h ****         out[i] = hydro_x25519_adc(&carry, a[i], b[i]);
 559              		.loc 5 99 0 discriminator 3
 560 0036 202B     		cmp	r3, #32
 561 0038 E8D1     		bne	.L33
 101:libhydrogen\impl/x25519.h ****     }
 102:libhydrogen\impl/x25519.h ****     hydro_x25519_propagate(out, carry);
 562              		.loc 5 102 0
 563 003a 2900     		movs	r1, r5
 564 003c FFF7FEFF 		bl	hydro_x25519_propagate
 565              	.LVL60:
 103:libhydrogen\impl/x25519.h **** }
 566              		.loc 5 103 0
 567 0040 07B0     		add	sp, sp, #28
 568              		@ sp needed
 569 0042 F0BD     		pop	{r4, r5, r6, r7, pc}
 570              		.cfi_endproc
 571              	.LFE61:
 572              		.size	hydro_x25519_add, .-hydro_x25519_add
 573              		.section	.text.hydro_x25519_sub,"ax",%progbits
 574              		.align	1
 575              		.code	16
 576              		.thumb_func
 577              		.type	hydro_x25519_sub, %function
 578              	hydro_x25519_sub:
 579              	.LFB62:
 104:libhydrogen\impl/x25519.h **** 
ARM GAS  C:\Users\CCPOW_~1\AppData\Local\Temp\ccQfR6ec.s 			page 22


 105:libhydrogen\impl/x25519.h **** static void
 106:libhydrogen\impl/x25519.h **** hydro_x25519_sub(hydro_x25519_fe out, const hydro_x25519_fe a, const hydro_x25519_fe b)
 107:libhydrogen\impl/x25519.h **** {
 580              		.loc 5 107 0
 581              		.cfi_startproc
 582              		@ args = 0, pretend = 0, frame = 24
 583              		@ frame_needed = 0, uses_anonymous_args = 0
 584              	.LVL61:
 585 0000 F0B5     		push	{r4, r5, r6, r7, lr}
 586              		.cfi_def_cfa_offset 20
 587              		.cfi_offset 4, -20
 588              		.cfi_offset 5, -16
 589              		.cfi_offset 6, -12
 590              		.cfi_offset 7, -8
 591              		.cfi_offset 14, -4
 592 0002 8C46     		mov	ip, r1
 593 0004 0023     		movs	r3, #0
 108:libhydrogen\impl/x25519.h ****     hydro_x25519_sdlimb_t carry = -38;
 594              		.loc 5 108 0
 595 0006 2626     		movs	r6, #38
 596 0008 7642     		rsbs	r6, r6, #0
 597 000a F717     		asrs	r7, r6, #31
 107:libhydrogen\impl/x25519.h ****     hydro_x25519_sdlimb_t carry = -38;
 598              		.loc 5 107 0
 599 000c 87B0     		sub	sp, sp, #28
 600              		.cfi_def_cfa_offset 48
 107:libhydrogen\impl/x25519.h ****     hydro_x25519_sdlimb_t carry = -38;
 601              		.loc 5 107 0
 602 000e 0592     		str	r2, [sp, #20]
 603              	.LVL62:
 604              	.L36:
 109:libhydrogen\impl/x25519.h ****     int                   i;
 110:libhydrogen\impl/x25519.h **** 
 111:libhydrogen\impl/x25519.h ****     for (i = 0; i < hydro_x25519_NLIMBS; i++) {
 112:libhydrogen\impl/x25519.h ****         out[i] = carry = carry + a[i] - b[i];
 605              		.loc 5 112 0 discriminator 3
 606 0010 6246     		mov	r2, ip
 607 0012 D258     		ldr	r2, [r2, r3]
 608 0014 0092     		str	r2, [sp]
 609 0016 0022     		movs	r2, #0
 610 0018 0192     		str	r2, [sp, #4]
 611 001a 059A     		ldr	r2, [sp, #20]
 612 001c 009C     		ldr	r4, [sp]
 613 001e 019D     		ldr	r5, [sp, #4]
 614 0020 D258     		ldr	r2, [r2, r3]
 615 0022 A419     		adds	r4, r4, r6
 616 0024 7D41     		adcs	r5, r5, r7
 617 0026 0292     		str	r2, [sp, #8]
 618 0028 0022     		movs	r2, #0
 619 002a 0392     		str	r2, [sp, #12]
 620 002c 0299     		ldr	r1, [sp, #8]
 621 002e 039A     		ldr	r2, [sp, #12]
 622 0030 641A     		subs	r4, r4, r1
 623 0032 9541     		sbcs	r5, r5, r2
 624              	.LVL63:
 625 0034 C450     		str	r4, [r0, r3]
 626 0036 0433     		adds	r3, r3, #4
ARM GAS  C:\Users\CCPOW_~1\AppData\Local\Temp\ccQfR6ec.s 			page 23


 113:libhydrogen\impl/x25519.h ****         carry >>= hydro_x25519_WBITS;
 627              		.loc 5 113 0 discriminator 3
 628 0038 2E00     		movs	r6, r5
 629 003a EF17     		asrs	r7, r5, #31
 630              	.LVL64:
 111:libhydrogen\impl/x25519.h ****         out[i] = carry = carry + a[i] - b[i];
 631              		.loc 5 111 0 discriminator 3
 632 003c 202B     		cmp	r3, #32
 633 003e E7D1     		bne	.L36
 114:libhydrogen\impl/x25519.h ****     }
 115:libhydrogen\impl/x25519.h ****     hydro_x25519_propagate(out, 1 + carry);
 634              		.loc 5 115 0
 635 0040 691C     		adds	r1, r5, #1
 636 0042 FFF7FEFF 		bl	hydro_x25519_propagate
 637              	.LVL65:
 116:libhydrogen\impl/x25519.h **** }
 638              		.loc 5 116 0
 639 0046 07B0     		add	sp, sp, #28
 640              		@ sp needed
 641              	.LVL66:
 642 0048 F0BD     		pop	{r4, r5, r6, r7, pc}
 643              		.cfi_endproc
 644              	.LFE62:
 645              		.size	hydro_x25519_sub, .-hydro_x25519_sub
 646              		.global	__aeabi_lmul
 647              		.section	.text.hydro_x25519_mul,"ax",%progbits
 648              		.align	1
 649              		.code	16
 650              		.thumb_func
 651              		.type	hydro_x25519_mul, %function
 652              	hydro_x25519_mul:
 653              	.LFB65:
 117:libhydrogen\impl/x25519.h **** 
 118:libhydrogen\impl/x25519.h **** static void
 119:libhydrogen\impl/x25519.h **** hydro_x25519_swapin(hydro_x25519_limb_t *x, const uint8_t *in)
 120:libhydrogen\impl/x25519.h **** {
 121:libhydrogen\impl/x25519.h ****     int i;
 122:libhydrogen\impl/x25519.h **** 
 123:libhydrogen\impl/x25519.h ****     memcpy(x, in, sizeof(hydro_x25519_fe));
 124:libhydrogen\impl/x25519.h ****     for (i = 0; i < hydro_x25519_NLIMBS; i++) {
 125:libhydrogen\impl/x25519.h ****         x[i] = hydro_x25519_eswap_limb(x[i]);
 126:libhydrogen\impl/x25519.h ****     }
 127:libhydrogen\impl/x25519.h **** }
 128:libhydrogen\impl/x25519.h **** 
 129:libhydrogen\impl/x25519.h **** static void
 130:libhydrogen\impl/x25519.h **** hydro_x25519_swapout(uint8_t *out, hydro_x25519_limb_t *x)
 131:libhydrogen\impl/x25519.h **** {
 132:libhydrogen\impl/x25519.h ****     int i;
 133:libhydrogen\impl/x25519.h **** 
 134:libhydrogen\impl/x25519.h ****     for (i = 0; i < hydro_x25519_NLIMBS; i++) {
 135:libhydrogen\impl/x25519.h ****         x[i] = hydro_x25519_eswap_limb(x[i]);
 136:libhydrogen\impl/x25519.h ****     }
 137:libhydrogen\impl/x25519.h ****     memcpy(out, x, sizeof(hydro_x25519_fe));
 138:libhydrogen\impl/x25519.h **** }
 139:libhydrogen\impl/x25519.h **** 
 140:libhydrogen\impl/x25519.h **** static void
 141:libhydrogen\impl/x25519.h **** hydro_x25519_mul(hydro_x25519_fe out, const hydro_x25519_fe a, const hydro_x25519_fe b, int nb)
ARM GAS  C:\Users\CCPOW_~1\AppData\Local\Temp\ccQfR6ec.s 			page 24


 142:libhydrogen\impl/x25519.h **** {
 654              		.loc 5 142 0
 655              		.cfi_startproc
 656              		@ args = 0, pretend = 0, frame = 128
 657              		@ frame_needed = 0, uses_anonymous_args = 0
 658              	.LVL67:
 659 0000 F0B5     		push	{r4, r5, r6, r7, lr}
 660              		.cfi_def_cfa_offset 20
 661              		.cfi_offset 4, -20
 662              		.cfi_offset 5, -16
 663              		.cfi_offset 6, -12
 664              		.cfi_offset 7, -8
 665              		.cfi_offset 14, -4
 666 0002 A1B0     		sub	sp, sp, #132
 667              		.cfi_def_cfa_offset 152
 668              		.loc 5 142 0
 669 0004 0590     		str	r0, [sp, #20]
 670 0006 0B91     		str	r1, [sp, #44]
 671 0008 0C92     		str	r2, [sp, #48]
 143:libhydrogen\impl/x25519.h ****     hydro_x25519_limb_t accum[2 * hydro_x25519_NLIMBS] = { 0 };
 672              		.loc 5 143 0
 673 000a 0021     		movs	r1, #0
 674              	.LVL68:
 675 000c 4022     		movs	r2, #64
 676              	.LVL69:
 677 000e 10A8     		add	r0, sp, #64
 678              	.LVL70:
 142:libhydrogen\impl/x25519.h ****     hydro_x25519_limb_t accum[2 * hydro_x25519_NLIMBS] = { 0 };
 679              		.loc 5 142 0
 680 0010 0D93     		str	r3, [sp, #52]
 144:libhydrogen\impl/x25519.h ****     hydro_x25519_limb_t carry2;
 145:libhydrogen\impl/x25519.h ****     int                 i, j;
 146:libhydrogen\impl/x25519.h **** 
 147:libhydrogen\impl/x25519.h ****     for (i = 0; i < nb; i++) {
 681              		.loc 5 147 0
 682 0012 0027     		movs	r7, #0
 143:libhydrogen\impl/x25519.h ****     hydro_x25519_limb_t carry2;
 683              		.loc 5 143 0
 684 0014 FFF7FEFF 		bl	memset
 685              	.LVL71:
 686 0018 10AC     		add	r4, sp, #64
 687              	.LVL72:
 688              	.L39:
 689              		.loc 5 147 0 discriminator 1
 690 001a 0D9B     		ldr	r3, [sp, #52]
 691 001c 9F42     		cmp	r7, r3
 692 001e 29DA     		bge	.L45
 693              	.LVL73:
 694              	.LBB70:
 148:libhydrogen\impl/x25519.h ****         carry2                   = 0;
 149:libhydrogen\impl/x25519.h ****         hydro_x25519_limb_t mand = b[i];
 695              		.loc 5 149 0
 696 0020 0025     		movs	r5, #0
 148:libhydrogen\impl/x25519.h ****         carry2                   = 0;
 697              		.loc 5 148 0
 698 0022 2E00     		movs	r6, r5
 699              		.loc 5 149 0
ARM GAS  C:\Users\CCPOW_~1\AppData\Local\Temp\ccQfR6ec.s 			page 25


 700 0024 0C9A     		ldr	r2, [sp, #48]
 701 0026 BB00     		lsls	r3, r7, #2
 702 0028 D358     		ldr	r3, [r2, r3]
 703 002a 0A93     		str	r3, [sp, #40]
 704              	.LVL74:
 705              	.L40:
 706              	.LBB71:
 707              	.LBB72:
  55:libhydrogen\impl/x25519.h **** 
 708              		.loc 5 55 0 discriminator 3
 709 002c 0B9B     		ldr	r3, [sp, #44]
 710 002e 0A9A     		ldr	r2, [sp, #40]
 711 0030 5B59     		ldr	r3, [r3, r5]
 712 0032 0E93     		str	r3, [sp, #56]
 713 0034 0023     		movs	r3, #0
 714 0036 0E98     		ldr	r0, [sp, #56]
 715 0038 1900     		movs	r1, r3
 716 003a FFF7FEFF 		bl	__aeabi_lmul
 717              	.LVL75:
 718 003e 6359     		ldr	r3, [r4, r5]
 719              	.LVL76:
 720 0040 0696     		str	r6, [sp, #24]
 721 0042 0093     		str	r3, [sp]
 722 0044 0023     		movs	r3, #0
 723              	.LVL77:
 724 0046 0193     		str	r3, [sp, #4]
 725 0048 0793     		str	r3, [sp, #28]
 726 004a 0E90     		str	r0, [sp, #56]
 727 004c 0F91     		str	r1, [sp, #60]
 728              	.LVL78:
 729 004e 069A     		ldr	r2, [sp, #24]
 730 0050 079B     		ldr	r3, [sp, #28]
 731 0052 0098     		ldr	r0, [sp]
 732 0054 0199     		ldr	r1, [sp, #4]
 733 0056 8018     		adds	r0, r0, r2
 734 0058 5941     		adcs	r1, r1, r3
 735 005a 0E9A     		ldr	r2, [sp, #56]
 736 005c 0F9B     		ldr	r3, [sp, #60]
 737 005e 8018     		adds	r0, r0, r2
 738 0060 5941     		adcs	r1, r1, r3
 739              	.LVL79:
 740              	.LBE72:
 741              	.LBE71:
 150:libhydrogen\impl/x25519.h ****         for (j = 0; j < hydro_x25519_NLIMBS; j++) {
 151:libhydrogen\impl/x25519.h ****             accum[i + j] = hydro_x25519_umaal(&carry2, accum[i + j], mand, a[j]);
 742              		.loc 5 151 0 discriminator 3
 743 0062 6051     		str	r0, [r4, r5]
 744 0064 0435     		adds	r5, r5, #4
 745              	.LBB74:
 746              	.LBB73:
  57:libhydrogen\impl/x25519.h ****     return (hydro_x25519_limb_t) tmp;
 747              		.loc 5 57 0 discriminator 3
 748 0066 0E00     		movs	r6, r1
 749              	.LVL80:
 750              	.LBE73:
 751              	.LBE74:
 150:libhydrogen\impl/x25519.h ****         for (j = 0; j < hydro_x25519_NLIMBS; j++) {
ARM GAS  C:\Users\CCPOW_~1\AppData\Local\Temp\ccQfR6ec.s 			page 26


 752              		.loc 5 150 0 discriminator 3
 753 0068 202D     		cmp	r5, #32
 754 006a DFD1     		bne	.L40
 152:libhydrogen\impl/x25519.h ****         }
 153:libhydrogen\impl/x25519.h ****         accum[i + j] = carry2;
 755              		.loc 5 153 0 discriminator 2
 756 006c 2162     		str	r1, [r4, #32]
 757              	.LBE70:
 147:libhydrogen\impl/x25519.h ****         carry2                   = 0;
 758              		.loc 5 147 0 discriminator 2
 759 006e 0137     		adds	r7, r7, #1
 760              	.LVL81:
 761 0070 0434     		adds	r4, r4, #4
 762 0072 D2E7     		b	.L39
 763              	.LVL82:
 764              	.L45:
 765 0074 0024     		movs	r4, #0
 766 0076 2500     		movs	r5, r4
 767              	.L42:
 768              	.LVL83:
 769              	.LBB75:
 154:libhydrogen\impl/x25519.h ****     }
 155:libhydrogen\impl/x25519.h ****     carry2 = 0;
 156:libhydrogen\impl/x25519.h ****     for (j = 0; j < hydro_x25519_NLIMBS; j++) {
 157:libhydrogen\impl/x25519.h ****         const hydro_x25519_limb_t mand = 38;
 158:libhydrogen\impl/x25519.h **** 
 159:libhydrogen\impl/x25519.h ****         out[j] = hydro_x25519_umaal(&carry2, accum[j], mand, accum[j + hydro_x25519_NLIMBS]);
 770              		.loc 5 159 0 discriminator 3
 771 0078 10AA     		add	r2, sp, #64
 772 007a A318     		adds	r3, r4, r2
 773              	.LBB76:
 774              	.LBB77:
  55:libhydrogen\impl/x25519.h **** 
 775              		.loc 5 55 0 discriminator 3
 776 007c 186A     		ldr	r0, [r3, #32]
 777 007e 2622     		movs	r2, #38
 778 0080 0023     		movs	r3, #0
 779 0082 0021     		movs	r1, #0
 780 0084 FFF7FEFF 		bl	__aeabi_lmul
 781              	.LVL84:
 782 0088 10AB     		add	r3, sp, #64
 783 008a 1B59     		ldr	r3, [r3, r4]
 784 008c 0895     		str	r5, [sp, #32]
 785 008e 0293     		str	r3, [sp, #8]
 786 0090 0023     		movs	r3, #0
 787 0092 0993     		str	r3, [sp, #36]
 788 0094 0393     		str	r3, [sp, #12]
 789 0096 089D     		ldr	r5, [sp, #32]
 790 0098 099E     		ldr	r6, [sp, #36]
 791              	.LVL85:
 792 009a 029A     		ldr	r2, [sp, #8]
 793 009c 039B     		ldr	r3, [sp, #12]
 794 009e 5219     		adds	r2, r2, r5
 795 00a0 7341     		adcs	r3, r3, r6
 796 00a2 8018     		adds	r0, r0, r2
 797 00a4 5941     		adcs	r1, r1, r3
 798              	.LVL86:
ARM GAS  C:\Users\CCPOW_~1\AppData\Local\Temp\ccQfR6ec.s 			page 27


 799              	.LBE77:
 800              	.LBE76:
 801              		.loc 5 159 0 discriminator 3
 802 00a6 059B     		ldr	r3, [sp, #20]
 803              	.LBB79:
 804              	.LBB78:
  57:libhydrogen\impl/x25519.h ****     return (hydro_x25519_limb_t) tmp;
 805              		.loc 5 57 0 discriminator 3
 806 00a8 0D00     		movs	r5, r1
 807              	.LVL87:
 808              	.LBE78:
 809              	.LBE79:
 810              		.loc 5 159 0 discriminator 3
 811 00aa 1851     		str	r0, [r3, r4]
 812 00ac 0434     		adds	r4, r4, #4
 813              	.LBE75:
 156:libhydrogen\impl/x25519.h ****         const hydro_x25519_limb_t mand = 38;
 814              		.loc 5 156 0 discriminator 3
 815 00ae 202C     		cmp	r4, #32
 816 00b0 E2D1     		bne	.L42
 160:libhydrogen\impl/x25519.h ****     }
 161:libhydrogen\impl/x25519.h ****     hydro_x25519_propagate(out, carry2);
 817              		.loc 5 161 0
 818 00b2 1800     		movs	r0, r3
 819 00b4 FFF7FEFF 		bl	hydro_x25519_propagate
 820              	.LVL88:
 162:libhydrogen\impl/x25519.h **** }
 821              		.loc 5 162 0
 822 00b8 21B0     		add	sp, sp, #132
 823              		@ sp needed
 824              	.LVL89:
 825 00ba F0BD     		pop	{r4, r5, r6, r7, pc}
 826              		.cfi_endproc
 827              	.LFE65:
 828              		.size	hydro_x25519_mul, .-hydro_x25519_mul
 829              		.section	.text.hydro_x25519_mul1,"ax",%progbits
 830              		.align	1
 831              		.code	16
 832              		.thumb_func
 833              		.type	hydro_x25519_mul1, %function
 834              	hydro_x25519_mul1:
 835              	.LFB67:
 163:libhydrogen\impl/x25519.h **** 
 164:libhydrogen\impl/x25519.h **** static void
 165:libhydrogen\impl/x25519.h **** hydro_x25519_sqr(hydro_x25519_fe out, const hydro_x25519_fe a)
 166:libhydrogen\impl/x25519.h **** {
 167:libhydrogen\impl/x25519.h ****     hydro_x25519_mul(out, a, a, hydro_x25519_NLIMBS);
 168:libhydrogen\impl/x25519.h **** }
 169:libhydrogen\impl/x25519.h **** 
 170:libhydrogen\impl/x25519.h **** static void
 171:libhydrogen\impl/x25519.h **** hydro_x25519_mul1(hydro_x25519_fe out, const hydro_x25519_fe a)
 172:libhydrogen\impl/x25519.h **** {
 836              		.loc 5 172 0
 837              		.cfi_startproc
 838              		@ args = 0, pretend = 0, frame = 0
 839              		@ frame_needed = 0, uses_anonymous_args = 0
 840              	.LVL90:
ARM GAS  C:\Users\CCPOW_~1\AppData\Local\Temp\ccQfR6ec.s 			page 28


 841 0000 10B5     		push	{r4, lr}
 842              		.cfi_def_cfa_offset 8
 843              		.cfi_offset 4, -8
 844              		.cfi_offset 14, -4
 173:libhydrogen\impl/x25519.h ****     hydro_x25519_mul(out, a, out, hydro_x25519_NLIMBS);
 845              		.loc 5 173 0
 846 0002 0823     		movs	r3, #8
 847 0004 0200     		movs	r2, r0
 848 0006 FFF7FEFF 		bl	hydro_x25519_mul
 849              	.LVL91:
 174:libhydrogen\impl/x25519.h **** }
 850              		.loc 5 174 0
 851              		@ sp needed
 852 000a 10BD     		pop	{r4, pc}
 853              		.cfi_endproc
 854              	.LFE67:
 855              		.size	hydro_x25519_mul1, .-hydro_x25519_mul1
 856              		.section	.text.hydro_x25519_condswap,"ax",%progbits
 857              		.align	1
 858              		.code	16
 859              		.thumb_func
 860              		.type	hydro_x25519_condswap, %function
 861              	hydro_x25519_condswap:
 862              	.LFB69:
 175:libhydrogen\impl/x25519.h **** 
 176:libhydrogen\impl/x25519.h **** static void
 177:libhydrogen\impl/x25519.h **** hydro_x25519_sqr1(hydro_x25519_fe a)
 178:libhydrogen\impl/x25519.h **** {
 179:libhydrogen\impl/x25519.h ****     hydro_x25519_mul1(a, a);
 180:libhydrogen\impl/x25519.h **** }
 181:libhydrogen\impl/x25519.h **** 
 182:libhydrogen\impl/x25519.h **** static void
 183:libhydrogen\impl/x25519.h **** hydro_x25519_condswap(hydro_x25519_limb_t a[2 * hydro_x25519_NLIMBS],
 184:libhydrogen\impl/x25519.h ****                       hydro_x25519_limb_t b[2 * hydro_x25519_NLIMBS], hydro_x25519_limb_t doswap)
 185:libhydrogen\impl/x25519.h **** {
 863              		.loc 5 185 0
 864              		.cfi_startproc
 865              		@ args = 0, pretend = 0, frame = 0
 866              		@ frame_needed = 0, uses_anonymous_args = 0
 867              	.LVL92:
 868 0000 0023     		movs	r3, #0
 869 0002 30B5     		push	{r4, r5, lr}
 870              		.cfi_def_cfa_offset 12
 871              		.cfi_offset 4, -12
 872              		.cfi_offset 5, -8
 873              		.cfi_offset 14, -4
 874              	.LVL93:
 875              	.L48:
 876              	.LBB80:
 186:libhydrogen\impl/x25519.h ****     int i;
 187:libhydrogen\impl/x25519.h **** 
 188:libhydrogen\impl/x25519.h ****     for (i = 0; i < 2 * hydro_x25519_NLIMBS; i++) {
 189:libhydrogen\impl/x25519.h ****         hydro_x25519_limb_t xorv = (a[i] ^ b[i]) & doswap;
 877              		.loc 5 189 0 discriminator 3
 878 0004 C558     		ldr	r5, [r0, r3]
 879 0006 CC58     		ldr	r4, [r1, r3]
 880 0008 6C40     		eors	r4, r5
ARM GAS  C:\Users\CCPOW_~1\AppData\Local\Temp\ccQfR6ec.s 			page 29


 881 000a 1440     		ands	r4, r2
 882              	.LVL94:
 190:libhydrogen\impl/x25519.h ****         a[i] ^= xorv;
 883              		.loc 5 190 0 discriminator 3
 884 000c 6540     		eors	r5, r4
 885 000e C550     		str	r5, [r0, r3]
 191:libhydrogen\impl/x25519.h ****         b[i] ^= xorv;
 886              		.loc 5 191 0 discriminator 3
 887 0010 CD58     		ldr	r5, [r1, r3]
 888 0012 6C40     		eors	r4, r5
 889              	.LVL95:
 890 0014 CC50     		str	r4, [r1, r3]
 891 0016 0433     		adds	r3, r3, #4
 892              	.LBE80:
 188:libhydrogen\impl/x25519.h ****         hydro_x25519_limb_t xorv = (a[i] ^ b[i]) & doswap;
 893              		.loc 5 188 0 discriminator 3
 894 0018 402B     		cmp	r3, #64
 895 001a F3D1     		bne	.L48
 192:libhydrogen\impl/x25519.h ****     }
 193:libhydrogen\impl/x25519.h **** }
 896              		.loc 5 193 0
 897              		@ sp needed
 898 001c 30BD     		pop	{r4, r5, pc}
 899              		.cfi_endproc
 900              	.LFE69:
 901              		.size	hydro_x25519_condswap, .-hydro_x25519_condswap
 902              		.section	.text.hydro_x25519_canon,"ax",%progbits
 903              		.align	1
 904              		.code	16
 905              		.thumb_func
 906              		.type	hydro_x25519_canon, %function
 907              	hydro_x25519_canon:
 908              	.LFB70:
 194:libhydrogen\impl/x25519.h **** 
 195:libhydrogen\impl/x25519.h **** static int
 196:libhydrogen\impl/x25519.h **** hydro_x25519_canon(hydro_x25519_fe x)
 197:libhydrogen\impl/x25519.h **** {
 909              		.loc 5 197 0
 910              		.cfi_startproc
 911              		@ args = 0, pretend = 0, frame = 24
 912              		@ frame_needed = 0, uses_anonymous_args = 0
 913              	.LVL96:
 914 0000 0100     		movs	r1, r0
 915 0002 F0B5     		push	{r4, r5, r6, r7, lr}
 916              		.cfi_def_cfa_offset 20
 917              		.cfi_offset 4, -20
 918              		.cfi_offset 5, -16
 919              		.cfi_offset 6, -12
 920              		.cfi_offset 7, -8
 921              		.cfi_offset 14, -4
 198:libhydrogen\impl/x25519.h ****     hydro_x25519_sdlimb_t carry;
 199:libhydrogen\impl/x25519.h ****     hydro_x25519_limb_t   carry0 = 19;
 922              		.loc 5 199 0
 923 0004 1326     		movs	r6, #19
 197:libhydrogen\impl/x25519.h ****     hydro_x25519_sdlimb_t carry;
 924              		.loc 5 197 0
 925 0006 87B0     		sub	sp, sp, #28
ARM GAS  C:\Users\CCPOW_~1\AppData\Local\Temp\ccQfR6ec.s 			page 30


 926              		.cfi_def_cfa_offset 48
 927 0008 2031     		adds	r1, r1, #32
 928 000a 0391     		str	r1, [sp, #12]
 929              		.loc 5 199 0
 930 000c B446     		mov	ip, r6
 197:libhydrogen\impl/x25519.h ****     hydro_x25519_sdlimb_t carry;
 931              		.loc 5 197 0
 932 000e 0100     		movs	r1, r0
 933 0010 0290     		str	r0, [sp, #8]
 934              	.LVL97:
 935              	.L51:
 936              	.LBB81:
 937              	.LBB82:
  75:libhydrogen\impl/x25519.h ****     return (hydro_x25519_limb_t) total;
 938              		.loc 5 75 0 discriminator 3
 939 0012 0025     		movs	r5, #0
 940 0014 6646     		mov	r6, ip
 941 0016 2B00     		movs	r3, r5
 942 0018 2F00     		movs	r7, r5
 943 001a 0A68     		ldr	r2, [r1]
 944 001c B618     		adds	r6, r6, r2
 945 001e 5F41     		adcs	r7, r7, r3
 946 0020 0496     		str	r6, [sp, #16]
 947 0022 0597     		str	r7, [sp, #20]
 948              	.LVL98:
 949              	.LBE82:
 950              	.LBE81:
 200:libhydrogen\impl/x25519.h ****     hydro_x25519_limb_t   res;
 201:libhydrogen\impl/x25519.h ****     int                   i;
 202:libhydrogen\impl/x25519.h **** 
 203:libhydrogen\impl/x25519.h ****     for (i = 0; i < hydro_x25519_NLIMBS; i++) {
 204:libhydrogen\impl/x25519.h ****         x[i] = hydro_x25519_adc0(&carry0, x[i]);
 951              		.loc 5 204 0 discriminator 3
 952 0024 1700     		movs	r7, r2
 953              	.LBB85:
 954              	.LBB83:
  75:libhydrogen\impl/x25519.h ****     return (hydro_x25519_limb_t) total;
 955              		.loc 5 75 0 discriminator 3
 956 0026 059E     		ldr	r6, [sp, #20]
 957              	.LBE83:
 958              	.LBE85:
 959              		.loc 5 204 0 discriminator 3
 960 0028 6744     		add	r7, r7, ip
 961              	.LBB86:
 962              	.LBB84:
  75:libhydrogen\impl/x25519.h ****     return (hydro_x25519_limb_t) total;
 963              		.loc 5 75 0 discriminator 3
 964 002a B446     		mov	ip, r6
 965              	.LBE84:
 966              	.LBE86:
 203:libhydrogen\impl/x25519.h ****         x[i] = hydro_x25519_adc0(&carry0, x[i]);
 967              		.loc 5 203 0 discriminator 3
 968 002c 039E     		ldr	r6, [sp, #12]
 969              		.loc 5 204 0 discriminator 3
 970 002e 80C1     		stmia	r1!, {r7}
 203:libhydrogen\impl/x25519.h ****         x[i] = hydro_x25519_adc0(&carry0, x[i]);
 971              		.loc 5 203 0 discriminator 3
ARM GAS  C:\Users\CCPOW_~1\AppData\Local\Temp\ccQfR6ec.s 			page 31


 972 0030 B142     		cmp	r1, r6
 973 0032 EED1     		bne	.L51
 205:libhydrogen\impl/x25519.h ****     }
 206:libhydrogen\impl/x25519.h ****     hydro_x25519_propagate(x, carry0);
 974              		.loc 5 206 0
 975 0034 6146     		mov	r1, ip
 976 0036 FFF7FEFF 		bl	hydro_x25519_propagate
 977              	.LVL99:
 207:libhydrogen\impl/x25519.h ****     carry = -19;
 208:libhydrogen\impl/x25519.h ****     res   = 0;
 978              		.loc 5 208 0
 979 003a 2C00     		movs	r4, r5
 207:libhydrogen\impl/x25519.h ****     carry = -19;
 980              		.loc 5 207 0
 981 003c 1320     		movs	r0, #19
 982 003e 4042     		rsbs	r0, r0, #0
 983 0040 C117     		asrs	r1, r0, #31
 984              	.LVL100:
 985              	.L52:
 209:libhydrogen\impl/x25519.h ****     for (i = 0; i < hydro_x25519_NLIMBS; i++) {
 210:libhydrogen\impl/x25519.h ****         res |= x[i] = carry += x[i];
 986              		.loc 5 210 0 discriminator 3
 987 0042 029B     		ldr	r3, [sp, #8]
 988 0044 029D     		ldr	r5, [sp, #8]
 989 0046 1B68     		ldr	r3, [r3]
 990 0048 0093     		str	r3, [sp]
 991 004a 0023     		movs	r3, #0
 992 004c 0193     		str	r3, [sp, #4]
 993 004e 009A     		ldr	r2, [sp]
 994 0050 019B     		ldr	r3, [sp, #4]
 995 0052 1218     		adds	r2, r2, r0
 996 0054 4B41     		adcs	r3, r3, r1
 997              	.LVL101:
 211:libhydrogen\impl/x25519.h ****         carry >>= hydro_x25519_WBITS;
 998              		.loc 5 211 0 discriminator 3
 999 0056 1800     		movs	r0, r3
 1000 0058 D917     		asrs	r1, r3, #31
 209:libhydrogen\impl/x25519.h ****     for (i = 0; i < hydro_x25519_NLIMBS; i++) {
 1001              		.loc 5 209 0 discriminator 3
 1002 005a 039B     		ldr	r3, [sp, #12]
 210:libhydrogen\impl/x25519.h ****         carry >>= hydro_x25519_WBITS;
 1003              		.loc 5 210 0 discriminator 3
 1004 005c 04C5     		stmia	r5!, {r2}
 1005 005e 0295     		str	r5, [sp, #8]
 1006 0060 1443     		orrs	r4, r2
 1007              	.LVL102:
 209:libhydrogen\impl/x25519.h ****     for (i = 0; i < hydro_x25519_NLIMBS; i++) {
 1008              		.loc 5 209 0 discriminator 3
 1009 0062 AB42     		cmp	r3, r5
 1010 0064 EDD1     		bne	.L52
 1011              	.LVL103:
 212:libhydrogen\impl/x25519.h ****     }
 213:libhydrogen\impl/x25519.h ****     return ((hydro_x25519_dlimb_t) res - 1) >> hydro_x25519_WBITS;
 1012              		.loc 5 213 0
 1013 0066 2000     		movs	r0, r4
 1014              	.LVL104:
 1015 0068 0021     		movs	r1, #0
ARM GAS  C:\Users\CCPOW_~1\AppData\Local\Temp\ccQfR6ec.s 			page 32


 1016 006a 0122     		movs	r2, #1
 1017 006c 5242     		rsbs	r2, r2, #0
 1018 006e D317     		asrs	r3, r2, #31
 1019 0070 1218     		adds	r2, r2, r0
 1020 0072 4B41     		adcs	r3, r3, r1
 214:libhydrogen\impl/x25519.h **** }
 1021              		.loc 5 214 0
 1022 0074 1800     		movs	r0, r3
 1023 0076 07B0     		add	sp, sp, #28
 1024              		@ sp needed
 1025              	.LVL105:
 1026 0078 F0BD     		pop	{r4, r5, r6, r7, pc}
 1027              		.cfi_endproc
 1028              	.LFE70:
 1029              		.size	hydro_x25519_canon, .-hydro_x25519_canon
 1030              		.section	.text.hydro_x25519_sc_montmul,"ax",%progbits
 1031              		.align	1
 1032              		.code	16
 1033              		.thumb_func
 1034              		.type	hydro_x25519_sc_montmul, %function
 1035              	hydro_x25519_sc_montmul:
 1036              	.LFB77:
 215:libhydrogen\impl/x25519.h **** 
 216:libhydrogen\impl/x25519.h **** static void
 217:libhydrogen\impl/x25519.h **** hydro_x25519_ladder_part1(hydro_x25519_fe xs[5])
 218:libhydrogen\impl/x25519.h **** {
 219:libhydrogen\impl/x25519.h ****     hydro_x25519_limb_t *x2 = xs[0], *z2 = xs[1], *x3 = xs[2], *z3 = xs[3], *t1 = xs[4];
 220:libhydrogen\impl/x25519.h **** 
 221:libhydrogen\impl/x25519.h ****     hydro_x25519_add(t1, x2, z2);              // t1 = A
 222:libhydrogen\impl/x25519.h ****     hydro_x25519_sub(z2, x2, z2);              // z2 = B
 223:libhydrogen\impl/x25519.h ****     hydro_x25519_add(x2, x3, z3);              // x2 = C
 224:libhydrogen\impl/x25519.h ****     hydro_x25519_sub(z3, x3, z3);              // z3 = D
 225:libhydrogen\impl/x25519.h ****     hydro_x25519_mul1(z3, t1);                 // z3 = DA
 226:libhydrogen\impl/x25519.h ****     hydro_x25519_mul1(x2, z2);                 // x3 = BC
 227:libhydrogen\impl/x25519.h ****     hydro_x25519_add(x3, z3, x2);              // x3 = DA+CB
 228:libhydrogen\impl/x25519.h ****     hydro_x25519_sub(z3, z3, x2);              // z3 = DA-CB
 229:libhydrogen\impl/x25519.h ****     hydro_x25519_sqr1(t1);                     // t1 = AA
 230:libhydrogen\impl/x25519.h ****     hydro_x25519_sqr1(z2);                     // z2 = BB
 231:libhydrogen\impl/x25519.h ****     hydro_x25519_sub(x2, t1, z2);              // x2 = E = AA-BB
 232:libhydrogen\impl/x25519.h ****     hydro_x25519_mul(z2, x2, hydro_x25519_a24, // z2 = E*a24
 233:libhydrogen\impl/x25519.h ****                      sizeof(hydro_x25519_a24) / sizeof(hydro_x25519_a24[0]));
 234:libhydrogen\impl/x25519.h ****     hydro_x25519_add(z2, z2, t1); // z2 = E*a24 + AA
 235:libhydrogen\impl/x25519.h **** }
 236:libhydrogen\impl/x25519.h **** 
 237:libhydrogen\impl/x25519.h **** static void
 238:libhydrogen\impl/x25519.h **** hydro_x25519_ladder_part2(hydro_x25519_fe xs[5], const hydro_x25519_fe x1)
 239:libhydrogen\impl/x25519.h **** {
 240:libhydrogen\impl/x25519.h ****     hydro_x25519_limb_t *x2 = xs[0], *z2 = xs[1], *x3 = xs[2], *z3 = xs[3], *t1 = xs[4];
 241:libhydrogen\impl/x25519.h **** 
 242:libhydrogen\impl/x25519.h ****     hydro_x25519_sqr1(z3);        // z3 = (DA-CB)^2
 243:libhydrogen\impl/x25519.h ****     hydro_x25519_mul1(z3, x1);    // z3 = x1 * (DA-CB)^2
 244:libhydrogen\impl/x25519.h ****     hydro_x25519_sqr1(x3);        // x3 = (DA+CB)^2
 245:libhydrogen\impl/x25519.h ****     hydro_x25519_mul1(z2, x2);    // z2 = AA*(E*a24+AA)
 246:libhydrogen\impl/x25519.h ****     hydro_x25519_sub(x2, t1, x2); // x2 = BB again
 247:libhydrogen\impl/x25519.h ****     hydro_x25519_mul1(x2, t1);    // x2 = AA*BB
 248:libhydrogen\impl/x25519.h **** }
 249:libhydrogen\impl/x25519.h **** 
ARM GAS  C:\Users\CCPOW_~1\AppData\Local\Temp\ccQfR6ec.s 			page 33


 250:libhydrogen\impl/x25519.h **** static void
 251:libhydrogen\impl/x25519.h **** hydro_x25519_core(hydro_x25519_fe xs[5], const uint8_t scalar[hydro_x25519_BYTES],
 252:libhydrogen\impl/x25519.h ****                   const uint8_t *x1, bool clamp)
 253:libhydrogen\impl/x25519.h **** {
 254:libhydrogen\impl/x25519.h ****     hydro_x25519_limb_t  swap;
 255:libhydrogen\impl/x25519.h ****     hydro_x25519_limb_t *x2 = xs[0], *x3 = xs[2], *z3 = xs[3];
 256:libhydrogen\impl/x25519.h ****     hydro_x25519_fe      x1i;
 257:libhydrogen\impl/x25519.h ****     int                  i;
 258:libhydrogen\impl/x25519.h **** 
 259:libhydrogen\impl/x25519.h ****     hydro_x25519_swapin(x1i, x1);
 260:libhydrogen\impl/x25519.h ****     x1   = (const uint8_t *) x1i;
 261:libhydrogen\impl/x25519.h ****     swap = 0;
 262:libhydrogen\impl/x25519.h ****     mem_zero(xs, 4 * sizeof(hydro_x25519_fe));
 263:libhydrogen\impl/x25519.h ****     x2[0] = z3[0] = 1;
 264:libhydrogen\impl/x25519.h ****     memcpy(x3, x1, sizeof(hydro_x25519_fe));
 265:libhydrogen\impl/x25519.h ****     for (i = 255; i >= 0; i--) {
 266:libhydrogen\impl/x25519.h ****         uint8_t             bytei = scalar[i / 8];
 267:libhydrogen\impl/x25519.h ****         hydro_x25519_limb_t doswap;
 268:libhydrogen\impl/x25519.h ****         hydro_x25519_fe     x1_dup;
 269:libhydrogen\impl/x25519.h **** 
 270:libhydrogen\impl/x25519.h ****         if (clamp) {
 271:libhydrogen\impl/x25519.h ****             if (i / 8 == 0) {
 272:libhydrogen\impl/x25519.h ****                 bytei &= ~7;
 273:libhydrogen\impl/x25519.h ****             } else if (i / 8 == hydro_x25519_BYTES - 1) {
 274:libhydrogen\impl/x25519.h ****                 bytei &= 0x7F;
 275:libhydrogen\impl/x25519.h ****                 bytei |= 0x40;
 276:libhydrogen\impl/x25519.h ****             }
 277:libhydrogen\impl/x25519.h ****         }
 278:libhydrogen\impl/x25519.h ****         doswap = 1U + ~(hydro_x25519_limb_t)((bytei >> (i % 8)) & 1);
 279:libhydrogen\impl/x25519.h ****         hydro_x25519_condswap(x2, x3, swap ^ doswap);
 280:libhydrogen\impl/x25519.h ****         swap = doswap;
 281:libhydrogen\impl/x25519.h ****         hydro_x25519_ladder_part1(xs);
 282:libhydrogen\impl/x25519.h ****         memcpy(x1_dup, x1, sizeof x1_dup);
 283:libhydrogen\impl/x25519.h ****         hydro_x25519_ladder_part2(xs, x1_dup);
 284:libhydrogen\impl/x25519.h ****     }
 285:libhydrogen\impl/x25519.h ****     hydro_x25519_condswap(x2, x3, swap);
 286:libhydrogen\impl/x25519.h **** }
 287:libhydrogen\impl/x25519.h **** 
 288:libhydrogen\impl/x25519.h **** static int
 289:libhydrogen\impl/x25519.h **** hydro_x25519_scalarmult(uint8_t out[hydro_x25519_BYTES], const uint8_t scalar[hydro_x25519_BYTES],
 290:libhydrogen\impl/x25519.h ****                         const uint8_t x1[hydro_x25519_BYTES], bool clamp)
 291:libhydrogen\impl/x25519.h **** {
 292:libhydrogen\impl/x25519.h ****     hydro_x25519_fe      xs[5];
 293:libhydrogen\impl/x25519.h ****     hydro_x25519_limb_t *x2, *z2, *z3;
 294:libhydrogen\impl/x25519.h ****     hydro_x25519_limb_t *prev;
 295:libhydrogen\impl/x25519.h ****     int                  i;
 296:libhydrogen\impl/x25519.h ****     int                  ret;
 297:libhydrogen\impl/x25519.h **** 
 298:libhydrogen\impl/x25519.h ****     hydro_x25519_core(xs, scalar, x1, clamp);
 299:libhydrogen\impl/x25519.h **** 
 300:libhydrogen\impl/x25519.h ****     /* Precomputed inversion chain */
 301:libhydrogen\impl/x25519.h ****     x2   = xs[0];
 302:libhydrogen\impl/x25519.h ****     z2   = xs[1];
 303:libhydrogen\impl/x25519.h ****     z3   = xs[3];
 304:libhydrogen\impl/x25519.h ****     prev = z2;
 305:libhydrogen\impl/x25519.h **** 
 306:libhydrogen\impl/x25519.h ****     /* Raise to the p-2 = 0x7f..ffeb */
ARM GAS  C:\Users\CCPOW_~1\AppData\Local\Temp\ccQfR6ec.s 			page 34


 307:libhydrogen\impl/x25519.h ****     for (i = 253; i >= 0; i--) {
 308:libhydrogen\impl/x25519.h ****         hydro_x25519_sqr(z3, prev);
 309:libhydrogen\impl/x25519.h ****         prev = z3;
 310:libhydrogen\impl/x25519.h ****         if (i >= 8 || (0xeb >> i & 1)) {
 311:libhydrogen\impl/x25519.h ****             hydro_x25519_mul1(z3, z2);
 312:libhydrogen\impl/x25519.h ****         }
 313:libhydrogen\impl/x25519.h ****     }
 314:libhydrogen\impl/x25519.h **** 
 315:libhydrogen\impl/x25519.h ****     /* Here prev = z3 */
 316:libhydrogen\impl/x25519.h ****     /* x2 /= z2 */
 317:libhydrogen\impl/x25519.h ****     hydro_x25519_mul1(x2, z3);
 318:libhydrogen\impl/x25519.h ****     ret = hydro_x25519_canon(x2);
 319:libhydrogen\impl/x25519.h ****     hydro_x25519_swapout(out, x2);
 320:libhydrogen\impl/x25519.h **** 
 321:libhydrogen\impl/x25519.h ****     if (clamp == 0) {
 322:libhydrogen\impl/x25519.h ****         return 0;
 323:libhydrogen\impl/x25519.h ****     }
 324:libhydrogen\impl/x25519.h ****     return ret;
 325:libhydrogen\impl/x25519.h **** }
 326:libhydrogen\impl/x25519.h **** 
 327:libhydrogen\impl/x25519.h **** static inline int
 328:libhydrogen\impl/x25519.h **** hydro_x25519_scalarmult_base(uint8_t       pk[hydro_x25519_PUBLICKEYBYTES],
 329:libhydrogen\impl/x25519.h ****                              const uint8_t sk[hydro_x25519_SECRETKEYBYTES])
 330:libhydrogen\impl/x25519.h **** {
 331:libhydrogen\impl/x25519.h ****     return hydro_x25519_scalarmult(pk, sk, hydro_x25519_BASE_POINT, 1);
 332:libhydrogen\impl/x25519.h **** }
 333:libhydrogen\impl/x25519.h **** 
 334:libhydrogen\impl/x25519.h **** static inline void
 335:libhydrogen\impl/x25519.h **** hydro_x25519_scalarmult_base_uniform(uint8_t       pk[hydro_x25519_PUBLICKEYBYTES],
 336:libhydrogen\impl/x25519.h ****                                      const uint8_t sk[hydro_x25519_SECRETKEYBYTES])
 337:libhydrogen\impl/x25519.h **** {
 338:libhydrogen\impl/x25519.h ****     if (hydro_x25519_scalarmult(pk, sk, hydro_x25519_BASE_POINT, 0) != 0) {
 339:libhydrogen\impl/x25519.h ****         abort();
 340:libhydrogen\impl/x25519.h ****     }
 341:libhydrogen\impl/x25519.h **** }
 342:libhydrogen\impl/x25519.h **** 
 343:libhydrogen\impl/x25519.h **** static void
 344:libhydrogen\impl/x25519.h **** hydro_x25519_sc_montmul(hydro_x25519_scalar_t out, const hydro_x25519_scalar_t a,
 345:libhydrogen\impl/x25519.h ****                         const hydro_x25519_scalar_t b)
 346:libhydrogen\impl/x25519.h **** {
 1037              		.loc 5 346 0
 1038              		.cfi_startproc
 1039              		@ args = 0, pretend = 0, frame = 136
 1040              		@ frame_needed = 0, uses_anonymous_args = 0
 1041              	.LVL106:
 1042 0000 0B00     		movs	r3, r1
 1043 0002 F0B5     		push	{r4, r5, r6, r7, lr}
 1044              		.cfi_def_cfa_offset 20
 1045              		.cfi_offset 4, -20
 1046              		.cfi_offset 5, -16
 1047              		.cfi_offset 6, -12
 1048              		.cfi_offset 7, -8
 1049              		.cfi_offset 14, -4
 1050 0004 2033     		adds	r3, r3, #32
 1051 0006 A3B0     		sub	sp, sp, #140
 1052              		.cfi_def_cfa_offset 160
 1053 0008 1E93     		str	r3, [sp, #120]
ARM GAS  C:\Users\CCPOW_~1\AppData\Local\Temp\ccQfR6ec.s 			page 35


 347:libhydrogen\impl/x25519.h ****     hydro_x25519_limb_t hic = 0;
 1054              		.loc 5 347 0
 1055 000a 0023     		movs	r3, #0
 346:libhydrogen\impl/x25519.h ****     hydro_x25519_limb_t hic = 0;
 1056              		.loc 5 346 0
 1057 000c 0700     		movs	r7, r0
 1058 000e 0C00     		movs	r4, r1
 1059 0010 1F92     		str	r2, [sp, #124]
 1060              		.loc 5 347 0
 1061 0012 1293     		str	r3, [sp, #72]
 1062              	.LVL107:
 1063              	.L59:
 1064              	.LBB87:
 348:libhydrogen\impl/x25519.h ****     int                 i, j;
 349:libhydrogen\impl/x25519.h **** 
 350:libhydrogen\impl/x25519.h ****     for (i = 0; i < hydro_x25519_NLIMBS; i++) {
 351:libhydrogen\impl/x25519.h ****         hydro_x25519_limb_t carry = 0, carry2 = 0, mand = a[i],
 1065              		.loc 5 351 0
 1066 0014 2368     		ldr	r3, [r4]
 352:libhydrogen\impl/x25519.h ****                             mand2 = hydro_x25519_MONTGOMERY_FACTOR;
 353:libhydrogen\impl/x25519.h **** 
 354:libhydrogen\impl/x25519.h ****         for (j = 0; j < hydro_x25519_NLIMBS; j++) {
 1067              		.loc 5 354 0
 1068 0016 0025     		movs	r5, #0
 351:libhydrogen\impl/x25519.h ****                             mand2 = hydro_x25519_MONTGOMERY_FACTOR;
 1069              		.loc 5 351 0
 1070 0018 1D93     		str	r3, [sp, #116]
 1071              	.LVL108:
 1072 001a 0023     		movs	r3, #0
 1073              	.LVL109:
 1074 001c 1C93     		str	r3, [sp, #112]
 1075 001e 1393     		str	r3, [sp, #76]
 352:libhydrogen\impl/x25519.h ****                             mand2 = hydro_x25519_MONTGOMERY_FACTOR;
 1076              		.loc 5 352 0
 1077 0020 544B     		ldr	r3, .L69
 1078 0022 3E1F     		subs	r6, r7, #4
 1079 0024 0793     		str	r3, [sp, #28]
 1080              	.LVL110:
 1081              	.L58:
 1082              	.LBB88:
 1083              	.LBB89:
 1084              	.LBB90:
  55:libhydrogen\impl/x25519.h **** 
 1085              		.loc 5 55 0
 1086 0026 1F9B     		ldr	r3, [sp, #124]
 1087 0028 AA00     		lsls	r2, r5, #2
 1088 002a 9B58     		ldr	r3, [r3, r2]
 1089 002c 1D9A     		ldr	r2, [sp, #116]
 1090 002e 0893     		str	r3, [sp, #32]
 1091              	.LVL111:
 1092 0030 0023     		movs	r3, #0
 1093 0032 0898     		ldr	r0, [sp, #32]
 1094 0034 1900     		movs	r1, r3
 1095 0036 FFF7FEFF 		bl	__aeabi_lmul
 1096              	.LVL112:
 1097 003a 7368     		ldr	r3, [r6, #4]
 1098              	.LVL113:
ARM GAS  C:\Users\CCPOW_~1\AppData\Local\Temp\ccQfR6ec.s 			page 36


 1099 003c 0890     		str	r0, [sp, #32]
 1100 003e 0991     		str	r1, [sp, #36]
 1101 0040 0293     		str	r3, [sp, #8]
 1102 0042 0023     		movs	r3, #0
 1103              	.LVL114:
 1104 0044 0393     		str	r3, [sp, #12]
 1105 0046 139B     		ldr	r3, [sp, #76]
 1106 0048 1493     		str	r3, [sp, #80]
 1107 004a 0023     		movs	r3, #0
 1108 004c 1593     		str	r3, [sp, #84]
 1109 004e 1498     		ldr	r0, [sp, #80]
 1110 0050 1599     		ldr	r1, [sp, #84]
 1111 0052 029A     		ldr	r2, [sp, #8]
 1112 0054 039B     		ldr	r3, [sp, #12]
 1113 0056 1218     		adds	r2, r2, r0
 1114 0058 4B41     		adcs	r3, r3, r1
 1115 005a 0898     		ldr	r0, [sp, #32]
 1116 005c 0999     		ldr	r1, [sp, #36]
 1117 005e 8018     		adds	r0, r0, r2
 1118 0060 5941     		adcs	r1, r1, r3
 1119 0062 0890     		str	r0, [sp, #32]
 1120 0064 0991     		str	r1, [sp, #36]
 1121              	.LVL115:
  57:libhydrogen\impl/x25519.h ****     return (hydro_x25519_limb_t) tmp;
 1122              		.loc 5 57 0
 1123 0066 099B     		ldr	r3, [sp, #36]
 1124 0068 0A93     		str	r3, [sp, #40]
 1125 006a 0023     		movs	r3, #0
 1126 006c 0B93     		str	r3, [sp, #44]
 1127              	.LVL116:
 1128 006e 0A9B     		ldr	r3, [sp, #40]
 1129 0070 1393     		str	r3, [sp, #76]
 1130              	.LVL117:
 1131              	.LBE90:
 1132              	.LBE89:
 355:libhydrogen\impl/x25519.h ****             hydro_x25519_limb_t acc = out[j];
 356:libhydrogen\impl/x25519.h **** 
 357:libhydrogen\impl/x25519.h ****             acc = hydro_x25519_umaal(&carry, acc, mand, b[j]);
 358:libhydrogen\impl/x25519.h ****             if (j == 0) {
 1133              		.loc 5 358 0
 1134 0072 002D     		cmp	r5, #0
 1135 0074 03D1     		bne	.L56
 359:libhydrogen\impl/x25519.h ****                 mand2 *= acc;
 1136              		.loc 5 359 0
 1137 0076 079B     		ldr	r3, [sp, #28]
 1138 0078 089A     		ldr	r2, [sp, #32]
 1139 007a 5343     		muls	r3, r2
 1140 007c 0793     		str	r3, [sp, #28]
 1141              	.LVL118:
 1142              	.L56:
 1143              	.LBB91:
 1144              	.LBB92:
  55:libhydrogen\impl/x25519.h **** 
 1145              		.loc 5 55 0
 1146 007e 3E4B     		ldr	r3, .L69+4
 1147 0080 AA00     		lsls	r2, r5, #2
 1148 0082 D058     		ldr	r0, [r2, r3]
ARM GAS  C:\Users\CCPOW_~1\AppData\Local\Temp\ccQfR6ec.s 			page 37


 1149 0084 0023     		movs	r3, #0
 1150 0086 079A     		ldr	r2, [sp, #28]
 1151 0088 1900     		movs	r1, r3
 1152 008a FFF7FEFF 		bl	__aeabi_lmul
 1153              	.LVL119:
 1154 008e 089B     		ldr	r3, [sp, #32]
 1155 0090 2090     		str	r0, [sp, #128]
 1156 0092 2191     		str	r1, [sp, #132]
 1157 0094 0493     		str	r3, [sp, #16]
 1158 0096 0023     		movs	r3, #0
 1159 0098 0593     		str	r3, [sp, #20]
 1160 009a 1C9B     		ldr	r3, [sp, #112]
 1161 009c 1693     		str	r3, [sp, #88]
 1162 009e 0023     		movs	r3, #0
 1163 00a0 1793     		str	r3, [sp, #92]
 1164 00a2 1698     		ldr	r0, [sp, #88]
 1165 00a4 1799     		ldr	r1, [sp, #92]
 1166 00a6 049A     		ldr	r2, [sp, #16]
 1167 00a8 059B     		ldr	r3, [sp, #20]
 1168 00aa 1218     		adds	r2, r2, r0
 1169 00ac 4B41     		adcs	r3, r3, r1
 1170 00ae 2098     		ldr	r0, [sp, #128]
 1171 00b0 2199     		ldr	r1, [sp, #132]
 1172 00b2 8018     		adds	r0, r0, r2
 1173 00b4 5941     		adcs	r1, r1, r3
 1174              	.LVL120:
  57:libhydrogen\impl/x25519.h ****     return (hydro_x25519_limb_t) tmp;
 1175              		.loc 5 57 0
 1176 00b6 0023     		movs	r3, #0
 1177 00b8 0C91     		str	r1, [sp, #48]
 1178 00ba 0D93     		str	r3, [sp, #52]
 1179              	.LVL121:
 1180 00bc 1C91     		str	r1, [sp, #112]
 1181              	.LVL122:
 1182              	.LBE92:
 1183              	.LBE91:
 360:libhydrogen\impl/x25519.h ****             }
 361:libhydrogen\impl/x25519.h ****             acc = hydro_x25519_umaal(&carry2, acc, mand2, hydro_x25519_sc_p[j]);
 362:libhydrogen\impl/x25519.h ****             if (j > 0) {
 1184              		.loc 5 362 0
 1185 00be 002D     		cmp	r5, #0
 1186 00c0 00D0     		beq	.L57
 363:libhydrogen\impl/x25519.h ****                 out[j - 1] = acc;
 1187              		.loc 5 363 0
 1188 00c2 3060     		str	r0, [r6]
 1189              	.L57:
 1190              	.LBE88:
 354:libhydrogen\impl/x25519.h ****             hydro_x25519_limb_t acc = out[j];
 1191              		.loc 5 354 0 discriminator 2
 1192 00c4 0135     		adds	r5, r5, #1
 1193              	.LVL123:
 1194 00c6 0436     		adds	r6, r6, #4
 1195 00c8 082D     		cmp	r5, #8
 1196 00ca ACD1     		bne	.L58
 1197              	.LVL124:
 1198              	.LBB93:
 1199              	.LBB94:
ARM GAS  C:\Users\CCPOW_~1\AppData\Local\Temp\ccQfR6ec.s 			page 38


  64:libhydrogen\impl/x25519.h **** 
 1200              		.loc 5 64 0 discriminator 2
 1201 00cc 0C98     		ldr	r0, [sp, #48]
 1202 00ce 0D99     		ldr	r1, [sp, #52]
 1203 00d0 0A9A     		ldr	r2, [sp, #40]
 1204 00d2 0B9B     		ldr	r3, [sp, #44]
 1205 00d4 1218     		adds	r2, r2, r0
 1206 00d6 4B41     		adcs	r3, r3, r1
 1207 00d8 1299     		ldr	r1, [sp, #72]
 1208              	.LVL125:
 1209 00da 0434     		adds	r4, r4, #4
 1210 00dc 0E91     		str	r1, [sp, #56]
 1211 00de 0021     		movs	r1, #0
 1212 00e0 0F91     		str	r1, [sp, #60]
 1213 00e2 0E98     		ldr	r0, [sp, #56]
 1214 00e4 0F99     		ldr	r1, [sp, #60]
 1215 00e6 1218     		adds	r2, r2, r0
 1216 00e8 4B41     		adcs	r3, r3, r1
 1217              	.LVL126:
  66:libhydrogen\impl/x25519.h ****     return (hydro_x25519_limb_t) total;
 1218              		.loc 5 66 0 discriminator 2
 1219 00ea 1293     		str	r3, [sp, #72]
 1220              	.LVL127:
 1221              	.LBE94:
 1222              	.LBE93:
 1223              	.LBE87:
 350:libhydrogen\impl/x25519.h ****         hydro_x25519_limb_t carry = 0, carry2 = 0, mand = a[i],
 1224              		.loc 5 350 0 discriminator 2
 1225 00ec 1E9B     		ldr	r3, [sp, #120]
 1226              	.LBB95:
 364:libhydrogen\impl/x25519.h ****             }
 365:libhydrogen\impl/x25519.h ****         }
 366:libhydrogen\impl/x25519.h **** 
 367:libhydrogen\impl/x25519.h ****         /* Add two carry registers and high carry */
 368:libhydrogen\impl/x25519.h ****         out[hydro_x25519_NLIMBS - 1] = hydro_x25519_adc(&hic, carry, carry2);
 1227              		.loc 5 368 0 discriminator 2
 1228 00ee FA61     		str	r2, [r7, #28]
 1229              	.LVL128:
 1230              	.LBE95:
 350:libhydrogen\impl/x25519.h ****         hydro_x25519_limb_t carry = 0, carry2 = 0, mand = a[i],
 1231              		.loc 5 350 0 discriminator 2
 1232 00f0 9C42     		cmp	r4, r3
 1233 00f2 8FD1     		bne	.L59
 369:libhydrogen\impl/x25519.h ****     }
 370:libhydrogen\impl/x25519.h **** 
 371:libhydrogen\impl/x25519.h ****     /* Reduce */
 372:libhydrogen\impl/x25519.h ****     hydro_x25519_sdlimb_t scarry = 0;
 373:libhydrogen\impl/x25519.h ****     for (i = 0; i < hydro_x25519_NLIMBS; i++) {
 374:libhydrogen\impl/x25519.h ****         out[i] = scarry = scarry + out[i] - hydro_x25519_sc_p[i];
 1234              		.loc 5 374 0 discriminator 3
 1235 00f4 2049     		ldr	r1, .L69+4
 1236 00f6 0024     		movs	r4, #0
 1237 00f8 0022     		movs	r2, #0
 1238              	.LVL129:
 1239 00fa 0023     		movs	r3, #0
 1240 00fc 8C46     		mov	ip, r1
 1241              	.LVL130:
ARM GAS  C:\Users\CCPOW_~1\AppData\Local\Temp\ccQfR6ec.s 			page 39


 1242              	.L60:
 1243 00fe 3959     		ldr	r1, [r7, r4]
 1244 0100 6546     		mov	r5, ip
 1245 0102 0091     		str	r1, [sp]
 1246 0104 0021     		movs	r1, #0
 1247 0106 2D59     		ldr	r5, [r5, r4]
 1248 0108 0191     		str	r1, [sp, #4]
 1249 010a 1895     		str	r5, [sp, #96]
 1250 010c 0025     		movs	r5, #0
 1251 010e 0098     		ldr	r0, [sp]
 1252 0110 0199     		ldr	r1, [sp, #4]
 1253 0112 8018     		adds	r0, r0, r2
 1254 0114 5941     		adcs	r1, r1, r3
 1255 0116 1995     		str	r5, [sp, #100]
 1256 0118 189D     		ldr	r5, [sp, #96]
 1257 011a 199E     		ldr	r6, [sp, #100]
 1258 011c 401B     		subs	r0, r0, r5
 1259 011e B141     		sbcs	r1, r1, r6
 1260              	.LVL131:
 1261 0120 3851     		str	r0, [r7, r4]
 1262 0122 0434     		adds	r4, r4, #4
 375:libhydrogen\impl/x25519.h ****         scarry >>= hydro_x25519_WBITS;
 1263              		.loc 5 375 0 discriminator 3
 1264 0124 0A00     		movs	r2, r1
 1265 0126 CB17     		asrs	r3, r1, #31
 1266              	.LVL132:
 373:libhydrogen\impl/x25519.h ****         out[i] = scarry = scarry + out[i] - hydro_x25519_sc_p[i];
 1267              		.loc 5 373 0 discriminator 3
 1268 0128 202C     		cmp	r4, #32
 1269 012a E8D1     		bne	.L60
 376:libhydrogen\impl/x25519.h ****     }
 377:libhydrogen\impl/x25519.h ****     hydro_x25519_limb_t need_add = -(scarry + hic);
 1270              		.loc 5 377 0
 1271 012c 0024     		movs	r4, #0
 378:libhydrogen\impl/x25519.h **** 
 379:libhydrogen\impl/x25519.h ****     hydro_x25519_limb_t carry = 0;
 1272              		.loc 5 379 0
 1273 012e 2600     		movs	r6, r4
 377:libhydrogen\impl/x25519.h **** 
 1274              		.loc 5 377 0
 1275 0130 1299     		ldr	r1, [sp, #72]
 1276 0132 8A18     		adds	r2, r1, r2
 1277              	.LVL133:
 1278 0134 5342     		rsbs	r3, r2, #0
 1279 0136 0293     		str	r3, [sp, #8]
 1280              	.LVL134:
 1281              	.L61:
 1282              	.LBB96:
 1283              	.LBB97:
  55:libhydrogen\impl/x25519.h **** 
 1284              		.loc 5 55 0 discriminator 3
 1285 0138 0023     		movs	r3, #0
 1286 013a 0F49     		ldr	r1, .L69+4
 1287 013c 029A     		ldr	r2, [sp, #8]
 1288 013e 6058     		ldr	r0, [r4, r1]
 1289 0140 1900     		movs	r1, r3
 1290 0142 FFF7FEFF 		bl	__aeabi_lmul
ARM GAS  C:\Users\CCPOW_~1\AppData\Local\Temp\ccQfR6ec.s 			page 40


 1291              	.LVL135:
 1292 0146 0B00     		movs	r3, r1
 1293 0148 3959     		ldr	r1, [r7, r4]
 1294              	.LVL136:
 1295 014a 1A96     		str	r6, [sp, #104]
 1296 014c 1091     		str	r1, [sp, #64]
 1297 014e 0021     		movs	r1, #0
 1298              	.LVL137:
 1299 0150 1B91     		str	r1, [sp, #108]
 1300 0152 1191     		str	r1, [sp, #68]
 1301 0154 0200     		movs	r2, r0
 1302 0156 1A9D     		ldr	r5, [sp, #104]
 1303 0158 1B9E     		ldr	r6, [sp, #108]
 1304 015a 1098     		ldr	r0, [sp, #64]
 1305 015c 1199     		ldr	r1, [sp, #68]
 1306 015e 4019     		adds	r0, r0, r5
 1307 0160 7141     		adcs	r1, r1, r6
 1308 0162 8018     		adds	r0, r0, r2
 1309 0164 5941     		adcs	r1, r1, r3
 1310              	.LVL138:
 1311              	.LBE97:
 1312              	.LBE96:
 380:libhydrogen\impl/x25519.h ****     for (i = 0; i < hydro_x25519_NLIMBS; i++) {
 381:libhydrogen\impl/x25519.h ****         out[i] = hydro_x25519_umaal(&carry, out[i], need_add, hydro_x25519_sc_p[i]);
 1313              		.loc 5 381 0 discriminator 3
 1314 0166 3851     		str	r0, [r7, r4]
 1315 0168 0434     		adds	r4, r4, #4
 1316              	.LVL139:
 1317              	.LBB99:
 1318              	.LBB98:
  57:libhydrogen\impl/x25519.h ****     return (hydro_x25519_limb_t) tmp;
 1319              		.loc 5 57 0 discriminator 3
 1320 016a 0E00     		movs	r6, r1
 1321              	.LVL140:
 1322              	.LBE98:
 1323              	.LBE99:
 380:libhydrogen\impl/x25519.h ****     for (i = 0; i < hydro_x25519_NLIMBS; i++) {
 1324              		.loc 5 380 0 discriminator 3
 1325 016c 202C     		cmp	r4, #32
 1326 016e E3D1     		bne	.L61
 382:libhydrogen\impl/x25519.h ****     }
 383:libhydrogen\impl/x25519.h **** }
 1327              		.loc 5 383 0
 1328 0170 23B0     		add	sp, sp, #140
 1329              		@ sp needed
 1330              	.LVL141:
 1331 0172 F0BD     		pop	{r4, r5, r6, r7, pc}
 1332              	.L70:
 1333              		.align	2
 1334              	.L69:
 1335 0174 1B7E5412 		.word	307527195
 1336 0178 00000000 		.word	.LANCHOR0
 1337              		.cfi_endproc
 1338              	.LFE77:
 1339              		.size	hydro_x25519_sc_montmul, .-hydro_x25519_sc_montmul
 1340              		.section	.text.hydro_kx_aead_setup,"ax",%progbits
 1341              		.align	1
ARM GAS  C:\Users\CCPOW_~1\AppData\Local\Temp\ccQfR6ec.s 			page 41


 1342              		.code	16
 1343              		.thumb_func
 1344              		.type	hydro_kx_aead_setup, %function
 1345              	hydro_kx_aead_setup:
 1346              	.LFB80:
 1347              		.file 6 "libhydrogen\\impl/kx.h"
   1:libhydrogen\impl/kx.h **** #define hydro_kx_AEAD_KEYBYTES hydro_hash_KEYBYTES
   2:libhydrogen\impl/kx.h **** #define hydro_kx_AEAD_MACBYTES 16
   3:libhydrogen\impl/kx.h **** #define hydro_kx_AEAD_HEADERBYTES hydro_kx_AEAD_MACBYTES
   4:libhydrogen\impl/kx.h **** 
   5:libhydrogen\impl/kx.h **** #define hydro_kx_CONTEXT "hydro_kx"
   6:libhydrogen\impl/kx.h **** #define hydro_kx_CONTEXT_CK_K "kdf_ck_k"
   7:libhydrogen\impl/kx.h **** 
   8:libhydrogen\impl/kx.h **** void
   9:libhydrogen\impl/kx.h **** hydro_kx_keygen(hydro_kx_keypair *static_kp)
  10:libhydrogen\impl/kx.h **** {
  11:libhydrogen\impl/kx.h ****     hydro_random_buf(static_kp->sk, hydro_kx_SECRETKEYBYTES);
  12:libhydrogen\impl/kx.h ****     if (hydro_x25519_scalarmult_base(static_kp->pk, static_kp->sk) != 0) {
  13:libhydrogen\impl/kx.h ****         abort();
  14:libhydrogen\impl/kx.h ****     }
  15:libhydrogen\impl/kx.h **** }
  16:libhydrogen\impl/kx.h **** 
  17:libhydrogen\impl/kx.h **** void
  18:libhydrogen\impl/kx.h **** hydro_kx_keygen_deterministic(hydro_kx_keypair *static_kp, const uint8_t seed[hydro_kx_SEEDBYTES])
  19:libhydrogen\impl/kx.h **** {
  20:libhydrogen\impl/kx.h ****     COMPILER_ASSERT(hydro_kx_SEEDBYTES >= hydro_random_SEEDBYTES);
  21:libhydrogen\impl/kx.h ****     hydro_random_buf_deterministic(static_kp->sk, hydro_kx_SECRETKEYBYTES, seed);
  22:libhydrogen\impl/kx.h ****     if (hydro_x25519_scalarmult_base(static_kp->pk, static_kp->sk) != 0) {
  23:libhydrogen\impl/kx.h ****         abort();
  24:libhydrogen\impl/kx.h ****     }
  25:libhydrogen\impl/kx.h **** }
  26:libhydrogen\impl/kx.h **** 
  27:libhydrogen\impl/kx.h **** static void
  28:libhydrogen\impl/kx.h **** hydro_kx_aead_setup(uint8_t buf[gimli_BLOCKBYTES], const hydro_kx_state *state,
  29:libhydrogen\impl/kx.h ****                     const uint8_t psk[hydro_kx_PSKBYTES])
  30:libhydrogen\impl/kx.h **** {
 1348              		.loc 6 30 0
 1349              		.cfi_startproc
 1350              		@ args = 0, pretend = 0, frame = 0
 1351              		@ frame_needed = 0, uses_anonymous_args = 0
 1352              	.LVL142:
 1353 0000 70B5     		push	{r4, r5, r6, lr}
 1354              		.cfi_def_cfa_offset 16
 1355              		.cfi_offset 4, -16
 1356              		.cfi_offset 5, -12
 1357              		.cfi_offset 6, -8
 1358              		.cfi_offset 14, -4
 1359              		.loc 6 30 0
 1360 0002 0400     		movs	r4, r0
 1361 0004 0D00     		movs	r5, r1
  31:libhydrogen\impl/kx.h ****     static const uint8_t prefix[] = { 6, 'k', 'x', 'x', '2', '5', '6', 0 };
  32:libhydrogen\impl/kx.h **** 
  33:libhydrogen\impl/kx.h ****     mem_zero(buf + sizeof prefix, gimli_BLOCKBYTES - sizeof prefix);
 1362              		.loc 6 33 0
 1363 0006 0830     		adds	r0, r0, #8
 1364              	.LVL143:
 1365 0008 2821     		movs	r1, #40
ARM GAS  C:\Users\CCPOW_~1\AppData\Local\Temp\ccQfR6ec.s 			page 42


 1366              	.LVL144:
  30:libhydrogen\impl/kx.h ****     static const uint8_t prefix[] = { 6, 'k', 'x', 'x', '2', '5', '6', 0 };
 1367              		.loc 6 30 0
 1368 000a 1600     		movs	r6, r2
 1369              		.loc 6 33 0
 1370 000c FFF7FEFF 		bl	mem_zero
 1371              	.LVL145:
  34:libhydrogen\impl/kx.h ****     memcpy(buf, prefix, sizeof prefix);
 1372              		.loc 6 34 0
 1373 0010 2349     		ldr	r1, .L76
 1374 0012 0822     		movs	r2, #8
 1375 0014 2031     		adds	r1, r1, #32
 1376 0016 2000     		movs	r0, r4
 1377 0018 FFF7FEFF 		bl	memcpy
 1378              	.LVL146:
  35:libhydrogen\impl/kx.h ****     gimli_core_u8(buf, gimli_TAG_HEADER);
 1379              		.loc 6 35 0
 1380 001c 0121     		movs	r1, #1
 1381 001e 2000     		movs	r0, r4
 1382 0020 FFF7FEFF 		bl	gimli_core_u8
 1383              	.LVL147:
  36:libhydrogen\impl/kx.h **** 
  37:libhydrogen\impl/kx.h ****     COMPILER_ASSERT(hydro_kx_AEAD_KEYBYTES == 2 * gimli_RATE);
  38:libhydrogen\impl/kx.h ****     mem_xor(buf, state->k, gimli_RATE);
 1384              		.loc 6 38 0
 1385 0024 2900     		movs	r1, r5
 1386 0026 1022     		movs	r2, #16
 1387 0028 8031     		adds	r1, r1, #128
 1388 002a 2000     		movs	r0, r4
 1389 002c FFF7FEFF 		bl	mem_xor
 1390              	.LVL148:
  39:libhydrogen\impl/kx.h ****     gimli_core_u8(buf, gimli_TAG_KEY);
 1391              		.loc 6 39 0
 1392 0030 FF21     		movs	r1, #255
 1393 0032 2000     		movs	r0, r4
 1394 0034 FFF7FEFF 		bl	gimli_core_u8
 1395              	.LVL149:
  40:libhydrogen\impl/kx.h ****     mem_xor(buf, state->k + gimli_RATE, gimli_RATE);
 1396              		.loc 6 40 0
 1397 0038 2900     		movs	r1, r5
 1398 003a 1022     		movs	r2, #16
 1399 003c 9031     		adds	r1, r1, #144
 1400 003e 2000     		movs	r0, r4
 1401 0040 FFF7FEFF 		bl	mem_xor
 1402              	.LVL150:
  41:libhydrogen\impl/kx.h ****     gimli_core_u8(buf, gimli_TAG_KEY);
 1403              		.loc 6 41 0
 1404 0044 FF21     		movs	r1, #255
 1405 0046 2000     		movs	r0, r4
 1406 0048 FFF7FEFF 		bl	gimli_core_u8
 1407              	.LVL151:
  42:libhydrogen\impl/kx.h **** 
  43:libhydrogen\impl/kx.h ****     COMPILER_ASSERT(sizeof state->h == 2 * gimli_RATE);
  44:libhydrogen\impl/kx.h ****     mem_xor(buf, state->h, gimli_RATE);
 1408              		.loc 6 44 0
 1409 004c 2900     		movs	r1, r5
 1410 004e 1022     		movs	r2, #16
ARM GAS  C:\Users\CCPOW_~1\AppData\Local\Temp\ccQfR6ec.s 			page 43


 1411 0050 4031     		adds	r1, r1, #64
 1412 0052 2000     		movs	r0, r4
 1413 0054 FFF7FEFF 		bl	mem_xor
 1414              	.LVL152:
  45:libhydrogen\impl/kx.h ****     gimli_core_u8(buf, gimli_TAG_HEADER);
 1415              		.loc 6 45 0
 1416 0058 0121     		movs	r1, #1
 1417 005a 2000     		movs	r0, r4
 1418 005c FFF7FEFF 		bl	gimli_core_u8
 1419              	.LVL153:
  46:libhydrogen\impl/kx.h ****     mem_xor(buf, state->h + gimli_RATE, gimli_RATE);
 1420              		.loc 6 46 0
 1421 0060 2900     		movs	r1, r5
 1422 0062 2000     		movs	r0, r4
 1423 0064 5031     		adds	r1, r1, #80
 1424 0066 1022     		movs	r2, #16
 1425 0068 FFF7FEFF 		bl	mem_xor
 1426              	.LVL154:
  47:libhydrogen\impl/kx.h ****     gimli_core_u8(buf, gimli_TAG_HEADER);
 1427              		.loc 6 47 0
 1428 006c 0121     		movs	r1, #1
 1429 006e 2000     		movs	r0, r4
 1430 0070 FFF7FEFF 		bl	gimli_core_u8
 1431              	.LVL155:
  48:libhydrogen\impl/kx.h **** 
  49:libhydrogen\impl/kx.h ****     if (psk != NULL) {
 1432              		.loc 6 49 0
 1433 0074 002E     		cmp	r6, #0
 1434 0076 12D0     		beq	.L71
  50:libhydrogen\impl/kx.h ****         COMPILER_ASSERT(hydro_kx_PSKBYTES == 2 * gimli_RATE);
  51:libhydrogen\impl/kx.h ****         mem_xor(buf, psk, gimli_RATE);
 1435              		.loc 6 51 0
 1436 0078 1022     		movs	r2, #16
 1437 007a 3100     		movs	r1, r6
 1438 007c 2000     		movs	r0, r4
 1439 007e FFF7FEFF 		bl	mem_xor
 1440              	.LVL156:
  52:libhydrogen\impl/kx.h ****         gimli_core_u8(buf, gimli_TAG_HEADER);
 1441              		.loc 6 52 0
 1442 0082 0121     		movs	r1, #1
 1443 0084 2000     		movs	r0, r4
 1444 0086 FFF7FEFF 		bl	gimli_core_u8
 1445              	.LVL157:
  53:libhydrogen\impl/kx.h ****         mem_xor(buf, psk + gimli_RATE, gimli_RATE);
 1446              		.loc 6 53 0
 1447 008a 3100     		movs	r1, r6
 1448 008c 2000     		movs	r0, r4
 1449 008e 1031     		adds	r1, r1, #16
 1450 0090 1022     		movs	r2, #16
 1451 0092 FFF7FEFF 		bl	mem_xor
 1452              	.LVL158:
  54:libhydrogen\impl/kx.h ****         gimli_core_u8(buf, gimli_TAG_HEADER);
 1453              		.loc 6 54 0
 1454 0096 0121     		movs	r1, #1
 1455 0098 2000     		movs	r0, r4
 1456 009a FFF7FEFF 		bl	gimli_core_u8
 1457              	.LVL159:
ARM GAS  C:\Users\CCPOW_~1\AppData\Local\Temp\ccQfR6ec.s 			page 44


 1458              	.L71:
  55:libhydrogen\impl/kx.h ****     }
  56:libhydrogen\impl/kx.h **** }
 1459              		.loc 6 56 0
 1460              		@ sp needed
 1461              	.LVL160:
 1462              	.LVL161:
 1463              	.LVL162:
 1464 009e 70BD     		pop	{r4, r5, r6, pc}
 1465              	.L77:
 1466              		.align	2
 1467              	.L76:
 1468 00a0 00000000 		.word	.LANCHOR0
 1469              		.cfi_endproc
 1470              	.LFE80:
 1471              		.size	hydro_kx_aead_setup, .-hydro_kx_aead_setup
 1472              		.section	.text.hydro_kx_finalize,"ax",%progbits
 1473              		.align	1
 1474              		.code	16
 1475              		.thumb_func
 1476              		.type	hydro_kx_finalize, %function
 1477              	hydro_kx_finalize:
 1478              	.LFB81:
  57:libhydrogen\impl/kx.h **** 
  58:libhydrogen\impl/kx.h **** static void
  59:libhydrogen\impl/kx.h **** hydro_kx_finalize(uint8_t *buf, const uint8_t key[hydro_kx_AEAD_KEYBYTES])
  60:libhydrogen\impl/kx.h **** {
 1479              		.loc 6 60 0
 1480              		.cfi_startproc
 1481              		@ args = 0, pretend = 0, frame = 0
 1482              		@ frame_needed = 0, uses_anonymous_args = 0
 1483              	.LVL163:
 1484 0000 70B5     		push	{r4, r5, r6, lr}
 1485              		.cfi_def_cfa_offset 16
 1486              		.cfi_offset 4, -16
 1487              		.cfi_offset 5, -12
 1488              		.cfi_offset 6, -8
 1489              		.cfi_offset 14, -4
  61:libhydrogen\impl/kx.h ****     COMPILER_ASSERT(hydro_kx_AEAD_KEYBYTES == gimli_CAPACITY);
  62:libhydrogen\impl/kx.h ****     mem_xor(buf + gimli_RATE, key, hydro_kx_AEAD_KEYBYTES);
 1490              		.loc 6 62 0
 1491 0002 0500     		movs	r5, r0
  60:libhydrogen\impl/kx.h ****     COMPILER_ASSERT(hydro_kx_AEAD_KEYBYTES == gimli_CAPACITY);
 1492              		.loc 6 60 0
 1493 0004 0400     		movs	r4, r0
 1494 0006 0E00     		movs	r6, r1
 1495              		.loc 6 62 0
 1496 0008 1035     		adds	r5, r5, #16
 1497 000a 2800     		movs	r0, r5
 1498              	.LVL164:
 1499 000c 2022     		movs	r2, #32
 1500 000e FFF7FEFF 		bl	mem_xor
 1501              	.LVL165:
  63:libhydrogen\impl/kx.h ****     gimli_core_u8(buf, gimli_TAG_FINAL);
 1502              		.loc 6 63 0
 1503 0012 2000     		movs	r0, r4
 1504 0014 0821     		movs	r1, #8
ARM GAS  C:\Users\CCPOW_~1\AppData\Local\Temp\ccQfR6ec.s 			page 45


 1505 0016 FFF7FEFF 		bl	gimli_core_u8
 1506              	.LVL166:
  64:libhydrogen\impl/kx.h ****     mem_xor(buf + gimli_RATE, key, hydro_kx_AEAD_KEYBYTES);
 1507              		.loc 6 64 0
 1508 001a 3100     		movs	r1, r6
 1509 001c 2800     		movs	r0, r5
 1510 001e 2022     		movs	r2, #32
 1511 0020 FFF7FEFF 		bl	mem_xor
 1512              	.LVL167:
  65:libhydrogen\impl/kx.h ****     gimli_core_u8(buf, gimli_TAG_FINAL);
 1513              		.loc 6 65 0
 1514 0024 0821     		movs	r1, #8
 1515 0026 2000     		movs	r0, r4
 1516 0028 FFF7FEFF 		bl	gimli_core_u8
 1517              	.LVL168:
  66:libhydrogen\impl/kx.h **** }
 1518              		.loc 6 66 0
 1519              		@ sp needed
 1520              	.LVL169:
 1521              	.LVL170:
 1522              	.LVL171:
 1523 002c 70BD     		pop	{r4, r5, r6, pc}
 1524              		.cfi_endproc
 1525              	.LFE81:
 1526              		.size	hydro_kx_finalize, .-hydro_kx_finalize
 1527              		.section	.text.hydro_secretbox_setup,"ax",%progbits
 1528              		.align	1
 1529              		.code	16
 1530              		.thumb_func
 1531              		.type	hydro_secretbox_setup, %function
 1532              	hydro_secretbox_setup:
 1533              	.LFB50:
  58:libhydrogen\impl/secretbox.h ****     static const uint8_t prefix[] = { 6, 's', 'b', 'x', '2', '5', '6', 8 };
 1534              		.loc 4 58 0
 1535              		.cfi_startproc
 1536              		@ args = 16, pretend = 0, frame = 24
 1537              		@ frame_needed = 0, uses_anonymous_args = 0
 1538              	.LVL172:
 1539 0000 F0B5     		push	{r4, r5, r6, r7, lr}
 1540              		.cfi_def_cfa_offset 20
 1541              		.cfi_offset 4, -20
 1542              		.cfi_offset 5, -16
 1543              		.cfi_offset 6, -12
 1544              		.cfi_offset 7, -8
 1545              		.cfi_offset 14, -4
 1546 0002 0400     		movs	r4, r0
  65:libhydrogen\impl/secretbox.h ****     memcpy(buf + sizeof prefix, ctx, hydro_secretbox_CONTEXTBYTES);
 1547              		.loc 4 65 0
 1548 0004 0825     		movs	r5, #8
  58:libhydrogen\impl/secretbox.h ****     static const uint8_t prefix[] = { 6, 's', 'b', 'x', '2', '5', '6', 8 };
 1549              		.loc 4 58 0
 1550 0006 87B0     		sub	sp, sp, #28
 1551              		.cfi_def_cfa_offset 48
  58:libhydrogen\impl/secretbox.h ****     static const uint8_t prefix[] = { 6, 's', 'b', 'x', '2', '5', '6', 8 };
 1552              		.loc 4 58 0
 1553 0008 1F00     		movs	r7, r3
 1554 000a 0FAB     		add	r3, sp, #60
ARM GAS  C:\Users\CCPOW_~1\AppData\Local\Temp\ccQfR6ec.s 			page 46


 1555              	.LVL173:
 1556 000c 1B78     		ldrb	r3, [r3]
 1557              	.LVL174:
  62:libhydrogen\impl/secretbox.h ****     COMPILER_ASSERT(hydro_secretbox_CONTEXTBYTES == 8);
 1558              		.loc 4 62 0
 1559 000e 3021     		movs	r1, #48
  58:libhydrogen\impl/secretbox.h ****     static const uint8_t prefix[] = { 6, 's', 'b', 'x', '2', '5', '6', 8 };
 1560              		.loc 4 58 0
 1561 0010 0193     		str	r3, [sp, #4]
 1562 0012 1600     		movs	r6, r2
  62:libhydrogen\impl/secretbox.h ****     COMPILER_ASSERT(hydro_secretbox_CONTEXTBYTES == 8);
 1563              		.loc 4 62 0
 1564 0014 FFF7FEFF 		bl	mem_zero
 1565              	.LVL175:
  65:libhydrogen\impl/secretbox.h ****     memcpy(buf + sizeof prefix, ctx, hydro_secretbox_CONTEXTBYTES);
 1566              		.loc 4 65 0
 1567 0018 2349     		ldr	r1, .L80
 1568 001a 2A00     		movs	r2, r5
 1569 001c 2831     		adds	r1, r1, #40
 1570 001e 2000     		movs	r0, r4
 1571 0020 FFF7FEFF 		bl	memcpy
 1572              	.LVL176:
  66:libhydrogen\impl/secretbox.h ****     COMPILER_ASSERT(sizeof prefix + hydro_secretbox_CONTEXTBYTES == gimli_RATE);
 1573              		.loc 4 66 0
 1574 0024 2A00     		movs	r2, r5
 1575 0026 0C99     		ldr	r1, [sp, #48]
 1576 0028 6019     		adds	r0, r4, r5
 1577 002a FFF7FEFF 		bl	memcpy
 1578              	.LVL177:
  68:libhydrogen\impl/secretbox.h **** 
 1579              		.loc 4 68 0
 1580 002e 2000     		movs	r0, r4
 1581 0030 0121     		movs	r1, #1
 1582 0032 FFF7FEFF 		bl	gimli_core_u8
 1583              	.LVL178:
  71:libhydrogen\impl/secretbox.h ****     gimli_core_u8(buf, key_tag);
 1584              		.loc 4 71 0
 1585 0036 1022     		movs	r2, #16
 1586 0038 0D99     		ldr	r1, [sp, #52]
 1587 003a 2000     		movs	r0, r4
 1588 003c FFF7FEFF 		bl	mem_xor
 1589              	.LVL179:
  72:libhydrogen\impl/secretbox.h ****     mem_xor(buf, key + gimli_RATE, gimli_RATE);
 1590              		.loc 4 72 0
 1591 0040 0199     		ldr	r1, [sp, #4]
 1592 0042 2000     		movs	r0, r4
 1593 0044 FFF7FEFF 		bl	gimli_core_u8
 1594              	.LVL180:
  73:libhydrogen\impl/secretbox.h ****     gimli_core_u8(buf, key_tag);
 1595              		.loc 4 73 0
 1596 0048 0D99     		ldr	r1, [sp, #52]
 1597 004a 1022     		movs	r2, #16
 1598 004c 2000     		movs	r0, r4
 1599 004e 1031     		adds	r1, r1, #16
 1600 0050 FFF7FEFF 		bl	mem_xor
 1601              	.LVL181:
  74:libhydrogen\impl/secretbox.h **** 
ARM GAS  C:\Users\CCPOW_~1\AppData\Local\Temp\ccQfR6ec.s 			page 47


 1602              		.loc 4 74 0
 1603 0054 0199     		ldr	r1, [sp, #4]
 1604 0056 2000     		movs	r0, r4
 1605 0058 FFF7FEFF 		bl	gimli_core_u8
 1606              	.LVL182:
  77:libhydrogen\impl/secretbox.h ****     mem_xor(&buf[1], iv, gimli_RATE - 1);
 1607              		.loc 4 77 0
 1608 005c 1422     		movs	r2, #20
 1609 005e 2378     		ldrb	r3, [r4]
  78:libhydrogen\impl/secretbox.h ****     gimli_core_u8(buf, gimli_TAG_HEADER);
 1610              		.loc 4 78 0
 1611 0060 601C     		adds	r0, r4, #1
  77:libhydrogen\impl/secretbox.h ****     mem_xor(&buf[1], iv, gimli_RATE - 1);
 1612              		.loc 4 77 0
 1613 0062 5340     		eors	r3, r2
 1614 0064 2370     		strb	r3, [r4]
  78:libhydrogen\impl/secretbox.h ****     gimli_core_u8(buf, gimli_TAG_HEADER);
 1615              		.loc 4 78 0
 1616 0066 053A     		subs	r2, r2, #5
 1617 0068 0E99     		ldr	r1, [sp, #56]
 1618 006a FFF7FEFF 		bl	mem_xor
 1619              	.LVL183:
  79:libhydrogen\impl/secretbox.h ****     mem_xor(buf, iv + gimli_RATE - 1, hydro_secretbox_IVBYTES - (gimli_RATE - 1));
 1620              		.loc 4 79 0
 1621 006e 2000     		movs	r0, r4
 1622 0070 0121     		movs	r1, #1
 1623 0072 FFF7FEFF 		bl	gimli_core_u8
 1624              	.LVL184:
  80:libhydrogen\impl/secretbox.h ****     STORE64_LE(msg_id_le, msg_id);
 1625              		.loc 4 80 0
 1626 0076 0E99     		ldr	r1, [sp, #56]
 1627 0078 2000     		movs	r0, r4
 1628 007a 0F31     		adds	r1, r1, #15
 1629 007c 0522     		movs	r2, #5
 1630 007e FFF7FEFF 		bl	mem_xor
 1631              	.LVL185:
 1632              	.LBB100:
 1633              	.LBB101:
  75:libhydrogen\impl/common.h **** #else
 1634              		.loc 1 75 0
 1635 0082 2A00     		movs	r2, r5
 1636 0084 02A9     		add	r1, sp, #8
 1637 0086 04A8     		add	r0, sp, #16
 1638              	.LVL186:
 1639 0088 0296     		str	r6, [sp, #8]
 1640 008a 0397     		str	r7, [sp, #12]
 1641 008c FFF7FEFF 		bl	memcpy
 1642              	.LVL187:
 1643              	.LBE101:
 1644              	.LBE100:
  83:libhydrogen\impl/secretbox.h ****     gimli_core_u8(buf, gimli_TAG_HEADER);
 1645              		.loc 4 83 0
 1646 0090 201D     		adds	r0, r4, #4
 1647 0092 2A00     		movs	r2, r5
 1648 0094 04A9     		add	r1, sp, #16
 1649 0096 FFF7FEFF 		bl	mem_xor
 1650              	.LVL188:
ARM GAS  C:\Users\CCPOW_~1\AppData\Local\Temp\ccQfR6ec.s 			page 48


  84:libhydrogen\impl/secretbox.h **** }
 1651              		.loc 4 84 0
 1652 009a 0121     		movs	r1, #1
 1653 009c 2000     		movs	r0, r4
 1654 009e FFF7FEFF 		bl	gimli_core_u8
 1655              	.LVL189:
  85:libhydrogen\impl/secretbox.h **** 
 1656              		.loc 4 85 0
 1657 00a2 07B0     		add	sp, sp, #28
 1658              		@ sp needed
 1659              	.LVL190:
 1660 00a4 F0BD     		pop	{r4, r5, r6, r7, pc}
 1661              	.L81:
 1662 00a6 C046     		.align	2
 1663              	.L80:
 1664 00a8 00000000 		.word	.LANCHOR0
 1665              		.cfi_endproc
 1666              	.LFE50:
 1667              		.size	hydro_secretbox_setup, .-hydro_secretbox_setup
 1668              		.section	.text.hydro_x25519_swapin,"ax",%progbits
 1669              		.align	1
 1670              		.code	16
 1671              		.thumb_func
 1672              		.type	hydro_x25519_swapin, %function
 1673              	hydro_x25519_swapin:
 1674              	.LFB63:
 120:libhydrogen\impl/x25519.h ****     int i;
 1675              		.loc 5 120 0
 1676              		.cfi_startproc
 1677              		@ args = 0, pretend = 0, frame = 0
 1678              		@ frame_needed = 0, uses_anonymous_args = 0
 1679              	.LVL191:
 1680 0000 10B5     		push	{r4, lr}
 1681              		.cfi_def_cfa_offset 8
 1682              		.cfi_offset 4, -8
 1683              		.cfi_offset 14, -4
 123:libhydrogen\impl/x25519.h ****     for (i = 0; i < hydro_x25519_NLIMBS; i++) {
 1684              		.loc 5 123 0
 1685 0002 2022     		movs	r2, #32
 1686 0004 FFF7FEFF 		bl	memcpy
 1687              	.LVL192:
 127:libhydrogen\impl/x25519.h **** 
 1688              		.loc 5 127 0
 1689              		@ sp needed
 1690 0008 10BD     		pop	{r4, pc}
 1691              		.cfi_endproc
 1692              	.LFE63:
 1693              		.size	hydro_x25519_swapin, .-hydro_x25519_swapin
 1694              		.section	.text.hydro_x25519_swapout,"ax",%progbits
 1695              		.align	1
 1696              		.code	16
 1697              		.thumb_func
 1698              		.type	hydro_x25519_swapout, %function
 1699              	hydro_x25519_swapout:
 1700              	.LFB64:
 131:libhydrogen\impl/x25519.h ****     int i;
 1701              		.loc 5 131 0
ARM GAS  C:\Users\CCPOW_~1\AppData\Local\Temp\ccQfR6ec.s 			page 49


 1702              		.cfi_startproc
 1703              		@ args = 0, pretend = 0, frame = 0
 1704              		@ frame_needed = 0, uses_anonymous_args = 0
 1705              	.LVL193:
 1706 0000 10B5     		push	{r4, lr}
 1707              		.cfi_def_cfa_offset 8
 1708              		.cfi_offset 4, -8
 1709              		.cfi_offset 14, -4
 137:libhydrogen\impl/x25519.h **** }
 1710              		.loc 5 137 0
 1711 0002 2022     		movs	r2, #32
 1712 0004 FFF7FEFF 		bl	memcpy
 1713              	.LVL194:
 138:libhydrogen\impl/x25519.h **** 
 1714              		.loc 5 138 0
 1715              		@ sp needed
 1716 0008 10BD     		pop	{r4, pc}
 1717              		.cfi_endproc
 1718              	.LFE64:
 1719              		.size	hydro_x25519_swapout, .-hydro_x25519_swapout
 1720              		.section	.text.hydro_kx_aead_xor_enc,"ax",%progbits
 1721              		.align	1
 1722              		.code	16
 1723              		.thumb_func
 1724              		.type	hydro_kx_aead_xor_enc, %function
 1725              	hydro_kx_aead_xor_enc:
 1726              	.LFB82:
  67:libhydrogen\impl/kx.h **** 
  68:libhydrogen\impl/kx.h **** static void
  69:libhydrogen\impl/kx.h **** hydro_kx_aead_xor_enc(uint8_t buf[gimli_BLOCKBYTES], uint8_t *out, const uint8_t *in, size_t inlen)
  70:libhydrogen\impl/kx.h **** {
 1727              		.loc 6 70 0
 1728              		.cfi_startproc
 1729              		@ args = 0, pretend = 0, frame = 16
 1730              		@ frame_needed = 0, uses_anonymous_args = 0
 1731              	.LVL195:
 1732 0000 F0B5     		push	{r4, r5, r6, r7, lr}
 1733              		.cfi_def_cfa_offset 20
 1734              		.cfi_offset 4, -20
 1735              		.cfi_offset 5, -16
 1736              		.cfi_offset 6, -12
 1737              		.cfi_offset 7, -8
 1738              		.cfi_offset 14, -4
 1739 0002 0D00     		movs	r5, r1
 1740 0004 0400     		movs	r4, r0
 1741 0006 1700     		movs	r7, r2
 1742 0008 85B0     		sub	sp, sp, #20
 1743              		.cfi_def_cfa_offset 40
 1744 000a 1909     		lsrs	r1, r3, #4
 1745              	.LVL196:
 1746              		.loc 6 70 0
 1747 000c 0393     		str	r3, [sp, #12]
 1748 000e 0B01     		lsls	r3, r1, #4
 1749              	.LVL197:
 1750 0010 0292     		str	r2, [sp, #8]
 1751 0012 0193     		str	r3, [sp, #4]
 1752 0014 EE18     		adds	r6, r5, r3
ARM GAS  C:\Users\CCPOW_~1\AppData\Local\Temp\ccQfR6ec.s 			page 50


 1753              	.LVL198:
 1754              	.L85:
  71:libhydrogen\impl/kx.h ****     size_t i;
  72:libhydrogen\impl/kx.h ****     size_t leftover;
  73:libhydrogen\impl/kx.h **** 
  74:libhydrogen\impl/kx.h ****     for (i = 0; i < inlen / gimli_RATE; i++) {
 1755              		.loc 6 74 0 discriminator 1
 1756 0016 AE42     		cmp	r6, r5
 1757 0018 11D0     		beq	.L91
  75:libhydrogen\impl/kx.h ****         mem_xor2(&out[i * gimli_RATE], &in[i * gimli_RATE], buf, gimli_RATE);
 1758              		.loc 6 75 0 discriminator 3
 1759 001a 1023     		movs	r3, #16
 1760 001c 3900     		movs	r1, r7
 1761 001e 2800     		movs	r0, r5
 1762 0020 2200     		movs	r2, r4
 1763 0022 FFF7FEFF 		bl	mem_xor2
 1764              	.LVL199:
  76:libhydrogen\impl/kx.h ****         memcpy(buf, &out[i * gimli_RATE], gimli_RATE);
 1765              		.loc 6 76 0 discriminator 3
 1766 0026 2900     		movs	r1, r5
 1767 0028 1022     		movs	r2, #16
 1768 002a 2000     		movs	r0, r4
 1769 002c FFF7FEFF 		bl	memcpy
 1770              	.LVL200:
  77:libhydrogen\impl/kx.h ****         gimli_core_u8(buf, gimli_TAG_PAYLOAD);
 1771              		.loc 6 77 0 discriminator 3
 1772 0030 0221     		movs	r1, #2
 1773 0032 2000     		movs	r0, r4
 1774 0034 FFF7FEFF 		bl	gimli_core_u8
 1775              	.LVL201:
 1776 0038 1035     		adds	r5, r5, #16
 1777 003a 1037     		adds	r7, r7, #16
 1778 003c EBE7     		b	.L85
 1779              	.L91:
  78:libhydrogen\impl/kx.h ****     }
  79:libhydrogen\impl/kx.h ****     leftover = inlen % gimli_RATE;
 1780              		.loc 6 79 0
 1781 003e 0F25     		movs	r5, #15
 1782 0040 039B     		ldr	r3, [sp, #12]
 1783 0042 2B40     		ands	r3, r5
 1784 0044 1D1E     		subs	r5, r3, #0
 1785              	.LVL202:
  80:libhydrogen\impl/kx.h ****     if (leftover != 0) {
 1786              		.loc 6 80 0
 1787 0046 0ED0     		beq	.L87
  81:libhydrogen\impl/kx.h ****         mem_xor2(&out[i * gimli_RATE], &in[i * gimli_RATE], buf, leftover);
 1788              		.loc 6 81 0
 1789 0048 019A     		ldr	r2, [sp, #4]
 1790 004a 029B     		ldr	r3, [sp, #8]
 1791              	.LVL203:
 1792 004c 9446     		mov	ip, r2
 1793 004e 6344     		add	r3, r3, ip
 1794 0050 1900     		movs	r1, r3
 1795 0052 2200     		movs	r2, r4
 1796 0054 3000     		movs	r0, r6
 1797 0056 2B00     		movs	r3, r5
 1798 0058 FFF7FEFF 		bl	mem_xor2
ARM GAS  C:\Users\CCPOW_~1\AppData\Local\Temp\ccQfR6ec.s 			page 51


 1799              	.LVL204:
  82:libhydrogen\impl/kx.h ****         mem_cpy(buf, &out[i * gimli_RATE], leftover);
 1800              		.loc 6 82 0
 1801 005c 2A00     		movs	r2, r5
 1802 005e 3100     		movs	r1, r6
 1803 0060 2000     		movs	r0, r4
 1804 0062 FFF7FEFF 		bl	mem_cpy
 1805              	.LVL205:
 1806              	.L87:
 1807              	.LBB108:
 1808              	.LBB109:
 1809              		.file 7 "libhydrogen\\impl/hydrogen_p.h"
   1:libhydrogen\impl/hydrogen_p.h **** static int hydro_random_init(void);
   2:libhydrogen\impl/hydrogen_p.h **** 
   3:libhydrogen\impl/hydrogen_p.h **** /* ---------------- */
   4:libhydrogen\impl/hydrogen_p.h **** 
   5:libhydrogen\impl/hydrogen_p.h **** #define gimli_BLOCKBYTES 48
   6:libhydrogen\impl/hydrogen_p.h **** #define gimli_CAPACITY   32
   7:libhydrogen\impl/hydrogen_p.h **** #define gimli_RATE       16
   8:libhydrogen\impl/hydrogen_p.h **** 
   9:libhydrogen\impl/hydrogen_p.h **** #define gimli_TAG_HEADER  0x01
  10:libhydrogen\impl/hydrogen_p.h **** #define gimli_TAG_PAYLOAD 0x02
  11:libhydrogen\impl/hydrogen_p.h **** #define gimli_TAG_FINAL   0x08
  12:libhydrogen\impl/hydrogen_p.h **** #define gimli_TAG_FINAL0  0xf8
  13:libhydrogen\impl/hydrogen_p.h **** #define gimli_TAG_KEY0    0xfe
  14:libhydrogen\impl/hydrogen_p.h **** #define gimli_TAG_KEY     0xff
  15:libhydrogen\impl/hydrogen_p.h **** 
  16:libhydrogen\impl/hydrogen_p.h **** #define gimli_DOMAIN_AEAD 0x0
  17:libhydrogen\impl/hydrogen_p.h **** #define gimli_DOMAIN_XOF  0xf
  18:libhydrogen\impl/hydrogen_p.h **** 
  19:libhydrogen\impl/hydrogen_p.h **** static void gimli_core_u8(uint8_t state_u8[gimli_BLOCKBYTES], uint8_t tag);
  20:libhydrogen\impl/hydrogen_p.h **** 
  21:libhydrogen\impl/hydrogen_p.h **** static inline void
  22:libhydrogen\impl/hydrogen_p.h **** gimli_pad_u8(uint8_t buf[gimli_BLOCKBYTES], size_t pos, uint8_t domain)
  23:libhydrogen\impl/hydrogen_p.h **** {
  24:libhydrogen\impl/hydrogen_p.h ****     buf[pos] ^= (domain << 1) | 1;
 1810              		.loc 7 24 0
 1811 0066 0122     		movs	r2, #1
 1812 0068 6519     		adds	r5, r4, r5
 1813              	.LVL206:
 1814 006a 2B78     		ldrb	r3, [r5]
 1815              	.LBE109:
 1816              	.LBE108:
  83:libhydrogen\impl/kx.h ****     }
  84:libhydrogen\impl/kx.h ****     gimli_pad_u8(buf, leftover, gimli_DOMAIN_AEAD);
  85:libhydrogen\impl/kx.h ****     gimli_core_u8(buf, gimli_TAG_PAYLOAD);
 1817              		.loc 6 85 0
 1818 006c 0221     		movs	r1, #2
 1819              	.LBB111:
 1820              	.LBB110:
 1821              		.loc 7 24 0
 1822 006e 5340     		eors	r3, r2
 1823 0070 2B70     		strb	r3, [r5]
  25:libhydrogen\impl/hydrogen_p.h ****     buf[gimli_RATE - 1] ^= 0x80;
 1824              		.loc 7 25 0
 1825 0072 E37B     		ldrb	r3, [r4, #15]
 1826 0074 813A     		subs	r2, r2, #129
ARM GAS  C:\Users\CCPOW_~1\AppData\Local\Temp\ccQfR6ec.s 			page 52


 1827 0076 5340     		eors	r3, r2
 1828 0078 E373     		strb	r3, [r4, #15]
 1829              	.LVL207:
 1830              	.LBE110:
 1831              	.LBE111:
 1832              		.loc 6 85 0
 1833 007a 2000     		movs	r0, r4
 1834 007c FFF7FEFF 		bl	gimli_core_u8
 1835              	.LVL208:
  86:libhydrogen\impl/kx.h **** }
 1836              		.loc 6 86 0
 1837 0080 05B0     		add	sp, sp, #20
 1838              		@ sp needed
 1839              	.LVL209:
 1840 0082 F0BD     		pop	{r4, r5, r6, r7, pc}
 1841              		.cfi_endproc
 1842              	.LFE82:
 1843              		.size	hydro_kx_aead_xor_enc, .-hydro_kx_aead_xor_enc
 1844              		.thumb_set hydro_secretbox_xor_enc,hydro_kx_aead_xor_enc
 1845              		.section	.text.hydro_kx_encrypt.constprop.2,"ax",%progbits
 1846              		.align	1
 1847              		.code	16
 1848              		.thumb_func
 1849              		.type	hydro_kx_encrypt.constprop.2, %function
 1850              	hydro_kx_encrypt.constprop.2:
 1851              	.LFB130:
  87:libhydrogen\impl/kx.h **** 
  88:libhydrogen\impl/kx.h **** static void
  89:libhydrogen\impl/kx.h **** hydro_kx_aead_xor_dec(uint8_t buf[gimli_BLOCKBYTES], uint8_t *out, const uint8_t *in, size_t inlen)
  90:libhydrogen\impl/kx.h **** {
  91:libhydrogen\impl/kx.h ****     size_t i;
  92:libhydrogen\impl/kx.h ****     size_t leftover;
  93:libhydrogen\impl/kx.h **** 
  94:libhydrogen\impl/kx.h ****     for (i = 0; i < inlen / gimli_RATE; i++) {
  95:libhydrogen\impl/kx.h ****         mem_xor2(&out[i * gimli_RATE], &in[i * gimli_RATE], buf, gimli_RATE);
  96:libhydrogen\impl/kx.h ****         memcpy(buf, &in[i * gimli_RATE], gimli_RATE);
  97:libhydrogen\impl/kx.h ****         gimli_core_u8(buf, gimli_TAG_PAYLOAD);
  98:libhydrogen\impl/kx.h ****     }
  99:libhydrogen\impl/kx.h ****     leftover = inlen % gimli_RATE;
 100:libhydrogen\impl/kx.h ****     if (leftover != 0) {
 101:libhydrogen\impl/kx.h ****         mem_xor2(&out[i * gimli_RATE], &in[i * gimli_RATE], buf, leftover);
 102:libhydrogen\impl/kx.h ****         mem_cpy(buf, &in[i * gimli_RATE], leftover);
 103:libhydrogen\impl/kx.h ****     }
 104:libhydrogen\impl/kx.h ****     gimli_pad_u8(buf, leftover, gimli_DOMAIN_AEAD);
 105:libhydrogen\impl/kx.h ****     gimli_core_u8(buf, gimli_TAG_PAYLOAD);
 106:libhydrogen\impl/kx.h **** }
 107:libhydrogen\impl/kx.h **** 
 108:libhydrogen\impl/kx.h **** static void
 109:libhydrogen\impl/kx.h **** hydro_kx_encrypt(const hydro_kx_state *state, uint8_t *c, const uint8_t *m, size_t mlen,
 1852              		.loc 6 109 0
 1853              		.cfi_startproc
 1854              		@ args = 0, pretend = 0, frame = 8
 1855              		@ frame_needed = 1, uses_anonymous_args = 0
 1856              	.LVL210:
 1857 0000 F7B5     		push	{r0, r1, r2, r4, r5, r6, r7, lr}
 1858              		.cfi_def_cfa_offset 32
 1859              		.cfi_offset 0, -32
ARM GAS  C:\Users\CCPOW_~1\AppData\Local\Temp\ccQfR6ec.s 			page 53


 1860              		.cfi_offset 1, -28
 1861              		.cfi_offset 2, -24
 1862              		.cfi_offset 4, -20
 1863              		.cfi_offset 5, -16
 1864              		.cfi_offset 6, -12
 1865              		.cfi_offset 7, -8
 1866              		.cfi_offset 14, -4
 1867 0002 0F24     		movs	r4, #15
 1868 0004 0E00     		movs	r6, r1
 1869              	.LVL211:
 1870 0006 00AF     		add	r7, sp, #0
 1871              		.cfi_def_cfa_register 7
 1872              		.loc 6 109 0
 1873 0008 90B0     		sub	sp, sp, #64
 1874 000a 6C44     		add	r4, r4, sp
 1875 000c 2409     		lsrs	r4, r4, #4
 1876 000e 2401     		lsls	r4, r4, #4
 1877 0010 0500     		movs	r5, r0
 1878 0012 7A60     		str	r2, [r7, #4]
 110:libhydrogen\impl/kx.h ****                  const uint8_t psk[hydro_kx_PSKBYTES])
 111:libhydrogen\impl/kx.h **** {
 112:libhydrogen\impl/kx.h ****     _hydro_attr_aligned_(16) uint8_t buf[gimli_BLOCKBYTES];
 113:libhydrogen\impl/kx.h ****     uint8_t *                        mac = &c[0];
 114:libhydrogen\impl/kx.h ****     uint8_t *                        ct  = &c[hydro_kx_AEAD_MACBYTES];
 115:libhydrogen\impl/kx.h **** 
 116:libhydrogen\impl/kx.h ****     hydro_kx_aead_setup(buf, state, psk);
 1879              		.loc 6 116 0
 1880 0014 0100     		movs	r1, r0
 1881              	.LVL212:
 1882 0016 1A00     		movs	r2, r3
 1883              	.LVL213:
 1884 0018 2000     		movs	r0, r4
 1885              	.LVL214:
 1886 001a FFF7FEFF 		bl	hydro_kx_aead_setup
 1887              	.LVL215:
 117:libhydrogen\impl/kx.h ****     hydro_kx_aead_xor_enc(buf, ct, m, mlen);
 1888              		.loc 6 117 0
 1889 001e 3100     		movs	r1, r6
 1890 0020 7A68     		ldr	r2, [r7, #4]
 1891 0022 2023     		movs	r3, #32
 1892 0024 2000     		movs	r0, r4
 1893 0026 1031     		adds	r1, r1, #16
 1894              	.LVL216:
 1895 0028 FFF7FEFF 		bl	hydro_kx_aead_xor_enc
 1896              	.LVL217:
 118:libhydrogen\impl/kx.h **** 
 119:libhydrogen\impl/kx.h ****     hydro_kx_finalize(buf, state->k);
 1897              		.loc 6 119 0
 1898 002c 2900     		movs	r1, r5
 1899 002e 2000     		movs	r0, r4
 1900 0030 8031     		adds	r1, r1, #128
 1901 0032 FFF7FEFF 		bl	hydro_kx_finalize
 1902              	.LVL218:
 120:libhydrogen\impl/kx.h ****     COMPILER_ASSERT(hydro_kx_AEAD_MACBYTES <= gimli_CAPACITY);
 121:libhydrogen\impl/kx.h ****     memcpy(mac, buf + gimli_RATE, hydro_kx_AEAD_MACBYTES);
 1903              		.loc 6 121 0
 1904 0036 2100     		movs	r1, r4
ARM GAS  C:\Users\CCPOW_~1\AppData\Local\Temp\ccQfR6ec.s 			page 54


 1905 0038 3000     		movs	r0, r6
 1906 003a 1031     		adds	r1, r1, #16
 1907 003c 1022     		movs	r2, #16
 1908 003e FFF7FEFF 		bl	memcpy
 1909              	.LVL219:
 122:libhydrogen\impl/kx.h **** }
 1910              		.loc 6 122 0
 1911 0042 BD46     		mov	sp, r7
 1912              		@ sp needed
 1913              	.LVL220:
 1914              	.LVL221:
 1915              	.LVL222:
 1916 0044 F7BD     		pop	{r0, r1, r2, r4, r5, r6, r7, pc}
 1917              		.cfi_endproc
 1918              	.LFE130:
 1919              		.size	hydro_kx_encrypt.constprop.2, .-hydro_kx_encrypt.constprop.2
 1920              		.section	.text.hydro_kx_aead_xor_dec,"ax",%progbits
 1921              		.align	1
 1922              		.code	16
 1923              		.thumb_func
 1924              		.type	hydro_kx_aead_xor_dec, %function
 1925              	hydro_kx_aead_xor_dec:
 1926              	.LFB83:
  90:libhydrogen\impl/kx.h ****     size_t i;
 1927              		.loc 6 90 0
 1928              		.cfi_startproc
 1929              		@ args = 0, pretend = 0, frame = 16
 1930              		@ frame_needed = 0, uses_anonymous_args = 0
 1931              	.LVL223:
 1932 0000 F0B5     		push	{r4, r5, r6, r7, lr}
 1933              		.cfi_def_cfa_offset 20
 1934              		.cfi_offset 4, -20
 1935              		.cfi_offset 5, -16
 1936              		.cfi_offset 6, -12
 1937              		.cfi_offset 7, -8
 1938              		.cfi_offset 14, -4
 1939 0002 0400     		movs	r4, r0
 1940 0004 0D00     		movs	r5, r1
 1941 0006 1600     		movs	r6, r2
 1942 0008 1F00     		movs	r7, r3
 1943 000a 1B09     		lsrs	r3, r3, #4
 1944              	.LVL224:
 1945 000c 85B0     		sub	sp, sp, #20
 1946              		.cfi_def_cfa_offset 40
 1947 000e 1B01     		lsls	r3, r3, #4
 1948 0010 0293     		str	r3, [sp, #8]
 1949 0012 CB18     		adds	r3, r1, r3
  90:libhydrogen\impl/kx.h ****     size_t i;
 1950              		.loc 6 90 0
 1951 0014 0392     		str	r2, [sp, #12]
 1952 0016 0193     		str	r3, [sp, #4]
 1953              	.LVL225:
 1954              	.L94:
  94:libhydrogen\impl/kx.h ****         mem_xor2(&out[i * gimli_RATE], &in[i * gimli_RATE], buf, gimli_RATE);
 1955              		.loc 6 94 0 discriminator 1
 1956 0018 019B     		ldr	r3, [sp, #4]
 1957 001a AB42     		cmp	r3, r5
ARM GAS  C:\Users\CCPOW_~1\AppData\Local\Temp\ccQfR6ec.s 			page 55


 1958 001c 11D0     		beq	.L100
  95:libhydrogen\impl/kx.h ****         memcpy(buf, &in[i * gimli_RATE], gimli_RATE);
 1959              		.loc 6 95 0 discriminator 3
 1960 001e 1023     		movs	r3, #16
 1961 0020 3100     		movs	r1, r6
 1962 0022 2800     		movs	r0, r5
 1963 0024 2200     		movs	r2, r4
 1964 0026 FFF7FEFF 		bl	mem_xor2
 1965              	.LVL226:
  96:libhydrogen\impl/kx.h ****         gimli_core_u8(buf, gimli_TAG_PAYLOAD);
 1966              		.loc 6 96 0 discriminator 3
 1967 002a 3100     		movs	r1, r6
 1968 002c 1022     		movs	r2, #16
 1969 002e 2000     		movs	r0, r4
 1970 0030 FFF7FEFF 		bl	memcpy
 1971              	.LVL227:
  97:libhydrogen\impl/kx.h ****     }
 1972              		.loc 6 97 0 discriminator 3
 1973 0034 0221     		movs	r1, #2
 1974 0036 2000     		movs	r0, r4
 1975 0038 FFF7FEFF 		bl	gimli_core_u8
 1976              	.LVL228:
 1977 003c 1035     		adds	r5, r5, #16
 1978 003e 1036     		adds	r6, r6, #16
 1979 0040 EAE7     		b	.L94
 1980              	.L100:
  99:libhydrogen\impl/kx.h ****     if (leftover != 0) {
 1981              		.loc 6 99 0
 1982 0042 0F23     		movs	r3, #15
 1983 0044 1F40     		ands	r7, r3
 1984              	.LVL229:
 100:libhydrogen\impl/kx.h ****         mem_xor2(&out[i * gimli_RATE], &in[i * gimli_RATE], buf, leftover);
 1985              		.loc 6 100 0
 1986 0046 0FD0     		beq	.L96
 101:libhydrogen\impl/kx.h ****         mem_cpy(buf, &in[i * gimli_RATE], leftover);
 1987              		.loc 6 101 0
 1988 0048 029A     		ldr	r2, [sp, #8]
 1989 004a 039B     		ldr	r3, [sp, #12]
 1990 004c 9446     		mov	ip, r2
 1991 004e 6344     		add	r3, r3, ip
 1992 0050 1D00     		movs	r5, r3
 1993 0052 2200     		movs	r2, r4
 1994 0054 2900     		movs	r1, r5
 1995 0056 0198     		ldr	r0, [sp, #4]
 1996 0058 3B00     		movs	r3, r7
 1997 005a FFF7FEFF 		bl	mem_xor2
 1998              	.LVL230:
 102:libhydrogen\impl/kx.h ****     }
 1999              		.loc 6 102 0
 2000 005e 3A00     		movs	r2, r7
 2001 0060 2900     		movs	r1, r5
 2002 0062 2000     		movs	r0, r4
 2003 0064 FFF7FEFF 		bl	mem_cpy
 2004              	.LVL231:
 2005              	.L96:
 2006              	.LBB114:
 2007              	.LBB115:
ARM GAS  C:\Users\CCPOW_~1\AppData\Local\Temp\ccQfR6ec.s 			page 56


  24:libhydrogen\impl/hydrogen_p.h ****     buf[gimli_RATE - 1] ^= 0x80;
 2008              		.loc 7 24 0
 2009 0068 0122     		movs	r2, #1
 2010 006a E719     		adds	r7, r4, r7
 2011              	.LVL232:
 2012 006c 3B78     		ldrb	r3, [r7]
 2013              	.LBE115:
 2014              	.LBE114:
 105:libhydrogen\impl/kx.h **** }
 2015              		.loc 6 105 0
 2016 006e 0221     		movs	r1, #2
 2017              	.LBB117:
 2018              	.LBB116:
  24:libhydrogen\impl/hydrogen_p.h ****     buf[gimli_RATE - 1] ^= 0x80;
 2019              		.loc 7 24 0
 2020 0070 5340     		eors	r3, r2
 2021 0072 3B70     		strb	r3, [r7]
 2022              		.loc 7 25 0
 2023 0074 E37B     		ldrb	r3, [r4, #15]
 2024 0076 813A     		subs	r2, r2, #129
 2025 0078 5340     		eors	r3, r2
 2026 007a E373     		strb	r3, [r4, #15]
 2027              	.LVL233:
 2028              	.LBE116:
 2029              	.LBE117:
 105:libhydrogen\impl/kx.h **** }
 2030              		.loc 6 105 0
 2031 007c 2000     		movs	r0, r4
 2032 007e FFF7FEFF 		bl	gimli_core_u8
 2033              	.LVL234:
 106:libhydrogen\impl/kx.h **** 
 2034              		.loc 6 106 0
 2035 0082 05B0     		add	sp, sp, #20
 2036              		@ sp needed
 2037              	.LVL235:
 2038 0084 F0BD     		pop	{r4, r5, r6, r7, pc}
 2039              		.cfi_endproc
 2040              	.LFE83:
 2041              		.size	hydro_kx_aead_xor_dec, .-hydro_kx_aead_xor_dec
 2042              		.thumb_set hydro_secretbox_xor_dec,hydro_kx_aead_xor_dec
 2043              		.section	.text.hydro_kx_decrypt.constprop.1,"ax",%progbits
 2044              		.align	1
 2045              		.code	16
 2046              		.thumb_func
 2047              		.type	hydro_kx_decrypt.constprop.1, %function
 2048              	hydro_kx_decrypt.constprop.1:
 2049              	.LFB131:
 123:libhydrogen\impl/kx.h **** 
 124:libhydrogen\impl/kx.h **** static int hydro_kx_decrypt(hydro_kx_state *state, uint8_t *m, const uint8_t *c, size_t clen,
 125:libhydrogen\impl/kx.h ****                             const uint8_t psk[hydro_kx_PSKBYTES]) _hydro_attr_warn_unused_result_;
 126:libhydrogen\impl/kx.h **** 
 127:libhydrogen\impl/kx.h **** static int
 128:libhydrogen\impl/kx.h **** hydro_kx_decrypt(hydro_kx_state *state, uint8_t *m, const uint8_t *c, size_t clen,
 2050              		.loc 6 128 0
 2051              		.cfi_startproc
 2052              		@ args = 4, pretend = 0, frame = 32
 2053              		@ frame_needed = 1, uses_anonymous_args = 0
ARM GAS  C:\Users\CCPOW_~1\AppData\Local\Temp\ccQfR6ec.s 			page 57


 2054              	.LVL236:
 2055 0000 F0B5     		push	{r4, r5, r6, r7, lr}
 2056              		.cfi_def_cfa_offset 20
 2057              		.cfi_offset 4, -20
 2058              		.cfi_offset 5, -16
 2059              		.cfi_offset 6, -12
 2060              		.cfi_offset 7, -8
 2061              		.cfi_offset 14, -4
 129:libhydrogen\impl/kx.h ****                  const uint8_t psk[hydro_kx_PSKBYTES])
 130:libhydrogen\impl/kx.h **** {
 131:libhydrogen\impl/kx.h ****     _hydro_attr_aligned_(16) uint32_t int_state[gimli_BLOCKBYTES / 4];
 132:libhydrogen\impl/kx.h ****     uint32_t                          pub_mac[hydro_kx_AEAD_MACBYTES / 4];
 133:libhydrogen\impl/kx.h ****     uint8_t *                         buf = (uint8_t *) (void *) int_state;
 134:libhydrogen\impl/kx.h ****     const uint8_t *                   mac;
 135:libhydrogen\impl/kx.h ****     const uint8_t *                   ct;
 136:libhydrogen\impl/kx.h ****     size_t                            mlen;
 137:libhydrogen\impl/kx.h ****     uint32_t                          cv;
 138:libhydrogen\impl/kx.h **** 
 139:libhydrogen\impl/kx.h ****     if (clen < hydro_kx_AEAD_HEADERBYTES) {
 140:libhydrogen\impl/kx.h ****         return -1;
 141:libhydrogen\impl/kx.h ****     }
 142:libhydrogen\impl/kx.h ****     mac  = &c[0];
 143:libhydrogen\impl/kx.h ****     ct   = &c[hydro_kx_AEAD_MACBYTES];
 144:libhydrogen\impl/kx.h ****     mlen = clen - hydro_kx_AEAD_HEADERBYTES;
 145:libhydrogen\impl/kx.h ****     memcpy(pub_mac, mac, sizeof pub_mac);
 2062              		.loc 6 145 0
 2063 0002 0823     		movs	r3, #8
 2064              	.LVL237:
 128:libhydrogen\impl/kx.h ****                  const uint8_t psk[hydro_kx_PSKBYTES])
 2065              		.loc 6 128 0
 2066 0004 0F24     		movs	r4, #15
 2067 0006 0E00     		movs	r6, r1
 2068 0008 89B0     		sub	sp, sp, #36
 2069              		.cfi_def_cfa_offset 56
 2070 000a 00AF     		add	r7, sp, #0
 2071              		.cfi_def_cfa_register 7
 128:libhydrogen\impl/kx.h ****                  const uint8_t psk[hydro_kx_PSKBYTES])
 2072              		.loc 6 128 0
 2073 000c 90B0     		sub	sp, sp, #64
 2074 000e 3A60     		str	r2, [r7]
 2075 0010 6C44     		add	r4, r4, sp
 2076              		.loc 6 145 0
 2077 0012 FA18     		adds	r2, r7, r3
 2078              	.LVL238:
 2079 0014 D518     		adds	r5, r2, r3
 128:libhydrogen\impl/kx.h ****                  const uint8_t psk[hydro_kx_PSKBYTES])
 2080              		.loc 6 128 0
 2081 0016 2409     		lsrs	r4, r4, #4
 2082 0018 2401     		lsls	r4, r4, #4
 2083              	.LVL239:
 2084 001a 7860     		str	r0, [r7, #4]
 2085              		.loc 6 145 0
 2086 001c 1022     		movs	r2, #16
 2087 001e 3968     		ldr	r1, [r7]
 2088              	.LVL240:
 2089 0020 2800     		movs	r0, r5
 2090              	.LVL241:
ARM GAS  C:\Users\CCPOW_~1\AppData\Local\Temp\ccQfR6ec.s 			page 58


 2091 0022 FFF7FEFF 		bl	memcpy
 2092              	.LVL242:
 146:libhydrogen\impl/kx.h ****     hydro_kx_aead_setup(buf, state, psk);
 2093              		.loc 6 146 0
 2094 0026 BA6B     		ldr	r2, [r7, #56]
 2095 0028 7968     		ldr	r1, [r7, #4]
 2096 002a 2000     		movs	r0, r4
 2097 002c FFF7FEFF 		bl	hydro_kx_aead_setup
 2098              	.LVL243:
 147:libhydrogen\impl/kx.h ****     hydro_kx_aead_xor_dec(buf, m, ct, mlen);
 2099              		.loc 6 147 0
 2100 0030 3A68     		ldr	r2, [r7]
 2101 0032 2023     		movs	r3, #32
 2102 0034 1032     		adds	r2, r2, #16
 2103 0036 3100     		movs	r1, r6
 2104 0038 2000     		movs	r0, r4
 2105 003a FFF7FEFF 		bl	hydro_kx_aead_xor_dec
 2106              	.LVL244:
 148:libhydrogen\impl/kx.h **** 
 149:libhydrogen\impl/kx.h ****     hydro_kx_finalize(buf, state->k);
 2107              		.loc 6 149 0
 2108 003e 7968     		ldr	r1, [r7, #4]
 2109 0040 2000     		movs	r0, r4
 2110 0042 8031     		adds	r1, r1, #128
 2111 0044 FFF7FEFF 		bl	hydro_kx_finalize
 2112              	.LVL245:
 2113              	.LBB122:
 2114              	.LBB123:
  26:libhydrogen\impl/hydrogen_p.h **** }
  27:libhydrogen\impl/hydrogen_p.h **** 
  28:libhydrogen\impl/hydrogen_p.h **** static inline void
  29:libhydrogen\impl/hydrogen_p.h **** hydro_mem_ct_zero_u32(uint32_t *dst_, size_t n)
  30:libhydrogen\impl/hydrogen_p.h **** {
  31:libhydrogen\impl/hydrogen_p.h ****     volatile uint32_t *volatile dst = (volatile uint32_t * volatile)(void *) dst_;
  32:libhydrogen\impl/hydrogen_p.h ****     size_t i;
  33:libhydrogen\impl/hydrogen_p.h **** 
  34:libhydrogen\impl/hydrogen_p.h ****     for (i = 0; i < n; i++) {
  35:libhydrogen\impl/hydrogen_p.h ****         dst[i] = 0;
  36:libhydrogen\impl/hydrogen_p.h ****     }
  37:libhydrogen\impl/hydrogen_p.h **** }
  38:libhydrogen\impl/hydrogen_p.h **** 
  39:libhydrogen\impl/hydrogen_p.h **** static inline uint32_t hydro_mem_ct_cmp_u32(const uint32_t *b1_, const uint32_t *b2,
  40:libhydrogen\impl/hydrogen_p.h ****                                             size_t n) _hydro_attr_warn_unused_result_;
  41:libhydrogen\impl/hydrogen_p.h **** 
  42:libhydrogen\impl/hydrogen_p.h **** static inline uint32_t
  43:libhydrogen\impl/hydrogen_p.h **** hydro_mem_ct_cmp_u32(const uint32_t *b1_, const uint32_t *b2, size_t n)
  44:libhydrogen\impl/hydrogen_p.h **** {
  45:libhydrogen\impl/hydrogen_p.h ****     const volatile uint32_t *volatile b1 = (const volatile uint32_t *volatile)(const void *) b1_;
 2115              		.loc 7 45 0
 2116 0048 2300     		movs	r3, r4
 2117 004a 1033     		adds	r3, r3, #16
 2118              	.LVL246:
 2119 004c FB60     		str	r3, [r7, #12]
 2120              	.LVL247:
 2121 004e 0023     		movs	r3, #0
 2122              	.LVL248:
  46:libhydrogen\impl/hydrogen_p.h ****     size_t   i;
ARM GAS  C:\Users\CCPOW_~1\AppData\Local\Temp\ccQfR6ec.s 			page 59


  47:libhydrogen\impl/hydrogen_p.h ****     uint32_t cv = 0;
 2123              		.loc 7 47 0
 2124 0050 1A00     		movs	r2, r3
 2125              	.LVL249:
 2126              	.L102:
  48:libhydrogen\impl/hydrogen_p.h **** 
  49:libhydrogen\impl/hydrogen_p.h ****     for (i = 0; i < n; i++) {
  50:libhydrogen\impl/hydrogen_p.h ****         cv |= b1[i] ^ b2[i];
 2127              		.loc 7 50 0
 2128 0052 F968     		ldr	r1, [r7, #12]
 2129 0054 E858     		ldr	r0, [r5, r3]
 2130 0056 C918     		adds	r1, r1, r3
 2131 0058 0968     		ldr	r1, [r1]
 2132 005a 0433     		adds	r3, r3, #4
 2133 005c 4140     		eors	r1, r0
 2134 005e 0A43     		orrs	r2, r1
 2135              	.LVL250:
  49:libhydrogen\impl/hydrogen_p.h ****         cv |= b1[i] ^ b2[i];
 2136              		.loc 7 49 0
 2137 0060 102B     		cmp	r3, #16
 2138 0062 F6D1     		bne	.L102
 2139              	.LVL251:
 2140              	.LBE123:
 2141              	.LBE122:
 2142              	.LBB124:
 2143              	.LBB125:
  31:libhydrogen\impl/hydrogen_p.h ****     size_t i;
 2144              		.loc 7 31 0
 2145 0064 0023     		movs	r3, #0
  35:libhydrogen\impl/hydrogen_p.h ****     }
 2146              		.loc 7 35 0
 2147 0066 1800     		movs	r0, r3
  31:libhydrogen\impl/hydrogen_p.h ****     size_t i;
 2148              		.loc 7 31 0
 2149 0068 BC60     		str	r4, [r7, #8]
 2150              	.LVL252:
 2151              	.L103:
  35:libhydrogen\impl/hydrogen_p.h ****     }
 2152              		.loc 7 35 0
 2153 006a B968     		ldr	r1, [r7, #8]
 2154 006c C918     		adds	r1, r1, r3
 2155 006e 0433     		adds	r3, r3, #4
 2156 0070 0860     		str	r0, [r1]
  34:libhydrogen\impl/hydrogen_p.h ****         dst[i] = 0;
 2157              		.loc 7 34 0
 2158 0072 302B     		cmp	r3, #48
 2159 0074 F9D1     		bne	.L103
 2160              	.LVL253:
 2161              	.LBE125:
 2162              	.LBE124:
 150:libhydrogen\impl/kx.h ****     COMPILER_ASSERT(hydro_kx_AEAD_MACBYTES <= gimli_CAPACITY);
 151:libhydrogen\impl/kx.h ****     COMPILER_ASSERT(gimli_RATE % 4 == 0);
 152:libhydrogen\impl/kx.h ****     cv = hydro_mem_ct_cmp_u32(int_state + gimli_RATE / 4, pub_mac, hydro_kx_AEAD_MACBYTES / 4);
 153:libhydrogen\impl/kx.h ****     hydro_mem_ct_zero_u32(int_state, gimli_BLOCKBYTES / 4);
 154:libhydrogen\impl/kx.h ****     if (cv != 0) {
 155:libhydrogen\impl/kx.h ****         mem_zero(m, mlen);
 156:libhydrogen\impl/kx.h ****         return -1;
ARM GAS  C:\Users\CCPOW_~1\AppData\Local\Temp\ccQfR6ec.s 			page 60


 157:libhydrogen\impl/kx.h ****     }
 158:libhydrogen\impl/kx.h ****     return 0;
 2163              		.loc 6 158 0
 2164 0076 0020     		movs	r0, #0
 154:libhydrogen\impl/kx.h ****         mem_zero(m, mlen);
 2165              		.loc 6 154 0
 2166 0078 8242     		cmp	r2, r0
 2167 007a 05D0     		beq	.L104
 155:libhydrogen\impl/kx.h ****         return -1;
 2168              		.loc 6 155 0
 2169 007c 3000     		movs	r0, r6
 2170 007e 2021     		movs	r1, #32
 2171 0080 FFF7FEFF 		bl	mem_zero
 2172              	.LVL254:
 156:libhydrogen\impl/kx.h ****     }
 2173              		.loc 6 156 0
 2174 0084 0120     		movs	r0, #1
 2175 0086 4042     		rsbs	r0, r0, #0
 2176              	.L104:
 159:libhydrogen\impl/kx.h **** }
 2177              		.loc 6 159 0
 2178 0088 BD46     		mov	sp, r7
 2179              	.LVL255:
 2180 008a 09B0     		add	sp, sp, #36
 2181              	.LVL256:
 2182              		@ sp needed
 2183              	.LVL257:
 2184              	.LVL258:
 2185 008c F0BD     		pop	{r4, r5, r6, r7, pc}
 2186              		.cfi_endproc
 2187              	.LFE131:
 2188              		.size	hydro_kx_decrypt.constprop.1, .-hydro_kx_decrypt.constprop.1
 2189              		.section	.text.hydro_x25519_ladder_part1,"ax",%progbits
 2190              		.align	1
 2191              		.code	16
 2192              		.thumb_func
 2193              		.type	hydro_x25519_ladder_part1, %function
 2194              	hydro_x25519_ladder_part1:
 2195              	.LFB71:
 218:libhydrogen\impl/x25519.h ****     hydro_x25519_limb_t *x2 = xs[0], *z2 = xs[1], *x3 = xs[2], *z3 = xs[3], *t1 = xs[4];
 2196              		.loc 5 218 0
 2197              		.cfi_startproc
 2198              		@ args = 0, pretend = 0, frame = 8
 2199              		@ frame_needed = 0, uses_anonymous_args = 0
 2200              	.LVL259:
 2201 0000 F7B5     		push	{r0, r1, r2, r4, r5, r6, r7, lr}
 2202              		.cfi_def_cfa_offset 32
 2203              		.cfi_offset 0, -32
 2204              		.cfi_offset 1, -28
 2205              		.cfi_offset 2, -24
 2206              		.cfi_offset 4, -20
 2207              		.cfi_offset 5, -16
 2208              		.cfi_offset 6, -12
 2209              		.cfi_offset 7, -8
 2210              		.cfi_offset 14, -4
 219:libhydrogen\impl/x25519.h **** 
 2211              		.loc 5 219 0
ARM GAS  C:\Users\CCPOW_~1\AppData\Local\Temp\ccQfR6ec.s 			page 61


 2212 0002 0500     		movs	r5, r0
 2213 0004 0700     		movs	r7, r0
 2214 0006 0300     		movs	r3, r0
 218:libhydrogen\impl/x25519.h ****     hydro_x25519_limb_t *x2 = xs[0], *z2 = xs[1], *x3 = xs[2], *z3 = xs[3], *t1 = xs[4];
 2215              		.loc 5 218 0
 2216 0008 0400     		movs	r4, r0
 219:libhydrogen\impl/x25519.h **** 
 2217              		.loc 5 219 0
 2218 000a 0600     		movs	r6, r0
 2219 000c 2035     		adds	r5, r5, #32
 2220              	.LVL260:
 2221 000e 8037     		adds	r7, r7, #128
 2222 0010 4033     		adds	r3, r3, #64
 221:libhydrogen\impl/x25519.h ****     hydro_x25519_sub(z2, x2, z2);              // z2 = B
 2223              		.loc 5 221 0
 2224 0012 2A00     		movs	r2, r5
 2225 0014 0100     		movs	r1, r0
 2226 0016 3800     		movs	r0, r7
 2227              	.LVL261:
 219:libhydrogen\impl/x25519.h **** 
 2228              		.loc 5 219 0
 2229 0018 0193     		str	r3, [sp, #4]
 2230              	.LVL262:
 2231 001a 6036     		adds	r6, r6, #96
 2232              	.LVL263:
 221:libhydrogen\impl/x25519.h ****     hydro_x25519_sub(z2, x2, z2);              // z2 = B
 2233              		.loc 5 221 0
 2234 001c FFF7FEFF 		bl	hydro_x25519_add
 2235              	.LVL264:
 222:libhydrogen\impl/x25519.h ****     hydro_x25519_add(x2, x3, z3);              // x2 = C
 2236              		.loc 5 222 0
 2237 0020 2A00     		movs	r2, r5
 2238 0022 2800     		movs	r0, r5
 2239 0024 2100     		movs	r1, r4
 2240 0026 FFF7FEFF 		bl	hydro_x25519_sub
 2241              	.LVL265:
 223:libhydrogen\impl/x25519.h ****     hydro_x25519_sub(z3, x3, z3);              // z3 = D
 2242              		.loc 5 223 0
 2243 002a 3200     		movs	r2, r6
 2244 002c 0199     		ldr	r1, [sp, #4]
 2245 002e 2000     		movs	r0, r4
 2246 0030 FFF7FEFF 		bl	hydro_x25519_add
 2247              	.LVL266:
 224:libhydrogen\impl/x25519.h ****     hydro_x25519_mul1(z3, t1);                 // z3 = DA
 2248              		.loc 5 224 0
 2249 0034 3200     		movs	r2, r6
 2250 0036 3000     		movs	r0, r6
 2251 0038 0199     		ldr	r1, [sp, #4]
 2252 003a FFF7FEFF 		bl	hydro_x25519_sub
 2253              	.LVL267:
 225:libhydrogen\impl/x25519.h ****     hydro_x25519_mul1(x2, z2);                 // x3 = BC
 2254              		.loc 5 225 0
 2255 003e 3900     		movs	r1, r7
 2256 0040 3000     		movs	r0, r6
 2257 0042 FFF7FEFF 		bl	hydro_x25519_mul1
 2258              	.LVL268:
 226:libhydrogen\impl/x25519.h ****     hydro_x25519_add(x3, z3, x2);              // x3 = DA+CB
ARM GAS  C:\Users\CCPOW_~1\AppData\Local\Temp\ccQfR6ec.s 			page 62


 2259              		.loc 5 226 0
 2260 0046 2900     		movs	r1, r5
 2261 0048 2000     		movs	r0, r4
 2262 004a FFF7FEFF 		bl	hydro_x25519_mul1
 2263              	.LVL269:
 227:libhydrogen\impl/x25519.h ****     hydro_x25519_sub(z3, z3, x2);              // z3 = DA-CB
 2264              		.loc 5 227 0
 2265 004e 3100     		movs	r1, r6
 2266 0050 2200     		movs	r2, r4
 2267 0052 0198     		ldr	r0, [sp, #4]
 2268 0054 FFF7FEFF 		bl	hydro_x25519_add
 2269              	.LVL270:
 228:libhydrogen\impl/x25519.h ****     hydro_x25519_sqr1(t1);                     // t1 = AA
 2270              		.loc 5 228 0
 2271 0058 2200     		movs	r2, r4
 2272 005a 3100     		movs	r1, r6
 2273 005c 3000     		movs	r0, r6
 2274 005e FFF7FEFF 		bl	hydro_x25519_sub
 2275              	.LVL271:
 2276              	.LBB130:
 2277              	.LBB131:
 179:libhydrogen\impl/x25519.h **** }
 2278              		.loc 5 179 0
 2279 0062 3900     		movs	r1, r7
 2280 0064 3800     		movs	r0, r7
 2281 0066 FFF7FEFF 		bl	hydro_x25519_mul1
 2282              	.LVL272:
 2283              	.LBE131:
 2284              	.LBE130:
 2285              	.LBB132:
 2286              	.LBB133:
 2287 006a 2900     		movs	r1, r5
 2288 006c 2800     		movs	r0, r5
 2289 006e FFF7FEFF 		bl	hydro_x25519_mul1
 2290              	.LVL273:
 2291              	.LBE133:
 2292              	.LBE132:
 231:libhydrogen\impl/x25519.h ****     hydro_x25519_mul(z2, x2, hydro_x25519_a24, // z2 = E*a24
 2293              		.loc 5 231 0
 2294 0072 2A00     		movs	r2, r5
 2295 0074 3900     		movs	r1, r7
 2296 0076 2000     		movs	r0, r4
 2297 0078 FFF7FEFF 		bl	hydro_x25519_sub
 2298              	.LVL274:
 232:libhydrogen\impl/x25519.h ****                      sizeof(hydro_x25519_a24) / sizeof(hydro_x25519_a24[0]));
 2299              		.loc 5 232 0
 2300 007c 064A     		ldr	r2, .L110
 2301 007e 2800     		movs	r0, r5
 2302 0080 0123     		movs	r3, #1
 2303 0082 2100     		movs	r1, r4
 2304 0084 3032     		adds	r2, r2, #48
 2305 0086 FFF7FEFF 		bl	hydro_x25519_mul
 2306              	.LVL275:
 234:libhydrogen\impl/x25519.h **** }
 2307              		.loc 5 234 0
 2308 008a 3A00     		movs	r2, r7
 2309 008c 2900     		movs	r1, r5
ARM GAS  C:\Users\CCPOW_~1\AppData\Local\Temp\ccQfR6ec.s 			page 63


 2310 008e 2800     		movs	r0, r5
 2311 0090 FFF7FEFF 		bl	hydro_x25519_add
 2312              	.LVL276:
 235:libhydrogen\impl/x25519.h **** 
 2313              		.loc 5 235 0
 2314              		@ sp needed
 2315              	.LVL277:
 2316              	.LVL278:
 2317              	.LVL279:
 2318              	.LVL280:
 2319 0094 F7BD     		pop	{r0, r1, r2, r4, r5, r6, r7, pc}
 2320              	.L111:
 2321 0096 C046     		.align	2
 2322              	.L110:
 2323 0098 00000000 		.word	.LANCHOR0
 2324              		.cfi_endproc
 2325              	.LFE71:
 2326              		.size	hydro_x25519_ladder_part1, .-hydro_x25519_ladder_part1
 2327              		.section	.text.hydro_x25519_core,"ax",%progbits
 2328              		.align	1
 2329              		.code	16
 2330              		.thumb_func
 2331              		.type	hydro_x25519_core, %function
 2332              	hydro_x25519_core:
 2333              	.LFB73:
 253:libhydrogen\impl/x25519.h ****     hydro_x25519_limb_t  swap;
 2334              		.loc 5 253 0
 2335              		.cfi_startproc
 2336              		@ args = 0, pretend = 0, frame = 80
 2337              		@ frame_needed = 0, uses_anonymous_args = 0
 2338              	.LVL281:
 2339 0000 F0B5     		push	{r4, r5, r6, r7, lr}
 2340              		.cfi_def_cfa_offset 20
 2341              		.cfi_offset 4, -20
 2342              		.cfi_offset 5, -16
 2343              		.cfi_offset 6, -12
 2344              		.cfi_offset 7, -8
 2345              		.cfi_offset 14, -4
 2346 0002 95B0     		sub	sp, sp, #84
 2347              		.cfi_def_cfa_offset 104
 253:libhydrogen\impl/x25519.h ****     hydro_x25519_limb_t  swap;
 2348              		.loc 5 253 0
 2349 0004 0393     		str	r3, [sp, #12]
 255:libhydrogen\impl/x25519.h ****     hydro_x25519_fe      x1i;
 2350              		.loc 5 255 0
 2351 0006 0300     		movs	r3, r0
 2352              	.LVL282:
 253:libhydrogen\impl/x25519.h ****     hydro_x25519_limb_t  swap;
 2353              		.loc 5 253 0
 2354 0008 0500     		movs	r5, r0
 259:libhydrogen\impl/x25519.h ****     x1   = (const uint8_t *) x1i;
 2355              		.loc 5 259 0
 2356 000a 04AC     		add	r4, sp, #16
 255:libhydrogen\impl/x25519.h ****     hydro_x25519_fe      x1i;
 2357              		.loc 5 255 0
 2358 000c 4033     		adds	r3, r3, #64
 259:libhydrogen\impl/x25519.h ****     x1   = (const uint8_t *) x1i;
ARM GAS  C:\Users\CCPOW_~1\AppData\Local\Temp\ccQfR6ec.s 			page 64


 2359              		.loc 5 259 0
 2360 000e 2000     		movs	r0, r4
 2361              	.LVL283:
 253:libhydrogen\impl/x25519.h ****     hydro_x25519_limb_t  swap;
 2362              		.loc 5 253 0
 2363 0010 0291     		str	r1, [sp, #8]
 259:libhydrogen\impl/x25519.h ****     x1   = (const uint8_t *) x1i;
 2364              		.loc 5 259 0
 2365 0012 1100     		movs	r1, r2
 2366              	.LVL284:
 255:libhydrogen\impl/x25519.h ****     hydro_x25519_fe      x1i;
 2367              		.loc 5 255 0
 2368 0014 0193     		str	r3, [sp, #4]
 2369              	.LVL285:
 259:libhydrogen\impl/x25519.h ****     x1   = (const uint8_t *) x1i;
 2370              		.loc 5 259 0
 2371 0016 FFF7FEFF 		bl	hydro_x25519_swapin
 2372              	.LVL286:
 262:libhydrogen\impl/x25519.h ****     x2[0] = z3[0] = 1;
 2373              		.loc 5 262 0
 2374 001a 8021     		movs	r1, #128
 2375 001c 2800     		movs	r0, r5
 2376 001e FFF7FEFF 		bl	mem_zero
 2377              	.LVL287:
 263:libhydrogen\impl/x25519.h ****     memcpy(x3, x1, sizeof(hydro_x25519_fe));
 2378              		.loc 5 263 0
 2379 0022 0123     		movs	r3, #1
 2380 0024 2B66     		str	r3, [r5, #96]
 2381 0026 2B60     		str	r3, [r5]
 264:libhydrogen\impl/x25519.h ****     for (i = 255; i >= 0; i--) {
 2382              		.loc 5 264 0
 2383 0028 019B     		ldr	r3, [sp, #4]
 265:libhydrogen\impl/x25519.h ****         uint8_t             bytei = scalar[i / 8];
 2384              		.loc 5 265 0
 2385 002a FF26     		movs	r6, #255
 264:libhydrogen\impl/x25519.h ****     for (i = 255; i >= 0; i--) {
 2386              		.loc 5 264 0
 2387 002c 07CC     		ldmia	r4!, {r0, r1, r2}
 2388 002e 07C3     		stmia	r3!, {r0, r1, r2}
 2389              	.LVL288:
 2390 0030 07CC     		ldmia	r4!, {r0, r1, r2}
 2391 0032 07C3     		stmia	r3!, {r0, r1, r2}
 2392              	.LVL289:
 2393 0034 06CC     		ldmia	r4!, {r1, r2}
 2394 0036 06C3     		stmia	r3!, {r1, r2}
 2395              	.LVL290:
 261:libhydrogen\impl/x25519.h ****     mem_zero(xs, 4 * sizeof(hydro_x25519_fe));
 2396              		.loc 5 261 0
 2397 0038 0022     		movs	r2, #0
 2398              	.LVL291:
 2399              	.L115:
 2400              	.LBB141:
 266:libhydrogen\impl/x25519.h ****         hydro_x25519_limb_t doswap;
 2401              		.loc 5 266 0
 2402 003a 0299     		ldr	r1, [sp, #8]
 2403 003c F310     		asrs	r3, r6, #3
 2404 003e CC5C     		ldrb	r4, [r1, r3]
ARM GAS  C:\Users\CCPOW_~1\AppData\Local\Temp\ccQfR6ec.s 			page 65


 2405              	.LVL292:
 270:libhydrogen\impl/x25519.h ****             if (i / 8 == 0) {
 2406              		.loc 5 270 0
 2407 0040 039B     		ldr	r3, [sp, #12]
 2408 0042 002B     		cmp	r3, #0
 2409 0044 0DD0     		beq	.L113
 271:libhydrogen\impl/x25519.h ****                 bytei &= ~7;
 2410              		.loc 5 271 0
 2411 0046 F31D     		adds	r3, r6, #7
 2412 0048 0E2B     		cmp	r3, #14
 2413 004a 02D8     		bhi	.L114
 272:libhydrogen\impl/x25519.h ****             } else if (i / 8 == hydro_x25519_BYTES - 1) {
 2414              		.loc 5 272 0
 2415 004c 0723     		movs	r3, #7
 2416 004e 9C43     		bics	r4, r3
 2417              	.LVL293:
 2418 0050 07E0     		b	.L113
 2419              	.L114:
 273:libhydrogen\impl/x25519.h ****                 bytei &= 0x7F;
 2420              		.loc 5 273 0
 2421 0052 3300     		movs	r3, r6
 2422 0054 F83B     		subs	r3, r3, #248
 2423 0056 072B     		cmp	r3, #7
 2424 0058 03D8     		bhi	.L113
 274:libhydrogen\impl/x25519.h ****                 bytei |= 0x40;
 2425              		.loc 5 274 0
 2426 005a 7F23     		movs	r3, #127
 2427 005c 1C40     		ands	r4, r3
 2428              	.LVL294:
 275:libhydrogen\impl/x25519.h ****             }
 2429              		.loc 5 275 0
 2430 005e 3F3B     		subs	r3, r3, #63
 2431 0060 1C43     		orrs	r4, r3
 2432              	.LVL295:
 2433              	.L113:
 278:libhydrogen\impl/x25519.h ****         hydro_x25519_condswap(x2, x3, swap ^ doswap);
 2434              		.loc 5 278 0 discriminator 2
 2435 0062 0723     		movs	r3, #7
 2436 0064 3340     		ands	r3, r6
 2437 0066 1C41     		asrs	r4, r4, r3
 2438              	.LVL296:
 2439              	.LBB142:
 2440              	.LBB143:
 2441              	.LBB144:
 2442              	.LBB145:
 179:libhydrogen\impl/x25519.h **** }
 2443              		.loc 5 179 0 discriminator 2
 2444 0068 2F00     		movs	r7, r5
 2445              	.LBE145:
 2446              	.LBE144:
 2447              	.LBE143:
 2448              	.LBE142:
 278:libhydrogen\impl/x25519.h ****         hydro_x25519_condswap(x2, x3, swap ^ doswap);
 2449              		.loc 5 278 0 discriminator 2
 2450 006a E407     		lsls	r4, r4, #31
 2451 006c E417     		asrs	r4, r4, #31
 2452              	.LVL297:
ARM GAS  C:\Users\CCPOW_~1\AppData\Local\Temp\ccQfR6ec.s 			page 66


 279:libhydrogen\impl/x25519.h ****         swap = doswap;
 2453              		.loc 5 279 0 discriminator 2
 2454 006e 6240     		eors	r2, r4
 2455              	.LVL298:
 2456 0070 0199     		ldr	r1, [sp, #4]
 2457 0072 2800     		movs	r0, r5
 2458 0074 FFF7FEFF 		bl	hydro_x25519_condswap
 2459              	.LVL299:
 281:libhydrogen\impl/x25519.h ****         memcpy(x1_dup, x1, sizeof x1_dup);
 2460              		.loc 5 281 0 discriminator 2
 2461 0078 2800     		movs	r0, r5
 2462 007a FFF7FEFF 		bl	hydro_x25519_ladder_part1
 2463              	.LVL300:
 2464              	.LBB156:
 2465              	.LBB154:
 2466              	.LBB148:
 2467              	.LBB146:
 179:libhydrogen\impl/x25519.h **** }
 2468              		.loc 5 179 0 discriminator 2
 2469 007e 6037     		adds	r7, r7, #96
 2470              	.LBE146:
 2471              	.LBE148:
 2472              	.LBE154:
 2473              	.LBE156:
 282:libhydrogen\impl/x25519.h ****         hydro_x25519_ladder_part2(xs, x1_dup);
 2474              		.loc 5 282 0 discriminator 2
 2475 0080 2022     		movs	r2, #32
 2476 0082 04A9     		add	r1, sp, #16
 2477              	.LVL301:
 2478 0084 0CA8     		add	r0, sp, #48
 2479 0086 FFF7FEFF 		bl	memcpy
 2480              	.LVL302:
 2481              	.LBB157:
 2482              	.LBB155:
 2483              	.LBB149:
 2484              	.LBB147:
 179:libhydrogen\impl/x25519.h **** }
 2485              		.loc 5 179 0 discriminator 2
 2486 008a 3900     		movs	r1, r7
 2487 008c 3800     		movs	r0, r7
 2488 008e FFF7FEFF 		bl	hydro_x25519_mul1
 2489              	.LVL303:
 2490              	.LBE147:
 2491              	.LBE149:
 243:libhydrogen\impl/x25519.h ****     hydro_x25519_sqr1(x3);        // x3 = (DA+CB)^2
 2492              		.loc 5 243 0 discriminator 2
 2493 0092 3800     		movs	r0, r7
 2494 0094 0CA9     		add	r1, sp, #48
 2495              	.LVL304:
 2496 0096 FFF7FEFF 		bl	hydro_x25519_mul1
 2497              	.LVL305:
 2498              	.LBB150:
 2499              	.LBB151:
 179:libhydrogen\impl/x25519.h **** }
 2500              		.loc 5 179 0 discriminator 2
 2501 009a 0199     		ldr	r1, [sp, #4]
 2502              	.LBE151:
ARM GAS  C:\Users\CCPOW_~1\AppData\Local\Temp\ccQfR6ec.s 			page 67


 2503              	.LBE150:
 246:libhydrogen\impl/x25519.h ****     hydro_x25519_mul1(x2, t1);    // x2 = AA*BB
 2504              		.loc 5 246 0 discriminator 2
 2505 009c 2037     		adds	r7, r7, #32
 2506              	.LBB153:
 2507              	.LBB152:
 179:libhydrogen\impl/x25519.h **** }
 2508              		.loc 5 179 0 discriminator 2
 2509 009e 0800     		movs	r0, r1
 2510 00a0 FFF7FEFF 		bl	hydro_x25519_mul1
 2511              	.LVL306:
 2512              	.LBE152:
 2513              	.LBE153:
 245:libhydrogen\impl/x25519.h ****     hydro_x25519_sub(x2, t1, x2); // x2 = BB again
 2514              		.loc 5 245 0 discriminator 2
 2515 00a4 2800     		movs	r0, r5
 2516 00a6 2900     		movs	r1, r5
 2517 00a8 2030     		adds	r0, r0, #32
 2518              	.LVL307:
 2519 00aa FFF7FEFF 		bl	hydro_x25519_mul1
 2520              	.LVL308:
 246:libhydrogen\impl/x25519.h ****     hydro_x25519_mul1(x2, t1);    // x2 = AA*BB
 2521              		.loc 5 246 0 discriminator 2
 2522 00ae 2A00     		movs	r2, r5
 2523 00b0 3900     		movs	r1, r7
 2524 00b2 2800     		movs	r0, r5
 2525 00b4 FFF7FEFF 		bl	hydro_x25519_sub
 2526              	.LVL309:
 247:libhydrogen\impl/x25519.h **** }
 2527              		.loc 5 247 0 discriminator 2
 2528 00b8 3900     		movs	r1, r7
 2529 00ba 2800     		movs	r0, r5
 2530 00bc FFF7FEFF 		bl	hydro_x25519_mul1
 2531              	.LVL310:
 2532              	.LBE155:
 2533              	.LBE157:
 278:libhydrogen\impl/x25519.h ****         hydro_x25519_condswap(x2, x3, swap ^ doswap);
 2534              		.loc 5 278 0 discriminator 2
 2535 00c0 2200     		movs	r2, r4
 2536              	.LBE141:
 265:libhydrogen\impl/x25519.h ****         uint8_t             bytei = scalar[i / 8];
 2537              		.loc 5 265 0 discriminator 2
 2538 00c2 013E     		subs	r6, r6, #1
 2539 00c4 B9D2     		bcs	.L115
 2540              	.LVL311:
 285:libhydrogen\impl/x25519.h **** }
 2541              		.loc 5 285 0
 2542 00c6 0199     		ldr	r1, [sp, #4]
 2543 00c8 2800     		movs	r0, r5
 2544 00ca FFF7FEFF 		bl	hydro_x25519_condswap
 2545              	.LVL312:
 286:libhydrogen\impl/x25519.h **** 
 2546              		.loc 5 286 0
 2547 00ce 15B0     		add	sp, sp, #84
 2548              		@ sp needed
 2549              	.LVL313:
 2550              	.LVL314:
ARM GAS  C:\Users\CCPOW_~1\AppData\Local\Temp\ccQfR6ec.s 			page 68


 2551              	.LVL315:
 2552              	.LVL316:
 2553 00d0 F0BD     		pop	{r4, r5, r6, r7, pc}
 2554              		.cfi_endproc
 2555              	.LFE73:
 2556              		.size	hydro_x25519_core, .-hydro_x25519_core
 2557              		.section	.text.hydro_x25519_scalarmult,"ax",%progbits
 2558              		.align	1
 2559              		.code	16
 2560              		.thumb_func
 2561              		.type	hydro_x25519_scalarmult, %function
 2562              	hydro_x25519_scalarmult:
 2563              	.LFB74:
 291:libhydrogen\impl/x25519.h ****     hydro_x25519_fe      xs[5];
 2564              		.loc 5 291 0
 2565              		.cfi_startproc
 2566              		@ args = 0, pretend = 0, frame = 160
 2567              		@ frame_needed = 0, uses_anonymous_args = 0
 2568              	.LVL317:
 2569 0000 F0B5     		push	{r4, r5, r6, r7, lr}
 2570              		.cfi_def_cfa_offset 20
 2571              		.cfi_offset 4, -20
 2572              		.cfi_offset 5, -16
 2573              		.cfi_offset 6, -12
 2574              		.cfi_offset 7, -8
 2575              		.cfi_offset 14, -4
 307:libhydrogen\impl/x25519.h ****         hydro_x25519_sqr(z3, prev);
 2576              		.loc 5 307 0
 2577 0002 FD24     		movs	r4, #253
 310:libhydrogen\impl/x25519.h ****             hydro_x25519_mul1(z3, z2);
 2578              		.loc 5 310 0
 2579 0004 0127     		movs	r7, #1
 291:libhydrogen\impl/x25519.h ****     hydro_x25519_fe      xs[5];
 2580              		.loc 5 291 0
 2581 0006 A9B0     		sub	sp, sp, #164
 2582              		.cfi_def_cfa_offset 184
 291:libhydrogen\impl/x25519.h ****     hydro_x25519_fe      xs[5];
 2583              		.loc 5 291 0
 2584 0008 0600     		movs	r6, r0
 298:libhydrogen\impl/x25519.h **** 
 2585              		.loc 5 298 0
 2586 000a 6846     		mov	r0, sp
 2587              	.LVL318:
 291:libhydrogen\impl/x25519.h ****     hydro_x25519_fe      xs[5];
 2588              		.loc 5 291 0
 2589 000c 1D00     		movs	r5, r3
 298:libhydrogen\impl/x25519.h **** 
 2590              		.loc 5 298 0
 2591 000e FFF7FEFF 		bl	hydro_x25519_core
 2592              	.LVL319:
 304:libhydrogen\impl/x25519.h **** 
 2593              		.loc 5 304 0
 2594 0012 08A9     		add	r1, sp, #32
 2595              	.LVL320:
 2596              	.L123:
 2597              	.LBB160:
 2598              	.LBB161:
ARM GAS  C:\Users\CCPOW_~1\AppData\Local\Temp\ccQfR6ec.s 			page 69


 167:libhydrogen\impl/x25519.h **** }
 2599              		.loc 5 167 0
 2600 0014 0823     		movs	r3, #8
 2601 0016 0A00     		movs	r2, r1
 2602 0018 18A8     		add	r0, sp, #96
 2603              	.LVL321:
 2604 001a FFF7FEFF 		bl	hydro_x25519_mul
 2605              	.LVL322:
 2606              	.LBE161:
 2607              	.LBE160:
 310:libhydrogen\impl/x25519.h ****             hydro_x25519_mul1(z3, z2);
 2608              		.loc 5 310 0
 2609 001e 072C     		cmp	r4, #7
 2610 0020 03DC     		bgt	.L121
 310:libhydrogen\impl/x25519.h ****             hydro_x25519_mul1(z3, z2);
 2611              		.loc 5 310 0 is_stmt 0 discriminator 1
 2612 0022 EB23     		movs	r3, #235
 2613 0024 2341     		asrs	r3, r3, r4
 2614 0026 3B42     		tst	r3, r7
 2615 0028 03D0     		beq	.L122
 2616              	.L121:
 311:libhydrogen\impl/x25519.h ****         }
 2617              		.loc 5 311 0 is_stmt 1
 2618 002a 08A9     		add	r1, sp, #32
 2619              	.LVL323:
 2620 002c 18A8     		add	r0, sp, #96
 2621              	.LVL324:
 2622 002e FFF7FEFF 		bl	hydro_x25519_mul1
 2623              	.LVL325:
 2624              	.L122:
 309:libhydrogen\impl/x25519.h ****         if (i >= 8 || (0xeb >> i & 1)) {
 2625              		.loc 5 309 0 discriminator 2
 2626 0032 18A9     		add	r1, sp, #96
 2627              	.LVL326:
 307:libhydrogen\impl/x25519.h ****         hydro_x25519_sqr(z3, prev);
 2628              		.loc 5 307 0 discriminator 2
 2629 0034 013C     		subs	r4, r4, #1
 2630 0036 EDD2     		bcs	.L123
 2631              	.LVL327:
 317:libhydrogen\impl/x25519.h ****     ret = hydro_x25519_canon(x2);
 2632              		.loc 5 317 0
 2633 0038 6846     		mov	r0, sp
 2634 003a FFF7FEFF 		bl	hydro_x25519_mul1
 2635              	.LVL328:
 318:libhydrogen\impl/x25519.h ****     hydro_x25519_swapout(out, x2);
 2636              		.loc 5 318 0
 2637 003e 6846     		mov	r0, sp
 2638 0040 FFF7FEFF 		bl	hydro_x25519_canon
 2639              	.LVL329:
 319:libhydrogen\impl/x25519.h **** 
 2640              		.loc 5 319 0
 2641 0044 6946     		mov	r1, sp
 318:libhydrogen\impl/x25519.h ****     hydro_x25519_swapout(out, x2);
 2642              		.loc 5 318 0
 2643 0046 0400     		movs	r4, r0
 2644              	.LVL330:
 319:libhydrogen\impl/x25519.h **** 
ARM GAS  C:\Users\CCPOW_~1\AppData\Local\Temp\ccQfR6ec.s 			page 70


 2645              		.loc 5 319 0
 2646 0048 3000     		movs	r0, r6
 2647              	.LVL331:
 2648 004a FFF7FEFF 		bl	hydro_x25519_swapout
 2649              	.LVL332:
 322:libhydrogen\impl/x25519.h ****     }
 2650              		.loc 5 322 0
 2651 004e 0020     		movs	r0, #0
 321:libhydrogen\impl/x25519.h ****         return 0;
 2652              		.loc 5 321 0
 2653 0050 8542     		cmp	r5, r0
 2654 0052 00D0     		beq	.L124
 324:libhydrogen\impl/x25519.h **** }
 2655              		.loc 5 324 0
 2656 0054 2000     		movs	r0, r4
 2657              	.L124:
 325:libhydrogen\impl/x25519.h **** 
 2658              		.loc 5 325 0
 2659 0056 29B0     		add	sp, sp, #164
 2660              	.LVL333:
 2661              		@ sp needed
 2662              	.LVL334:
 2663              	.LVL335:
 2664 0058 F0BD     		pop	{r4, r5, r6, r7, pc}
 2665              		.cfi_endproc
 2666              	.LFE74:
 2667              		.size	hydro_x25519_scalarmult, .-hydro_x25519_scalarmult
 2668              		.section	.text.hydro_x25519_scalarmult_base_uniform,"ax",%progbits
 2669              		.align	1
 2670              		.code	16
 2671              		.thumb_func
 2672              		.type	hydro_x25519_scalarmult_base_uniform, %function
 2673              	hydro_x25519_scalarmult_base_uniform:
 2674              	.LFB76:
 337:libhydrogen\impl/x25519.h ****     if (hydro_x25519_scalarmult(pk, sk, hydro_x25519_BASE_POINT, 0) != 0) {
 2675              		.loc 5 337 0
 2676              		.cfi_startproc
 2677              		@ args = 0, pretend = 0, frame = 0
 2678              		@ frame_needed = 0, uses_anonymous_args = 0
 2679              	.LVL336:
 338:libhydrogen\impl/x25519.h ****         abort();
 2680              		.loc 5 338 0
 2681 0000 054A     		ldr	r2, .L133
 337:libhydrogen\impl/x25519.h ****     if (hydro_x25519_scalarmult(pk, sk, hydro_x25519_BASE_POINT, 0) != 0) {
 2682              		.loc 5 337 0
 2683 0002 10B5     		push	{r4, lr}
 2684              		.cfi_def_cfa_offset 8
 2685              		.cfi_offset 4, -8
 2686              		.cfi_offset 14, -4
 338:libhydrogen\impl/x25519.h ****         abort();
 2687              		.loc 5 338 0
 2688 0004 0023     		movs	r3, #0
 2689 0006 3432     		adds	r2, r2, #52
 2690 0008 FFF7FEFF 		bl	hydro_x25519_scalarmult
 2691              	.LVL337:
 2692 000c 0028     		cmp	r0, #0
 2693 000e 01D0     		beq	.L131
ARM GAS  C:\Users\CCPOW_~1\AppData\Local\Temp\ccQfR6ec.s 			page 71


 339:libhydrogen\impl/x25519.h ****     }
 2694              		.loc 5 339 0
 2695 0010 FFF7FEFF 		bl	abort
 2696              	.LVL338:
 2697              	.L131:
 341:libhydrogen\impl/x25519.h **** 
 2698              		.loc 5 341 0
 2699              		@ sp needed
 2700 0014 10BD     		pop	{r4, pc}
 2701              	.L134:
 2702 0016 C046     		.align	2
 2703              	.L133:
 2704 0018 00000000 		.word	.LANCHOR0
 2705              		.cfi_endproc
 2706              	.LFE76:
 2707              		.size	hydro_x25519_scalarmult_base_uniform, .-hydro_x25519_scalarmult_base_uniform
 2708              		.section	.text.hydro_memzero,"ax",%progbits
 2709              		.align	1
 2710              		.global	hydro_memzero
 2711              		.code	16
 2712              		.thumb_func
 2713              		.type	hydro_memzero, %function
 2714              	hydro_memzero:
 2715              	.LFB20:
 2716              		.file 8 "libhydrogen\\impl/core.h"
   1:libhydrogen\impl/core.h **** int
   2:libhydrogen\impl/core.h **** hydro_init(void)
   3:libhydrogen\impl/core.h **** {
   4:libhydrogen\impl/core.h ****     if (hydro_random_init() != 0) {
   5:libhydrogen\impl/core.h ****         abort();
   6:libhydrogen\impl/core.h ****     }
   7:libhydrogen\impl/core.h ****     return 0;
   8:libhydrogen\impl/core.h **** }
   9:libhydrogen\impl/core.h **** 
  10:libhydrogen\impl/core.h **** void
  11:libhydrogen\impl/core.h **** hydro_memzero(void *pnt, size_t len)
  12:libhydrogen\impl/core.h **** {
 2717              		.loc 8 12 0
 2718              		.cfi_startproc
 2719              		@ args = 0, pretend = 0, frame = 8
 2720              		@ frame_needed = 0, uses_anonymous_args = 0
 2721              		@ link register save eliminated.
 2722              	.LVL339:
  13:libhydrogen\impl/core.h ****     volatile unsigned char *volatile pnt_ = (volatile unsigned char *volatile) pnt;
  14:libhydrogen\impl/core.h ****     size_t i                              = (size_t) 0U;
 2723              		.loc 8 14 0
 2724 0000 0023     		movs	r3, #0
  12:libhydrogen\impl/core.h ****     volatile unsigned char *volatile pnt_ = (volatile unsigned char *volatile) pnt;
 2725              		.loc 8 12 0
 2726 0002 82B0     		sub	sp, sp, #8
 2727              		.cfi_def_cfa_offset 8
  13:libhydrogen\impl/core.h ****     volatile unsigned char *volatile pnt_ = (volatile unsigned char *volatile) pnt;
 2728              		.loc 8 13 0
 2729 0004 0190     		str	r0, [sp, #4]
 2730              	.LVL340:
  15:libhydrogen\impl/core.h **** 
  16:libhydrogen\impl/core.h ****     while (i < len) {
ARM GAS  C:\Users\CCPOW_~1\AppData\Local\Temp\ccQfR6ec.s 			page 72


  17:libhydrogen\impl/core.h ****         pnt_[i++] = 0U;
 2731              		.loc 8 17 0
 2732 0006 1800     		movs	r0, r3
 2733              	.LVL341:
 2734              	.L136:
  16:libhydrogen\impl/core.h ****         pnt_[i++] = 0U;
 2735              		.loc 8 16 0
 2736 0008 8B42     		cmp	r3, r1
 2737 000a 04D0     		beq	.L138
 2738              	.LVL342:
 2739              		.loc 8 17 0
 2740 000c 019A     		ldr	r2, [sp, #4]
 2741 000e D218     		adds	r2, r2, r3
 2742 0010 1070     		strb	r0, [r2]
 2743 0012 0133     		adds	r3, r3, #1
 2744              	.LVL343:
 2745 0014 F8E7     		b	.L136
 2746              	.L138:
  18:libhydrogen\impl/core.h ****     }
  19:libhydrogen\impl/core.h **** }
 2747              		.loc 8 19 0
 2748 0016 02B0     		add	sp, sp, #8
 2749              		@ sp needed
 2750 0018 7047     		bx	lr
 2751              		.cfi_endproc
 2752              	.LFE20:
 2753              		.size	hydro_memzero, .-hydro_memzero
 2754              		.section	.text.hydro_increment,"ax",%progbits
 2755              		.align	1
 2756              		.global	hydro_increment
 2757              		.code	16
 2758              		.thumb_func
 2759              		.type	hydro_increment, %function
 2760              	hydro_increment:
 2761              	.LFB21:
  20:libhydrogen\impl/core.h **** 
  21:libhydrogen\impl/core.h **** void
  22:libhydrogen\impl/core.h **** hydro_increment(uint8_t *n, size_t len)
  23:libhydrogen\impl/core.h **** {
 2762              		.loc 8 23 0
 2763              		.cfi_startproc
 2764              		@ args = 0, pretend = 0, frame = 0
 2765              		@ frame_needed = 0, uses_anonymous_args = 0
 2766              		@ link register save eliminated.
 2767              	.LVL344:
  24:libhydrogen\impl/core.h ****     size_t        i;
  25:libhydrogen\impl/core.h ****     uint_fast16_t c = 1U;
 2768              		.loc 8 25 0
 2769 0000 0123     		movs	r3, #1
 2770 0002 4118     		adds	r1, r0, r1
 2771              	.LVL345:
 2772              	.L140:
  26:libhydrogen\impl/core.h **** 
  27:libhydrogen\impl/core.h ****     for (i = 0; i < len; i++) {
 2773              		.loc 8 27 0 discriminator 1
 2774 0004 8842     		cmp	r0, r1
 2775 0006 05D0     		beq	.L142
ARM GAS  C:\Users\CCPOW_~1\AppData\Local\Temp\ccQfR6ec.s 			page 73


  28:libhydrogen\impl/core.h ****         c += (uint_fast16_t) n[i];
 2776              		.loc 8 28 0 discriminator 3
 2777 0008 0278     		ldrb	r2, [r0]
 2778 000a D318     		adds	r3, r2, r3
 2779              	.LVL346:
  29:libhydrogen\impl/core.h ****         n[i] = (uint8_t) c;
 2780              		.loc 8 29 0 discriminator 3
 2781 000c 0370     		strb	r3, [r0]
  30:libhydrogen\impl/core.h ****         c >>= 8;
 2782              		.loc 8 30 0 discriminator 3
 2783 000e 1B0A     		lsrs	r3, r3, #8
 2784              	.LVL347:
 2785 0010 0130     		adds	r0, r0, #1
 2786              	.LVL348:
 2787 0012 F7E7     		b	.L140
 2788              	.L142:
  31:libhydrogen\impl/core.h ****     }
  32:libhydrogen\impl/core.h **** }
 2789              		.loc 8 32 0
 2790              		@ sp needed
 2791 0014 7047     		bx	lr
 2792              		.cfi_endproc
 2793              	.LFE21:
 2794              		.size	hydro_increment, .-hydro_increment
 2795              		.section	.text.hydro_bin2hex,"ax",%progbits
 2796              		.align	1
 2797              		.global	hydro_bin2hex
 2798              		.code	16
 2799              		.thumb_func
 2800              		.type	hydro_bin2hex, %function
 2801              	hydro_bin2hex:
 2802              	.LFB22:
  33:libhydrogen\impl/core.h **** 
  34:libhydrogen\impl/core.h **** char *
  35:libhydrogen\impl/core.h **** hydro_bin2hex(char *hex, size_t hex_maxlen, const uint8_t *bin, size_t bin_len)
  36:libhydrogen\impl/core.h **** {
 2803              		.loc 8 36 0
 2804              		.cfi_startproc
 2805              		@ args = 0, pretend = 0, frame = 8
 2806              		@ frame_needed = 0, uses_anonymous_args = 0
 2807              	.LVL349:
 2808 0000 F7B5     		push	{r0, r1, r2, r4, r5, r6, r7, lr}
 2809              		.cfi_def_cfa_offset 32
 2810              		.cfi_offset 0, -32
 2811              		.cfi_offset 1, -28
 2812              		.cfi_offset 2, -24
 2813              		.cfi_offset 4, -20
 2814              		.cfi_offset 5, -16
 2815              		.cfi_offset 6, -12
 2816              		.cfi_offset 7, -8
 2817              		.cfi_offset 14, -4
  37:libhydrogen\impl/core.h ****     size_t       i = (size_t) 0U;
  38:libhydrogen\impl/core.h ****     unsigned int x;
  39:libhydrogen\impl/core.h ****     int          b;
  40:libhydrogen\impl/core.h ****     int          c;
  41:libhydrogen\impl/core.h **** 
  42:libhydrogen\impl/core.h ****     if (bin_len >= SIZE_MAX / 2 || hex_maxlen <= bin_len * 2U) {
ARM GAS  C:\Users\CCPOW_~1\AppData\Local\Temp\ccQfR6ec.s 			page 74


 2818              		.loc 8 42 0
 2819 0002 174C     		ldr	r4, .L148
 2820 0004 A342     		cmp	r3, r4
 2821 0006 09D8     		bhi	.L144
 2822              		.loc 8 42 0 is_stmt 0 discriminator 1
 2823 0008 5E00     		lsls	r6, r3, #1
 2824 000a 8E42     		cmp	r6, r1
 2825 000c 06D2     		bcs	.L144
 2826 000e D318     		adds	r3, r2, r3
 2827              	.LVL350:
 2828 0010 0193     		str	r3, [sp, #4]
 2829 0012 0F23     		movs	r3, #15
 2830 0014 0500     		movs	r5, r0
 2831 0016 9C46     		mov	ip, r3
  43:libhydrogen\impl/core.h ****         abort();
  44:libhydrogen\impl/core.h ****     }
  45:libhydrogen\impl/core.h ****     while (i < bin_len) {
  46:libhydrogen\impl/core.h ****         c = bin[i] & 0xf;
  47:libhydrogen\impl/core.h ****         b = bin[i] >> 4;
  48:libhydrogen\impl/core.h ****         x = (unsigned char) (87U + c + (((c - 10U) >> 8) & ~38U)) << 8 |
 2832              		.loc 8 48 0 is_stmt 1
 2833 0018 2627     		movs	r7, #38
 2834 001a 01E0     		b	.L145
 2835              	.LVL351:
 2836              	.L144:
  43:libhydrogen\impl/core.h ****         abort();
 2837              		.loc 8 43 0
 2838 001c FFF7FEFF 		bl	abort
 2839              	.LVL352:
 2840              	.L145:
  45:libhydrogen\impl/core.h ****         c = bin[i] & 0xf;
 2841              		.loc 8 45 0
 2842 0020 019B     		ldr	r3, [sp, #4]
 2843 0022 9A42     		cmp	r2, r3
 2844 0024 19D0     		beq	.L147
 2845 0026 6446     		mov	r4, ip
  46:libhydrogen\impl/core.h ****         b = bin[i] >> 4;
 2846              		.loc 8 46 0
 2847 0028 1378     		ldrb	r3, [r2]
 2848 002a 0132     		adds	r2, r2, #1
 2849              	.LVL353:
 2850 002c 1C40     		ands	r4, r3
 2851              	.LVL354:
 2852              		.loc 8 48 0
 2853 002e 2100     		movs	r1, r4
 2854 0030 0A39     		subs	r1, r1, #10
 2855 0032 090A     		lsrs	r1, r1, #8
 2856 0034 B943     		bics	r1, r7
 2857 0036 5734     		adds	r4, r4, #87
 2858              	.LVL355:
  47:libhydrogen\impl/core.h ****         x = (unsigned char) (87U + c + (((c - 10U) >> 8) & ~38U)) << 8 |
 2859              		.loc 8 47 0
 2860 0038 1B09     		lsrs	r3, r3, #4
 2861              	.LVL356:
 2862              		.loc 8 48 0
 2863 003a 0C19     		adds	r4, r1, r4
 2864              	.LVL357:
ARM GAS  C:\Users\CCPOW_~1\AppData\Local\Temp\ccQfR6ec.s 			page 75


 2865 003c E1B2     		uxtb	r1, r4
 2866 003e 1C00     		movs	r4, r3
 2867 0040 0A3C     		subs	r4, r4, #10
 2868 0042 240A     		lsrs	r4, r4, #8
 2869 0044 BC43     		bics	r4, r7
 2870 0046 5733     		adds	r3, r3, #87
 2871              	.LVL358:
 2872 0048 E318     		adds	r3, r4, r3
 2873              	.LVL359:
 2874 004a 0902     		lsls	r1, r1, #8
 2875 004c DBB2     		uxtb	r3, r3
 2876 004e 1943     		orrs	r1, r3
 2877              	.LVL360:
  49:libhydrogen\impl/core.h ****             (unsigned char) (87U + b + (((b - 10U) >> 8) & ~38U));
  50:libhydrogen\impl/core.h ****         hex[i * 2U] = (char) x;
 2878              		.loc 8 50 0
 2879 0050 2970     		strb	r1, [r5]
 2880              	.LVL361:
  51:libhydrogen\impl/core.h ****         x >>= 8;
  52:libhydrogen\impl/core.h ****         hex[i * 2U + 1U] = (char) x;
 2881              		.loc 8 52 0
 2882 0052 090A     		lsrs	r1, r1, #8
 2883              	.LVL362:
 2884 0054 6970     		strb	r1, [r5, #1]
 2885              	.LVL363:
 2886 0056 0235     		adds	r5, r5, #2
 2887 0058 E2E7     		b	.L145
 2888              	.LVL364:
 2889              	.L147:
  53:libhydrogen\impl/core.h ****         i++;
  54:libhydrogen\impl/core.h ****     }
  55:libhydrogen\impl/core.h ****     hex[i * 2U] = 0U;
 2890              		.loc 8 55 0
 2891 005a 0023     		movs	r3, #0
 2892 005c 8355     		strb	r3, [r0, r6]
  56:libhydrogen\impl/core.h **** 
  57:libhydrogen\impl/core.h ****     return hex;
  58:libhydrogen\impl/core.h **** }
 2893              		.loc 8 58 0
 2894              		@ sp needed
 2895 005e FEBD     		pop	{r1, r2, r3, r4, r5, r6, r7, pc}
 2896              	.L149:
 2897              		.align	2
 2898              	.L148:
 2899 0060 FEFFFF7F 		.word	2147483646
 2900              		.cfi_endproc
 2901              	.LFE22:
 2902              		.size	hydro_bin2hex, .-hydro_bin2hex
 2903              		.section	.text.hydro_hex2bin,"ax",%progbits
 2904              		.align	1
 2905              		.global	hydro_hex2bin
 2906              		.code	16
 2907              		.thumb_func
 2908              		.type	hydro_hex2bin, %function
 2909              	hydro_hex2bin:
 2910              	.LFB23:
  59:libhydrogen\impl/core.h **** 
ARM GAS  C:\Users\CCPOW_~1\AppData\Local\Temp\ccQfR6ec.s 			page 76


  60:libhydrogen\impl/core.h **** int
  61:libhydrogen\impl/core.h **** hydro_hex2bin(uint8_t *bin, size_t bin_maxlen, const char *hex, size_t hex_len, const char *ignore,
  62:libhydrogen\impl/core.h ****               const char **hex_end_p)
  63:libhydrogen\impl/core.h **** {
 2911              		.loc 8 63 0
 2912              		.cfi_startproc
 2913              		@ args = 8, pretend = 0, frame = 32
 2914              		@ frame_needed = 0, uses_anonymous_args = 0
 2915              	.LVL365:
 2916 0000 F0B5     		push	{r4, r5, r6, r7, lr}
 2917              		.cfi_def_cfa_offset 20
 2918              		.cfi_offset 4, -20
 2919              		.cfi_offset 5, -16
 2920              		.cfi_offset 6, -12
 2921              		.cfi_offset 7, -8
 2922              		.cfi_offset 14, -4
  64:libhydrogen\impl/core.h ****     size_t        bin_pos = (size_t) 0U;
  65:libhydrogen\impl/core.h ****     size_t        hex_pos = (size_t) 0U;
  66:libhydrogen\impl/core.h ****     int           ret     = 0;
  67:libhydrogen\impl/core.h ****     unsigned char c;
  68:libhydrogen\impl/core.h ****     unsigned char c_alpha0, c_alpha;
  69:libhydrogen\impl/core.h ****     unsigned char c_num0, c_num;
  70:libhydrogen\impl/core.h ****     uint8_t       c_acc = 0U;
  71:libhydrogen\impl/core.h ****     uint8_t       c_val;
  72:libhydrogen\impl/core.h ****     unsigned char state = 0U;
 2923              		.loc 8 72 0
 2924 0002 0024     		movs	r4, #0
  73:libhydrogen\impl/core.h **** 
  74:libhydrogen\impl/core.h ****     while (hex_pos < hex_len) {
 2925              		.loc 8 74 0
 2926 0004 0126     		movs	r6, #1
  64:libhydrogen\impl/core.h ****     size_t        bin_pos = (size_t) 0U;
 2927              		.loc 8 64 0
 2928 0006 2500     		movs	r5, r4
  63:libhydrogen\impl/core.h ****     size_t        bin_pos = (size_t) 0U;
 2929              		.loc 8 63 0
 2930 0008 89B0     		sub	sp, sp, #36
 2931              		.cfi_def_cfa_offset 56
  63:libhydrogen\impl/core.h ****     size_t        bin_pos = (size_t) 0U;
 2932              		.loc 8 63 0
 2933 000a 0493     		str	r3, [sp, #16]
 2934 000c 0133     		adds	r3, r3, #1
 2935              	.LVL366:
 2936 000e 0690     		str	r0, [sp, #24]
 2937 0010 0791     		str	r1, [sp, #28]
 2938 0012 0392     		str	r2, [sp, #12]
 2939 0014 0593     		str	r3, [sp, #20]
  70:libhydrogen\impl/core.h ****     uint8_t       c_val;
 2940              		.loc 8 70 0
 2941 0016 0294     		str	r4, [sp, #8]
 2942              	.LVL367:
 2943              	.L151:
 2944 0018 731E     		subs	r3, r6, #1
 2945 001a 0193     		str	r3, [sp, #4]
 2946              	.LVL368:
 2947              		.loc 8 74 0
 2948 001c 059B     		ldr	r3, [sp, #20]
ARM GAS  C:\Users\CCPOW_~1\AppData\Local\Temp\ccQfR6ec.s 			page 77


 2949              	.LVL369:
 2950 001e 9E42     		cmp	r6, r3
 2951 0020 3FD0     		beq	.L153
  75:libhydrogen\impl/core.h ****         c        = (unsigned char) hex[hex_pos];
 2952              		.loc 8 75 0
 2953 0022 039B     		ldr	r3, [sp, #12]
 2954 0024 721E     		subs	r2, r6, #1
 2955 0026 9B5C     		ldrb	r3, [r3, r2]
  76:libhydrogen\impl/core.h ****         c_num    = c ^ 48U;
 2956              		.loc 8 76 0
 2957 0028 3021     		movs	r1, #48
  77:libhydrogen\impl/core.h ****         c_num0   = (c_num - 10U) >> 8;
  78:libhydrogen\impl/core.h ****         c_alpha  = (c & ~32U) - 55U;
 2958              		.loc 8 78 0
 2959 002a 2022     		movs	r2, #32
  76:libhydrogen\impl/core.h ****         c_num    = c ^ 48U;
 2960              		.loc 8 76 0
 2961 002c 5940     		eors	r1, r3
  75:libhydrogen\impl/core.h ****         c_num    = c ^ 48U;
 2962              		.loc 8 75 0
 2963 002e 9C46     		mov	ip, r3
 2964              	.LVL370:
 2965              		.loc 8 78 0
 2966 0030 9343     		bics	r3, r2
 2967              	.LVL371:
  77:libhydrogen\impl/core.h ****         c_num0   = (c_num - 10U) >> 8;
 2968              		.loc 8 77 0
 2969 0032 0F00     		movs	r7, r1
 2970              		.loc 8 78 0
 2971 0034 373B     		subs	r3, r3, #55
 2972 0036 DBB2     		uxtb	r3, r3
  79:libhydrogen\impl/core.h ****         c_alpha0 = ((c_alpha - 10U) ^ (c_alpha - 16U)) >> 8;
 2973              		.loc 8 79 0
 2974 0038 1A00     		movs	r2, r3
 2975 003a 1800     		movs	r0, r3
  77:libhydrogen\impl/core.h ****         c_num0   = (c_num - 10U) >> 8;
 2976              		.loc 8 77 0
 2977 003c 0A3F     		subs	r7, r7, #10
 2978 003e 3F0A     		lsrs	r7, r7, #8
 2979              		.loc 8 79 0
 2980 0040 1038     		subs	r0, r0, #16
  77:libhydrogen\impl/core.h ****         c_num0   = (c_num - 10U) >> 8;
 2981              		.loc 8 77 0
 2982 0042 FFB2     		uxtb	r7, r7
 2983              	.LVL372:
 2984              		.loc 8 79 0
 2985 0044 0A3A     		subs	r2, r2, #10
 2986 0046 4240     		eors	r2, r0
  80:libhydrogen\impl/core.h ****         if ((c_num0 | c_alpha0) == 0U) {
 2987              		.loc 8 80 0
 2988 0048 3800     		movs	r0, r7
  79:libhydrogen\impl/core.h ****         c_alpha0 = ((c_alpha - 10U) ^ (c_alpha - 16U)) >> 8;
 2989              		.loc 8 79 0
 2990 004a 120A     		lsrs	r2, r2, #8
 2991 004c D2B2     		uxtb	r2, r2
 2992              	.LVL373:
 2993              		.loc 8 80 0
ARM GAS  C:\Users\CCPOW_~1\AppData\Local\Temp\ccQfR6ec.s 			page 78


 2994 004e 1043     		orrs	r0, r2
 2995 0050 0BD1     		bne	.L152
  81:libhydrogen\impl/core.h ****             if (ignore != NULL && state == 0U && strchr(ignore, c) != NULL) {
 2996              		.loc 8 81 0
 2997 0052 0E9B     		ldr	r3, [sp, #56]
 2998              	.LVL374:
 2999 0054 002B     		cmp	r3, #0
 3000 0056 24D0     		beq	.L153
 3001              		.loc 8 81 0 is_stmt 0 discriminator 1
 3002 0058 002C     		cmp	r4, #0
 3003 005a 24D1     		bne	.L154
 3004              		.loc 8 81 0 discriminator 2
 3005 005c 6146     		mov	r1, ip
 3006              	.LVL375:
 3007 005e 1800     		movs	r0, r3
 3008 0060 FFF7FEFF 		bl	strchr
 3009              	.LVL376:
 3010 0064 0028     		cmp	r0, #0
 3011 0066 1AD1     		bne	.L155
 3012 0068 46E0     		b	.L174
 3013              	.LVL377:
 3014              	.L152:
  82:libhydrogen\impl/core.h ****                 hex_pos++;
  83:libhydrogen\impl/core.h ****                 continue;
  84:libhydrogen\impl/core.h ****             }
  85:libhydrogen\impl/core.h ****             break;
  86:libhydrogen\impl/core.h ****         }
  87:libhydrogen\impl/core.h ****         c_val = (uint8_t)((c_num0 & c_num) | (c_alpha0 & c_alpha));
 3015              		.loc 8 87 0 is_stmt 1
 3016 006a 1340     		ands	r3, r2
 3017              	.LVL378:
  88:libhydrogen\impl/core.h ****         if (bin_pos >= bin_maxlen) {
 3018              		.loc 8 88 0
 3019 006c 079A     		ldr	r2, [sp, #28]
 3020              	.LVL379:
  87:libhydrogen\impl/core.h ****         if (bin_pos >= bin_maxlen) {
 3021              		.loc 8 87 0
 3022 006e 0F40     		ands	r7, r1
 3023              	.LVL380:
 3024 0070 3B43     		orrs	r3, r7
 3025              	.LVL381:
 3026              		.loc 8 88 0
 3027 0072 9542     		cmp	r5, r2
 3028 0074 06D3     		bcc	.L157
 3029              	.LVL382:
  89:libhydrogen\impl/core.h ****             ret   = -1;
  90:libhydrogen\impl/core.h ****             errno = ERANGE;
 3030              		.loc 8 90 0
 3031 0076 FFF7FEFF 		bl	__errno
 3032              	.LVL383:
 3033 007a 2223     		movs	r3, #34
 3034 007c 0360     		str	r3, [r0]
  91:libhydrogen\impl/core.h ****             break;
  92:libhydrogen\impl/core.h ****         }
  93:libhydrogen\impl/core.h ****         if (state == 0U) {
  94:libhydrogen\impl/core.h ****             c_acc = c_val * 16U;
  95:libhydrogen\impl/core.h ****         } else {
ARM GAS  C:\Users\CCPOW_~1\AppData\Local\Temp\ccQfR6ec.s 			page 79


  96:libhydrogen\impl/core.h ****             bin[bin_pos++] = c_acc | c_val;
  97:libhydrogen\impl/core.h ****         }
  98:libhydrogen\impl/core.h ****         state = ~state;
  99:libhydrogen\impl/core.h ****         hex_pos++;
 100:libhydrogen\impl/core.h ****     }
 101:libhydrogen\impl/core.h ****     if (state != 0U) {
 3035              		.loc 8 101 0
 3036 007e 002C     		cmp	r4, #0
 3037 0080 1DD0     		beq	.L172
 3038 0082 10E0     		b	.L154
 3039              	.LVL384:
 3040              	.L157:
  93:libhydrogen\impl/core.h ****             c_acc = c_val * 16U;
 3041              		.loc 8 93 0
 3042 0084 002C     		cmp	r4, #0
 3043 0086 03D1     		bne	.L159
  94:libhydrogen\impl/core.h ****         } else {
 3044              		.loc 8 94 0
 3045 0088 1B01     		lsls	r3, r3, #4
 3046              	.LVL385:
 3047 008a DBB2     		uxtb	r3, r3
 3048 008c 0293     		str	r3, [sp, #8]
 3049              	.LVL386:
 3050 008e 04E0     		b	.L160
 3051              	.LVL387:
 3052              	.L159:
  96:libhydrogen\impl/core.h ****         }
 3053              		.loc 8 96 0
 3054 0090 029A     		ldr	r2, [sp, #8]
 3055 0092 1343     		orrs	r3, r2
 3056              	.LVL388:
 3057 0094 069A     		ldr	r2, [sp, #24]
 3058 0096 5355     		strb	r3, [r2, r5]
 3059 0098 0135     		adds	r5, r5, #1
 3060              	.LVL389:
 3061              	.L160:
  98:libhydrogen\impl/core.h ****         hex_pos++;
 3062              		.loc 8 98 0
 3063 009a E443     		mvns	r4, r4
 3064              	.LVL390:
 3065 009c E4B2     		uxtb	r4, r4
 3066              	.LVL391:
 3067              	.L155:
 3068 009e 0136     		adds	r6, r6, #1
 3069 00a0 BAE7     		b	.L151
 3070              	.LVL392:
 3071              	.L153:
 3072              		.loc 8 101 0
 3073 00a2 002C     		cmp	r4, #0
 3074 00a4 28D0     		beq	.L174
 3075              	.LVL393:
 3076              	.L154:
 102:libhydrogen\impl/core.h ****         hex_pos--;
 3077              		.loc 8 102 0
 3078 00a6 B31E     		subs	r3, r6, #2
 3079 00a8 0193     		str	r3, [sp, #4]
 3080              	.LVL394:
ARM GAS  C:\Users\CCPOW_~1\AppData\Local\Temp\ccQfR6ec.s 			page 80


 103:libhydrogen\impl/core.h ****         errno = EINVAL;
 3081              		.loc 8 103 0
 3082 00aa FFF7FEFF 		bl	__errno
 3083              	.LVL395:
 3084 00ae 1623     		movs	r3, #22
 104:libhydrogen\impl/core.h ****         ret   = -1;
 105:libhydrogen\impl/core.h ****     }
 106:libhydrogen\impl/core.h ****     if (ret != 0) {
 107:libhydrogen\impl/core.h ****         bin_pos = (size_t) 0U;
 3085              		.loc 8 107 0
 3086 00b0 0025     		movs	r5, #0
 3087              	.LVL396:
 103:libhydrogen\impl/core.h ****         errno = EINVAL;
 3088              		.loc 8 103 0
 3089 00b2 0360     		str	r3, [r0]
 3090              	.LVL397:
 104:libhydrogen\impl/core.h ****         ret   = -1;
 3091              		.loc 8 104 0
 3092 00b4 173B     		subs	r3, r3, #23
 3093              	.LVL398:
 3094              	.L156:
 108:libhydrogen\impl/core.h ****     }
 109:libhydrogen\impl/core.h ****     if (hex_end_p != NULL) {
 3095              		.loc 8 109 0
 3096 00b6 0F9A     		ldr	r2, [sp, #60]
 3097 00b8 002A     		cmp	r2, #0
 3098 00ba 06D1     		bne	.L165
 3099 00bc 0DE0     		b	.L175
 3100              	.LVL399:
 3101              	.L172:
 3102 00be 0F9B     		ldr	r3, [sp, #60]
 3103 00c0 002B     		cmp	r3, #0
 3104 00c2 0ED0     		beq	.L166
  89:libhydrogen\impl/core.h ****             errno = ERANGE;
 3105              		.loc 8 89 0
 3106 00c4 0123     		movs	r3, #1
 107:libhydrogen\impl/core.h ****     }
 3107              		.loc 8 107 0
 3108 00c6 2500     		movs	r5, r4
  89:libhydrogen\impl/core.h ****             errno = ERANGE;
 3109              		.loc 8 89 0
 3110 00c8 5B42     		rsbs	r3, r3, #0
 3111              	.LVL400:
 3112              	.L165:
 110:libhydrogen\impl/core.h ****         *hex_end_p = &hex[hex_pos];
 3113              		.loc 8 110 0
 3114 00ca 0199     		ldr	r1, [sp, #4]
 3115 00cc 039A     		ldr	r2, [sp, #12]
 3116 00ce 8C46     		mov	ip, r1
 3117 00d0 6244     		add	r2, r2, ip
 3118 00d2 1600     		movs	r6, r2
 3119 00d4 0F9A     		ldr	r2, [sp, #60]
 3120 00d6 1660     		str	r6, [r2]
 3121 00d8 08E0     		b	.L163
 3122              	.LVL401:
 3123              	.L175:
 111:libhydrogen\impl/core.h ****     } else if (hex_pos != hex_len) {
ARM GAS  C:\Users\CCPOW_~1\AppData\Local\Temp\ccQfR6ec.s 			page 81


 3124              		.loc 8 111 0
 3125 00da 049A     		ldr	r2, [sp, #16]
 3126 00dc 0199     		ldr	r1, [sp, #4]
 3127 00de 8A42     		cmp	r2, r1
 3128 00e0 04D0     		beq	.L163
 3129              	.LVL402:
 3130              	.L166:
 112:libhydrogen\impl/core.h ****         errno = EINVAL;
 3131              		.loc 8 112 0
 3132 00e2 FFF7FEFF 		bl	__errno
 3133              	.LVL403:
 3134 00e6 1623     		movs	r3, #22
 3135 00e8 0360     		str	r3, [r0]
 3136              	.LVL404:
 3137 00ea 02E0     		b	.L167
 3138              	.LVL405:
 3139              	.L163:
 113:libhydrogen\impl/core.h ****         ret   = -1;
 114:libhydrogen\impl/core.h ****     }
 115:libhydrogen\impl/core.h ****     if (ret != 0) {
 116:libhydrogen\impl/core.h ****         return ret;
 117:libhydrogen\impl/core.h ****     }
 118:libhydrogen\impl/core.h ****     return (int) bin_pos;
 3140              		.loc 8 118 0
 3141 00ec 2800     		movs	r0, r5
 115:libhydrogen\impl/core.h ****         return ret;
 3142              		.loc 8 115 0
 3143 00ee 002B     		cmp	r3, #0
 3144 00f0 04D0     		beq	.L173
 3145              	.LVL406:
 3146              	.L167:
 3147 00f2 0120     		movs	r0, #1
 3148 00f4 4042     		rsbs	r0, r0, #0
 3149 00f6 01E0     		b	.L173
 3150              	.LVL407:
 3151              	.L174:
 101:libhydrogen\impl/core.h ****         hex_pos--;
 3152              		.loc 8 101 0
 3153 00f8 2300     		movs	r3, r4
 3154 00fa DCE7     		b	.L156
 3155              	.LVL408:
 3156              	.L173:
 119:libhydrogen\impl/core.h **** }
 3157              		.loc 8 119 0
 3158 00fc 09B0     		add	sp, sp, #36
 3159              		@ sp needed
 3160              	.LVL409:
 3161 00fe F0BD     		pop	{r4, r5, r6, r7, pc}
 3162              		.cfi_endproc
 3163              	.LFE23:
 3164              		.size	hydro_hex2bin, .-hydro_hex2bin
 3165              		.section	.text.hydro_equal,"ax",%progbits
 3166              		.align	1
 3167              		.global	hydro_equal
 3168              		.code	16
 3169              		.thumb_func
 3170              		.type	hydro_equal, %function
ARM GAS  C:\Users\CCPOW_~1\AppData\Local\Temp\ccQfR6ec.s 			page 82


 3171              	hydro_equal:
 3172              	.LFB24:
 120:libhydrogen\impl/core.h **** 
 121:libhydrogen\impl/core.h **** bool
 122:libhydrogen\impl/core.h **** hydro_equal(const void *b1_, const void *b2_, size_t len)
 123:libhydrogen\impl/core.h **** {
 3173              		.loc 8 123 0
 3174              		.cfi_startproc
 3175              		@ args = 0, pretend = 0, frame = 8
 3176              		@ frame_needed = 0, uses_anonymous_args = 0
 3177              	.LVL410:
 3178 0000 37B5     		push	{r0, r1, r2, r4, r5, lr}
 3179              		.cfi_def_cfa_offset 24
 3180              		.cfi_offset 0, -24
 3181              		.cfi_offset 1, -20
 3182              		.cfi_offset 2, -16
 3183              		.cfi_offset 4, -12
 3184              		.cfi_offset 5, -8
 3185              		.cfi_offset 14, -4
 124:libhydrogen\impl/core.h ****     const volatile uint8_t *volatile b1 = (const volatile uint8_t *volatile) b1_;
 3186              		.loc 8 124 0
 3187 0002 0190     		str	r0, [sp, #4]
 3188              	.LVL411:
 125:libhydrogen\impl/core.h ****     const uint8_t *b2                   = (const uint8_t *) b2_;
 126:libhydrogen\impl/core.h ****     size_t         i;
 127:libhydrogen\impl/core.h ****     uint8_t        d = (uint8_t) 0U;
 128:libhydrogen\impl/core.h **** 
 129:libhydrogen\impl/core.h ****     if (b1 == b2) {
 3189              		.loc 8 129 0
 3190 0004 0198     		ldr	r0, [sp, #4]
 3191              	.LVL412:
 3192 0006 081A     		subs	r0, r1, r0
 3193 0008 4342     		rsbs	r3, r0, #0
 3194 000a 5841     		adcs	r0, r0, r3
 3195 000c 0023     		movs	r3, #0
 3196 000e 4042     		rsbs	r0, r0, #0
 3197 0010 C0B2     		uxtb	r0, r0
 3198              	.LVL413:
 3199              	.L177:
 130:libhydrogen\impl/core.h ****         d = ~d;
 131:libhydrogen\impl/core.h ****     }
 132:libhydrogen\impl/core.h ****     for (i = 0U; i < len; i++) {
 3200              		.loc 8 132 0 discriminator 1
 3201 0012 9342     		cmp	r3, r2
 3202 0014 07D0     		beq	.L179
 133:libhydrogen\impl/core.h ****         d |= b1[i] ^ b2[i];
 3203              		.loc 8 133 0 discriminator 3
 3204 0016 019C     		ldr	r4, [sp, #4]
 3205 0018 E418     		adds	r4, r4, r3
 3206 001a 2578     		ldrb	r5, [r4]
 3207 001c CC5C     		ldrb	r4, [r1, r3]
 132:libhydrogen\impl/core.h ****         d |= b1[i] ^ b2[i];
 3208              		.loc 8 132 0 discriminator 3
 3209 001e 0133     		adds	r3, r3, #1
 3210              	.LVL414:
 3211              		.loc 8 133 0 discriminator 3
 3212 0020 6C40     		eors	r4, r5
ARM GAS  C:\Users\CCPOW_~1\AppData\Local\Temp\ccQfR6ec.s 			page 83


 3213 0022 2043     		orrs	r0, r4
 3214              	.LVL415:
 3215 0024 F5E7     		b	.L177
 3216              	.L179:
 134:libhydrogen\impl/core.h ****     }
 135:libhydrogen\impl/core.h ****     return (bool) (1 & ((d - 1) >> 8));
 3217              		.loc 8 135 0
 3218 0026 0138     		subs	r0, r0, #1
 3219              	.LVL416:
 3220 0028 C005     		lsls	r0, r0, #23
 3221 002a C00F     		lsrs	r0, r0, #31
 136:libhydrogen\impl/core.h **** }
 3222              		.loc 8 136 0
 3223              		@ sp needed
 3224 002c 3EBD     		pop	{r1, r2, r3, r4, r5, pc}
 3225              		.cfi_endproc
 3226              	.LFE24:
 3227              		.size	hydro_equal, .-hydro_equal
 3228              		.section	.text.hydro_compare,"ax",%progbits
 3229              		.align	1
 3230              		.global	hydro_compare
 3231              		.code	16
 3232              		.thumb_func
 3233              		.type	hydro_compare, %function
 3234              	hydro_compare:
 3235              	.LFB25:
 137:libhydrogen\impl/core.h **** 
 138:libhydrogen\impl/core.h **** int
 139:libhydrogen\impl/core.h **** hydro_compare(const uint8_t *b1_, const uint8_t *b2_, size_t len)
 140:libhydrogen\impl/core.h **** {
 3236              		.loc 8 140 0
 3237              		.cfi_startproc
 3238              		@ args = 0, pretend = 0, frame = 8
 3239              		@ frame_needed = 0, uses_anonymous_args = 0
 3240              	.LVL417:
 3241 0000 73B5     		push	{r0, r1, r4, r5, r6, lr}
 3242              		.cfi_def_cfa_offset 24
 3243              		.cfi_offset 0, -24
 3244              		.cfi_offset 1, -20
 3245              		.cfi_offset 4, -16
 3246              		.cfi_offset 5, -12
 3247              		.cfi_offset 6, -8
 3248              		.cfi_offset 14, -4
 141:libhydrogen\impl/core.h ****     const volatile uint8_t *volatile b1 = (const volatile uint8_t *volatile) b1_;
 142:libhydrogen\impl/core.h ****     const uint8_t *b2                   = (const uint8_t *) b2_;
 143:libhydrogen\impl/core.h ****     uint8_t        gt                   = 0U;
 144:libhydrogen\impl/core.h ****     uint8_t        eq                   = 1U;
 3249              		.loc 8 144 0
 3250 0002 0123     		movs	r3, #1
 141:libhydrogen\impl/core.h ****     const volatile uint8_t *volatile b1 = (const volatile uint8_t *volatile) b1_;
 3251              		.loc 8 141 0
 3252 0004 0190     		str	r0, [sp, #4]
 3253              	.LVL418:
 143:libhydrogen\impl/core.h ****     uint8_t        eq                   = 1U;
 3254              		.loc 8 143 0
 3255 0006 0020     		movs	r0, #0
 3256              	.LVL419:
ARM GAS  C:\Users\CCPOW_~1\AppData\Local\Temp\ccQfR6ec.s 			page 84


 3257              	.L181:
 145:libhydrogen\impl/core.h ****     size_t         i;
 146:libhydrogen\impl/core.h **** 
 147:libhydrogen\impl/core.h ****     i = len;
 148:libhydrogen\impl/core.h ****     while (i != 0U) {
 3258              		.loc 8 148 0
 3259 0008 002A     		cmp	r2, #0
 3260 000a 10D0     		beq	.L183
 149:libhydrogen\impl/core.h ****         i--;
 150:libhydrogen\impl/core.h ****         gt |= ((b2[i] - b1[i]) >> 8) & eq;
 3261              		.loc 8 150 0
 3262 000c 019C     		ldr	r4, [sp, #4]
 149:libhydrogen\impl/core.h ****         i--;
 3263              		.loc 8 149 0
 3264 000e 013A     		subs	r2, r2, #1
 3265              	.LVL420:
 3266              		.loc 8 150 0
 3267 0010 A418     		adds	r4, r4, r2
 3268 0012 2578     		ldrb	r5, [r4]
 151:libhydrogen\impl/core.h ****         eq &= ((b2[i] ^ b1[i]) - 1) >> 8;
 3269              		.loc 8 151 0
 3270 0014 019C     		ldr	r4, [sp, #4]
 150:libhydrogen\impl/core.h ****         eq &= ((b2[i] ^ b1[i]) - 1) >> 8;
 3271              		.loc 8 150 0
 3272 0016 8E5C     		ldrb	r6, [r1, r2]
 3273              		.loc 8 151 0
 3274 0018 A418     		adds	r4, r4, r2
 3275 001a 2478     		ldrb	r4, [r4]
 150:libhydrogen\impl/core.h ****         eq &= ((b2[i] ^ b1[i]) - 1) >> 8;
 3276              		.loc 8 150 0
 3277 001c 751B     		subs	r5, r6, r5
 3278              		.loc 8 151 0
 3279 001e 7440     		eors	r4, r6
 150:libhydrogen\impl/core.h ****         eq &= ((b2[i] ^ b1[i]) - 1) >> 8;
 3280              		.loc 8 150 0
 3281 0020 2D12     		asrs	r5, r5, #8
 3282              		.loc 8 151 0
 3283 0022 013C     		subs	r4, r4, #1
 150:libhydrogen\impl/core.h ****         eq &= ((b2[i] ^ b1[i]) - 1) >> 8;
 3284              		.loc 8 150 0
 3285 0024 1D40     		ands	r5, r3
 3286              		.loc 8 151 0
 3287 0026 2412     		asrs	r4, r4, #8
 150:libhydrogen\impl/core.h ****         eq &= ((b2[i] ^ b1[i]) - 1) >> 8;
 3288              		.loc 8 150 0
 3289 0028 2843     		orrs	r0, r5
 3290              	.LVL421:
 3291              		.loc 8 151 0
 3292 002a 2340     		ands	r3, r4
 3293              	.LVL422:
 3294 002c ECE7     		b	.L181
 3295              	.L183:
 152:libhydrogen\impl/core.h ****     }
 153:libhydrogen\impl/core.h ****     return (int) (gt + gt + eq) - 1;
 3296              		.loc 8 153 0
 3297 002e 4000     		lsls	r0, r0, #1
 3298              	.LVL423:
ARM GAS  C:\Users\CCPOW_~1\AppData\Local\Temp\ccQfR6ec.s 			page 85


 3299 0030 C018     		adds	r0, r0, r3
 3300 0032 0138     		subs	r0, r0, #1
 154:libhydrogen\impl/core.h **** }
 3301              		.loc 8 154 0
 3302              		@ sp needed
 3303 0034 76BD     		pop	{r1, r2, r4, r5, r6, pc}
 3304              		.cfi_endproc
 3305              	.LFE25:
 3306              		.size	hydro_compare, .-hydro_compare
 3307              		.global	__aeabi_uidivmod
 3308              		.section	.text.hydro_pad,"ax",%progbits
 3309              		.align	1
 3310              		.global	hydro_pad
 3311              		.code	16
 3312              		.thumb_func
 3313              		.type	hydro_pad, %function
 3314              	hydro_pad:
 3315              	.LFB26:
 155:libhydrogen\impl/core.h **** 
 156:libhydrogen\impl/core.h **** int
 157:libhydrogen\impl/core.h **** hydro_pad(unsigned char *buf, size_t unpadded_buflen, size_t blocksize, size_t max_buflen)
 158:libhydrogen\impl/core.h **** {
 3316              		.loc 8 158 0
 3317              		.cfi_startproc
 3318              		@ args = 0, pretend = 0, frame = 16
 3319              		@ frame_needed = 0, uses_anonymous_args = 0
 3320              	.LVL424:
 3321 0000 F0B5     		push	{r4, r5, r6, r7, lr}
 3322              		.cfi_def_cfa_offset 20
 3323              		.cfi_offset 4, -20
 3324              		.cfi_offset 5, -16
 3325              		.cfi_offset 6, -12
 3326              		.cfi_offset 7, -8
 3327              		.cfi_offset 14, -4
 3328 0002 85B0     		sub	sp, sp, #20
 3329              		.cfi_def_cfa_offset 40
 3330              		.loc 8 158 0
 3331 0004 0500     		movs	r5, r0
 3332 0006 0C00     		movs	r4, r1
 3333 0008 0092     		str	r2, [sp]
 3334 000a 1F00     		movs	r7, r3
 159:libhydrogen\impl/core.h ****     unsigned char *        tail;
 160:libhydrogen\impl/core.h ****     size_t                 i;
 161:libhydrogen\impl/core.h ****     size_t                 xpadlen;
 162:libhydrogen\impl/core.h ****     size_t                 xpadded_len;
 163:libhydrogen\impl/core.h ****     volatile unsigned char mask;
 164:libhydrogen\impl/core.h ****     unsigned char          barrier_mask;
 165:libhydrogen\impl/core.h **** 
 166:libhydrogen\impl/core.h ****     if (blocksize <= 0U || max_buflen > INT_MAX) {
 3335              		.loc 8 166 0
 3336 000c 002A     		cmp	r2, #0
 3337 000e 31D0     		beq	.L192
 3338              		.loc 8 166 0 is_stmt 0 discriminator 1
 3339 0010 002F     		cmp	r7, #0
 3340 0012 2FDB     		blt	.L192
 167:libhydrogen\impl/core.h ****         return -1;
 168:libhydrogen\impl/core.h ****     }
ARM GAS  C:\Users\CCPOW_~1\AppData\Local\Temp\ccQfR6ec.s 			page 86


 169:libhydrogen\impl/core.h ****     xpadlen = blocksize - 1U;
 3341              		.loc 8 169 0 is_stmt 1
 3342 0014 561E     		subs	r6, r2, #1
 3343              	.LVL425:
 170:libhydrogen\impl/core.h ****     if ((blocksize & (blocksize - 1U)) == 0U) {
 3344              		.loc 8 170 0
 3345 0016 1642     		tst	r6, r2
 3346 0018 01D1     		bne	.L186
 171:libhydrogen\impl/core.h ****         xpadlen -= unpadded_buflen & (blocksize - 1U);
 3347              		.loc 8 171 0
 3348 001a 8E43     		bics	r6, r1
 3349              	.LVL426:
 3350 001c 04E0     		b	.L187
 3351              	.L186:
 172:libhydrogen\impl/core.h ****     } else {
 173:libhydrogen\impl/core.h ****         xpadlen -= unpadded_buflen % blocksize;
 3352              		.loc 8 173 0
 3353 001e 0099     		ldr	r1, [sp]
 3354              	.LVL427:
 3355 0020 2000     		movs	r0, r4
 3356              	.LVL428:
 3357 0022 FFF7FEFF 		bl	__aeabi_uidivmod
 3358              	.LVL429:
 3359 0026 761A     		subs	r6, r6, r1
 3360              	.LVL430:
 3361              	.L187:
 174:libhydrogen\impl/core.h ****     }
 175:libhydrogen\impl/core.h ****     if (SIZE_MAX - unpadded_buflen <= xpadlen) {
 3362              		.loc 8 175 0
 3363 0028 E343     		mvns	r3, r4
 3364 002a 9E42     		cmp	r6, r3
 3365 002c 22D2     		bcs	.L192
 176:libhydrogen\impl/core.h ****         return -1;
 177:libhydrogen\impl/core.h ****     }
 178:libhydrogen\impl/core.h ****     xpadded_len = unpadded_buflen + xpadlen;
 3366              		.loc 8 178 0
 3367 002e 3419     		adds	r4, r6, r4
 3368              	.LVL431:
 179:libhydrogen\impl/core.h ****     if (xpadded_len >= max_buflen) {
 3369              		.loc 8 179 0
 3370 0030 A742     		cmp	r7, r4
 3371 0032 1FD9     		bls	.L192
 3372              	.LVL432:
 180:libhydrogen\impl/core.h ****         return -1;
 181:libhydrogen\impl/core.h ****     }
 182:libhydrogen\impl/core.h ****     tail = &buf[xpadded_len];
 183:libhydrogen\impl/core.h ****     mask = 0U;
 3373              		.loc 8 183 0
 3374 0034 02AB     		add	r3, sp, #8
 3375              	.LVL433:
 3376 0036 D81D     		adds	r0, r3, #7
 184:libhydrogen\impl/core.h ****     for (i = 0; i < blocksize; i++) {
 185:libhydrogen\impl/core.h ****         barrier_mask = (unsigned char) (((i ^ xpadlen) - 1U) >> 8);
 186:libhydrogen\impl/core.h ****         tail[-i]     = (tail[-i] & mask) | (0x80 & barrier_mask);
 3377              		.loc 8 186 0
 3378 0038 7F23     		movs	r3, #127
 183:libhydrogen\impl/core.h ****     for (i = 0; i < blocksize; i++) {
ARM GAS  C:\Users\CCPOW_~1\AppData\Local\Temp\ccQfR6ec.s 			page 87


 3379              		.loc 8 183 0
 3380 003a 0022     		movs	r2, #0
 3381              		.loc 8 186 0
 3382 003c 9C46     		mov	ip, r3
 183:libhydrogen\impl/core.h ****     for (i = 0; i < blocksize; i++) {
 3383              		.loc 8 183 0
 3384 003e 0270     		strb	r2, [r0]
 3385              	.LVL434:
 3386 0040 2D19     		adds	r5, r5, r4
 3387              	.LVL435:
 3388              	.L188:
 185:libhydrogen\impl/core.h ****         tail[-i]     = (tail[-i] & mask) | (0x80 & barrier_mask);
 3389              		.loc 8 185 0 discriminator 3
 3390 0042 3300     		movs	r3, r6
 3391 0044 5340     		eors	r3, r2
 3392              		.loc 8 186 0 discriminator 3
 3393 0046 0178     		ldrb	r1, [r0]
 3394 0048 2F78     		ldrb	r7, [r5]
 185:libhydrogen\impl/core.h ****         tail[-i]     = (tail[-i] & mask) | (0x80 & barrier_mask);
 3395              		.loc 8 185 0 discriminator 3
 3396 004a 013B     		subs	r3, r3, #1
 3397 004c 1B0A     		lsrs	r3, r3, #8
 3398              		.loc 8 186 0 discriminator 3
 3399 004e 0F40     		ands	r7, r1
 185:libhydrogen\impl/core.h ****         tail[-i]     = (tail[-i] & mask) | (0x80 & barrier_mask);
 3400              		.loc 8 185 0 discriminator 3
 3401 0050 DBB2     		uxtb	r3, r3
 3402              	.LVL436:
 3403              		.loc 8 186 0 discriminator 3
 3404 0052 0197     		str	r7, [sp, #4]
 3405 0054 1900     		movs	r1, r3
 3406 0056 6746     		mov	r7, ip
 3407 0058 B943     		bics	r1, r7
 3408 005a 019F     		ldr	r7, [sp, #4]
 184:libhydrogen\impl/core.h ****     for (i = 0; i < blocksize; i++) {
 3409              		.loc 8 184 0 discriminator 3
 3410 005c 0132     		adds	r2, r2, #1
 3411              	.LVL437:
 3412              		.loc 8 186 0 discriminator 3
 3413 005e 3943     		orrs	r1, r7
 3414 0060 2970     		strb	r1, [r5]
 187:libhydrogen\impl/core.h ****         mask |= barrier_mask;
 3415              		.loc 8 187 0 discriminator 3
 3416 0062 0178     		ldrb	r1, [r0]
 3417 0064 013D     		subs	r5, r5, #1
 3418 0066 0B43     		orrs	r3, r1
 3419              	.LVL438:
 3420 0068 0370     		strb	r3, [r0]
 184:libhydrogen\impl/core.h ****         barrier_mask = (unsigned char) (((i ^ xpadlen) - 1U) >> 8);
 3421              		.loc 8 184 0 discriminator 3
 3422 006a 009B     		ldr	r3, [sp]
 3423 006c 9342     		cmp	r3, r2
 3424 006e E8D1     		bne	.L188
 188:libhydrogen\impl/core.h ****     }
 189:libhydrogen\impl/core.h ****     return (int) (xpadded_len + 1);
 3425              		.loc 8 189 0
 3426 0070 601C     		adds	r0, r4, #1
ARM GAS  C:\Users\CCPOW_~1\AppData\Local\Temp\ccQfR6ec.s 			page 88


 3427 0072 01E0     		b	.L185
 3428              	.LVL439:
 3429              	.L192:
 167:libhydrogen\impl/core.h ****     }
 3430              		.loc 8 167 0
 3431 0074 0120     		movs	r0, #1
 3432 0076 4042     		rsbs	r0, r0, #0
 3433              	.LVL440:
 3434              	.L185:
 190:libhydrogen\impl/core.h **** }
 3435              		.loc 8 190 0
 3436 0078 05B0     		add	sp, sp, #20
 3437              	.LVL441:
 3438              		@ sp needed
 3439 007a F0BD     		pop	{r4, r5, r6, r7, pc}
 3440              		.cfi_endproc
 3441              	.LFE26:
 3442              		.size	hydro_pad, .-hydro_pad
 3443              		.section	.text.hydro_unpad,"ax",%progbits
 3444              		.align	1
 3445              		.global	hydro_unpad
 3446              		.code	16
 3447              		.thumb_func
 3448              		.type	hydro_unpad, %function
 3449              	hydro_unpad:
 3450              	.LFB27:
 191:libhydrogen\impl/core.h **** 
 192:libhydrogen\impl/core.h **** int
 193:libhydrogen\impl/core.h **** hydro_unpad(const unsigned char *buf, size_t padded_buflen, size_t blocksize)
 194:libhydrogen\impl/core.h **** {
 3451              		.loc 8 194 0
 3452              		.cfi_startproc
 3453              		@ args = 0, pretend = 0, frame = 24
 3454              		@ frame_needed = 0, uses_anonymous_args = 0
 3455              	.LVL442:
 3456 0000 F0B5     		push	{r4, r5, r6, r7, lr}
 3457              		.cfi_def_cfa_offset 20
 3458              		.cfi_offset 4, -20
 3459              		.cfi_offset 5, -16
 3460              		.cfi_offset 6, -12
 3461              		.cfi_offset 7, -8
 3462              		.cfi_offset 14, -4
 195:libhydrogen\impl/core.h ****     const unsigned char *tail;
 196:libhydrogen\impl/core.h ****     unsigned char        acc = 0U;
 197:libhydrogen\impl/core.h ****     unsigned char        c;
 198:libhydrogen\impl/core.h ****     unsigned char        valid   = 0U;
 199:libhydrogen\impl/core.h ****     volatile size_t      pad_len = 0U;
 3463              		.loc 8 199 0
 3464 0002 0024     		movs	r4, #0
 194:libhydrogen\impl/core.h ****     const unsigned char *tail;
 3465              		.loc 8 194 0
 3466 0004 87B0     		sub	sp, sp, #28
 3467              		.cfi_def_cfa_offset 48
 3468              		.loc 8 199 0
 3469 0006 0594     		str	r4, [sp, #20]
 200:libhydrogen\impl/core.h ****     size_t               i;
 201:libhydrogen\impl/core.h ****     size_t               is_barrier;
ARM GAS  C:\Users\CCPOW_~1\AppData\Local\Temp\ccQfR6ec.s 			page 89


 202:libhydrogen\impl/core.h **** 
 203:libhydrogen\impl/core.h ****     if (padded_buflen < blocksize || blocksize <= 0U) {
 3470              		.loc 8 203 0
 3471 0008 9142     		cmp	r1, r2
 3472 000a 02D2     		bcs	.L195
 3473              	.LVL443:
 3474              	.L197:
 204:libhydrogen\impl/core.h ****         return -1;
 3475              		.loc 8 204 0
 3476 000c 0120     		movs	r0, #1
 3477 000e 4042     		rsbs	r0, r0, #0
 3478 0010 2FE0     		b	.L196
 3479              	.LVL444:
 3480              	.L195:
 203:libhydrogen\impl/core.h ****         return -1;
 3481              		.loc 8 203 0 discriminator 1
 3482 0012 002A     		cmp	r2, #0
 3483 0014 FAD0     		beq	.L197
 3484              	.LVL445:
 198:libhydrogen\impl/core.h ****     volatile size_t      pad_len = 0U;
 3485              		.loc 8 198 0
 3486 0016 2500     		movs	r5, r4
 196:libhydrogen\impl/core.h ****     unsigned char        c;
 3487              		.loc 8 196 0
 3488 0018 2600     		movs	r6, r4
 3489 001a 4318     		adds	r3, r0, r1
 3490 001c 0293     		str	r3, [sp, #8]
 3491              	.LVL446:
 3492              	.L198:
 3493 001e 029B     		ldr	r3, [sp, #8]
 3494 0020 013B     		subs	r3, r3, #1
 3495 0022 0293     		str	r3, [sp, #8]
 205:libhydrogen\impl/core.h ****     }
 206:libhydrogen\impl/core.h ****     tail = &buf[padded_buflen - 1U];
 207:libhydrogen\impl/core.h **** 
 208:libhydrogen\impl/core.h ****     for (i = 0U; i < blocksize; i++) {
 3496              		.loc 8 208 0 discriminator 1
 3497 0024 9442     		cmp	r4, r2
 3498 0026 1FD0     		beq	.L206
 209:libhydrogen\impl/core.h ****         c          = tail[-i];
 210:libhydrogen\impl/core.h ****         is_barrier = (((acc - 1U) & (pad_len - 1U) & ((c ^ 0x80) - 1U)) >> 8) & 1U;
 3499              		.loc 8 210 0 discriminator 3
 3500 0028 8020     		movs	r0, #128
 209:libhydrogen\impl/core.h ****         c          = tail[-i];
 3501              		.loc 8 209 0 discriminator 3
 3502 002a 029B     		ldr	r3, [sp, #8]
 3503              		.loc 8 210 0 discriminator 3
 3504 002c 4042     		rsbs	r0, r0, #0
 209:libhydrogen\impl/core.h ****         c          = tail[-i];
 3505              		.loc 8 209 0 discriminator 3
 3506 002e 1F78     		ldrb	r7, [r3]
 3507              	.LVL447:
 3508              		.loc 8 210 0 discriminator 3
 3509 0030 059B     		ldr	r3, [sp, #20]
 3510 0032 7840     		eors	r0, r7
 3511 0034 0193     		str	r3, [sp, #4]
 3512 0036 02AB     		add	r3, sp, #8
ARM GAS  C:\Users\CCPOW_~1\AppData\Local\Temp\ccQfR6ec.s 			page 90


 3513 0038 D871     		strb	r0, [r3, #7]
 3514 003a D879     		ldrb	r0, [r3, #7]
 3515 003c 019B     		ldr	r3, [sp, #4]
 3516 003e 8446     		mov	ip, r0
 3517 0040 0120     		movs	r0, #1
 3518 0042 4042     		rsbs	r0, r0, #0
 3519 0044 8444     		add	ip, ip, r0
 3520 0046 1B18     		adds	r3, r3, r0
 3521 0048 6046     		mov	r0, ip
 3522 004a 0340     		ands	r3, r0
 3523 004c 701E     		subs	r0, r6, #1
 3524 004e 0340     		ands	r3, r0
 3525 0050 0120     		movs	r0, #1
 3526 0052 1B0A     		lsrs	r3, r3, #8
 3527 0054 0340     		ands	r3, r0
 3528              	.LVL448:
 211:libhydrogen\impl/core.h ****         acc |= c;
 3529              		.loc 8 211 0 discriminator 3
 3530 0056 3E43     		orrs	r6, r7
 3531              	.LVL449:
 212:libhydrogen\impl/core.h ****         pad_len |= (i & -is_barrier);
 3532              		.loc 8 212 0 discriminator 3
 3533 0058 5842     		rsbs	r0, r3, #0
 3534 005a 059F     		ldr	r7, [sp, #20]
 3535              	.LVL450:
 3536 005c 2040     		ands	r0, r4
 3537 005e 0743     		orrs	r7, r0
 3538 0060 0597     		str	r7, [sp, #20]
 213:libhydrogen\impl/core.h ****         valid |= (unsigned char) is_barrier;
 3539              		.loc 8 213 0 discriminator 3
 3540 0062 1D43     		orrs	r5, r3
 3541              	.LVL451:
 208:libhydrogen\impl/core.h ****         c          = tail[-i];
 3542              		.loc 8 208 0 discriminator 3
 3543 0064 0134     		adds	r4, r4, #1
 3544              	.LVL452:
 3545 0066 DAE7     		b	.L198
 3546              	.LVL453:
 3547              	.L206:
 214:libhydrogen\impl/core.h ****     }
 215:libhydrogen\impl/core.h ****     if (valid == 0) {
 3548              		.loc 8 215 0
 3549 0068 002D     		cmp	r5, #0
 3550 006a CFD0     		beq	.L197
 216:libhydrogen\impl/core.h ****         return -1;
 217:libhydrogen\impl/core.h ****     }
 218:libhydrogen\impl/core.h ****     return (int) (padded_buflen - 1 - pad_len);
 3551              		.loc 8 218 0
 3552 006c 0598     		ldr	r0, [sp, #20]
 3553 006e C043     		mvns	r0, r0
 3554 0070 4018     		adds	r0, r0, r1
 3555              	.LVL454:
 3556              	.L196:
 219:libhydrogen\impl/core.h **** }
 3557              		.loc 8 219 0
 3558 0072 07B0     		add	sp, sp, #28
 3559              		@ sp needed
ARM GAS  C:\Users\CCPOW_~1\AppData\Local\Temp\ccQfR6ec.s 			page 91


 3560 0074 F0BD     		pop	{r4, r5, r6, r7, pc}
 3561              		.cfi_endproc
 3562              	.LFE27:
 3563              		.size	hydro_unpad, .-hydro_unpad
 3564              		.section	.text.hydro_random_ratchet,"ax",%progbits
 3565              		.align	1
 3566              		.global	hydro_random_ratchet
 3567              		.code	16
 3568              		.thumb_func
 3569              		.type	hydro_random_ratchet, %function
 3570              	hydro_random_ratchet:
 3571              	.LFB33:
 3572              		.file 9 "libhydrogen\\impl/random.h"
   1:libhydrogen\impl/random.h **** static TLS struct {
   2:libhydrogen\impl/random.h ****     _hydro_attr_aligned_(16) uint8_t state[gimli_BLOCKBYTES];
   3:libhydrogen\impl/random.h ****     uint64_t counter;
   4:libhydrogen\impl/random.h ****     uint8_t  initialized;
   5:libhydrogen\impl/random.h ****     uint8_t  available;
   6:libhydrogen\impl/random.h **** } hydro_random_context;
   7:libhydrogen\impl/random.h **** 
   8:libhydrogen\impl/random.h **** 
   9:libhydrogen\impl/random.h **** static void prf(uint8_t *in, uint8_t* out)
  10:libhydrogen\impl/random.h **** {
  11:libhydrogen\impl/random.h ****     static const uint8_t key[16] = {0, 0, 0, 0, 0, 0, 0, 0, 0, 0, 0, 0, 0, 0, 0, 0};
  12:libhydrogen\impl/random.h ****     uint8_t ciphertext[hydro_secretbox_HEADERBYTES + 16];
  13:libhydrogen\impl/random.h ****     
  14:libhydrogen\impl/random.h ****     hydro_secretbox_encrypt(ciphertext, in, 16, 0, "IDCIDCID", key);
  15:libhydrogen\impl/random.h ****     
  16:libhydrogen\impl/random.h ****     
  17:libhydrogen\impl/random.h ****     memcpy(out, in + hydro_secretbox_HEADERBYTES, 16);
  18:libhydrogen\impl/random.h **** }
  19:libhydrogen\impl/random.h **** 
  20:libhydrogen\impl/random.h **** static int
  21:libhydrogen\impl/random.h **** hydro_random_init(void)
  22:libhydrogen\impl/random.h **** {
  23:libhydrogen\impl/random.h ****     static const uint8_t last_value[16] = {0, 0, 0, 0, 0, 0, 0, 0, 0, 0, 0, 0, 0, 0, 0, 0};
  24:libhydrogen\impl/random.h ****     prf((uint8_t*)last_value, (uint8_t*)last_value);
  25:libhydrogen\impl/random.h ****     
  26:libhydrogen\impl/random.h ****     memcpy(hydro_random_context.state, last_value, gimli_BLOCKBYTES);
  27:libhydrogen\impl/random.h ****     
  28:libhydrogen\impl/random.h ****     prf((uint8_t*)last_value, (uint8_t*)last_value);
  29:libhydrogen\impl/random.h ****     
  30:libhydrogen\impl/random.h ****     memcpy(&hydro_random_context.counter, last_value, 8);
  31:libhydrogen\impl/random.h ****     
  32:libhydrogen\impl/random.h **** 	return 0;
  33:libhydrogen\impl/random.h **** }
  34:libhydrogen\impl/random.h **** 
  35:libhydrogen\impl/random.h **** static void
  36:libhydrogen\impl/random.h **** hydro_random_check_initialized(void)
  37:libhydrogen\impl/random.h **** {
  38:libhydrogen\impl/random.h ****     if (hydro_random_context.initialized == 0) {
  39:libhydrogen\impl/random.h ****         if (hydro_random_init() != 0) {
  40:libhydrogen\impl/random.h ****             abort();
  41:libhydrogen\impl/random.h ****         }
  42:libhydrogen\impl/random.h ****         gimli_core_u8(hydro_random_context.state, 0);
  43:libhydrogen\impl/random.h ****         hydro_random_ratchet();
  44:libhydrogen\impl/random.h ****         hydro_random_context.initialized = 1;
ARM GAS  C:\Users\CCPOW_~1\AppData\Local\Temp\ccQfR6ec.s 			page 92


  45:libhydrogen\impl/random.h ****     }
  46:libhydrogen\impl/random.h **** }
  47:libhydrogen\impl/random.h **** 
  48:libhydrogen\impl/random.h **** void
  49:libhydrogen\impl/random.h **** hydro_random_ratchet(void)
  50:libhydrogen\impl/random.h **** {
 3573              		.loc 9 50 0
 3574              		.cfi_startproc
 3575              		@ args = 0, pretend = 0, frame = 0
 3576              		@ frame_needed = 0, uses_anonymous_args = 0
 3577 0000 10B5     		push	{r4, lr}
 3578              		.cfi_def_cfa_offset 8
 3579              		.cfi_offset 4, -8
 3580              		.cfi_offset 14, -4
  51:libhydrogen\impl/random.h ****     mem_zero(hydro_random_context.state, gimli_RATE);
 3581              		.loc 9 51 0
 3582 0002 0B4C     		ldr	r4, .L208
 3583 0004 1021     		movs	r1, #16
 3584 0006 2000     		movs	r0, r4
 3585 0008 FFF7FEFF 		bl	mem_zero
 3586              	.LVL455:
  52:libhydrogen\impl/random.h ****     STORE64_LE(hydro_random_context.state, hydro_random_context.counter);
 3587              		.loc 9 52 0
 3588 000c 226B     		ldr	r2, [r4, #48]
 3589 000e 636B     		ldr	r3, [r4, #52]
 3590              	.LVL456:
  53:libhydrogen\impl/random.h ****     hydro_random_context.counter++;
 3591              		.loc 9 53 0
 3592 0010 0120     		movs	r0, #1
 3593 0012 0021     		movs	r1, #0
 3594              	.LBB162:
 3595              	.LBB163:
  75:libhydrogen\impl/common.h **** #else
 3596              		.loc 1 75 0
 3597 0014 2260     		str	r2, [r4]
 3598 0016 6360     		str	r3, [r4, #4]
 3599              	.LVL457:
 3600              	.LBE163:
 3601              	.LBE162:
 3602              		.loc 9 53 0
 3603 0018 1218     		adds	r2, r2, r0
 3604 001a 4B41     		adcs	r3, r3, r1
  54:libhydrogen\impl/random.h ****     gimli_core_u8(hydro_random_context.state, 0);
 3605              		.loc 9 54 0
 3606 001c 2000     		movs	r0, r4
 3607 001e 0021     		movs	r1, #0
  53:libhydrogen\impl/random.h ****     hydro_random_context.counter++;
 3608              		.loc 9 53 0
 3609 0020 2263     		str	r2, [r4, #48]
 3610 0022 6363     		str	r3, [r4, #52]
 3611              		.loc 9 54 0
 3612 0024 FFF7FEFF 		bl	gimli_core_u8
 3613              	.LVL458:
  55:libhydrogen\impl/random.h ****     hydro_random_context.available = gimli_RATE;
 3614              		.loc 9 55 0
 3615 0028 1023     		movs	r3, #16
 3616 002a 3934     		adds	r4, r4, #57
