ARM GAS  C:\Users\CCPOW_~1\AppData\Local\Temp\ccJeinjc.s 			page 1


   1              		.syntax unified
   2              		.cpu cortex-m0
   3              		.fpu softvfp
   4              		.eabi_attribute 20, 1
   5              		.eabi_attribute 21, 1
   6              		.eabi_attribute 23, 3
   7              		.eabi_attribute 24, 1
   8              		.eabi_attribute 25, 1
   9              		.eabi_attribute 26, 1
  10              		.eabi_attribute 30, 1
  11              		.eabi_attribute 34, 0
  12              		.eabi_attribute 18, 4
  13              		.thumb
  14              		.syntax unified
  15              		.file	"ATM_UART.c"
  16              		.text
  17              	.Ltext0:
  18              		.cfi_sections	.debug_frame
  19              		.section	.text.ATM_UART_Init,"ax",%progbits
  20              		.align	2
  21              		.global	ATM_UART_Init
  22              		.code	16
  23              		.thumb_func
  24              		.type	ATM_UART_Init, %function
  25              	ATM_UART_Init:
  26              	.LFB1:
  27              		.file 1 "Generated_Source\\PSoC4\\ATM_UART.c"
   1:Generated_Source\PSoC4/ATM_UART.c **** /*******************************************************************************
   2:Generated_Source\PSoC4/ATM_UART.c **** * File Name: ATM_UART.c
   3:Generated_Source\PSoC4/ATM_UART.c **** * Version 2.50
   4:Generated_Source\PSoC4/ATM_UART.c **** *
   5:Generated_Source\PSoC4/ATM_UART.c **** * Description:
   6:Generated_Source\PSoC4/ATM_UART.c **** *  This file provides all API functionality of the UART component
   7:Generated_Source\PSoC4/ATM_UART.c **** *
   8:Generated_Source\PSoC4/ATM_UART.c **** * Note:
   9:Generated_Source\PSoC4/ATM_UART.c **** *
  10:Generated_Source\PSoC4/ATM_UART.c **** ********************************************************************************
  11:Generated_Source\PSoC4/ATM_UART.c **** * Copyright 2008-2015, Cypress Semiconductor Corporation.  All rights reserved.
  12:Generated_Source\PSoC4/ATM_UART.c **** * You may use this file only in accordance with the license, terms, conditions,
  13:Generated_Source\PSoC4/ATM_UART.c **** * disclaimers, and limitations in the end user license agreement accompanying
  14:Generated_Source\PSoC4/ATM_UART.c **** * the software package with which this file was provided.
  15:Generated_Source\PSoC4/ATM_UART.c **** *******************************************************************************/
  16:Generated_Source\PSoC4/ATM_UART.c **** 
  17:Generated_Source\PSoC4/ATM_UART.c **** #include "ATM_UART.h"
  18:Generated_Source\PSoC4/ATM_UART.c **** #if (ATM_UART_INTERNAL_CLOCK_USED)
  19:Generated_Source\PSoC4/ATM_UART.c ****     #include "ATM_UART_IntClock.h"
  20:Generated_Source\PSoC4/ATM_UART.c **** #endif /* End ATM_UART_INTERNAL_CLOCK_USED */
  21:Generated_Source\PSoC4/ATM_UART.c **** 
  22:Generated_Source\PSoC4/ATM_UART.c **** 
  23:Generated_Source\PSoC4/ATM_UART.c **** /***************************************
  24:Generated_Source\PSoC4/ATM_UART.c **** * Global data allocation
  25:Generated_Source\PSoC4/ATM_UART.c **** ***************************************/
  26:Generated_Source\PSoC4/ATM_UART.c **** 
  27:Generated_Source\PSoC4/ATM_UART.c **** uint8 ATM_UART_initVar = 0u;
  28:Generated_Source\PSoC4/ATM_UART.c **** 
  29:Generated_Source\PSoC4/ATM_UART.c **** #if (ATM_UART_TX_INTERRUPT_ENABLED && ATM_UART_TX_ENABLED)
  30:Generated_Source\PSoC4/ATM_UART.c ****     volatile uint8 ATM_UART_txBuffer[ATM_UART_TX_BUFFER_SIZE];
ARM GAS  C:\Users\CCPOW_~1\AppData\Local\Temp\ccJeinjc.s 			page 2


  31:Generated_Source\PSoC4/ATM_UART.c ****     volatile uint8 ATM_UART_txBufferRead = 0u;
  32:Generated_Source\PSoC4/ATM_UART.c ****     uint8 ATM_UART_txBufferWrite = 0u;
  33:Generated_Source\PSoC4/ATM_UART.c **** #endif /* (ATM_UART_TX_INTERRUPT_ENABLED && ATM_UART_TX_ENABLED) */
  34:Generated_Source\PSoC4/ATM_UART.c **** 
  35:Generated_Source\PSoC4/ATM_UART.c **** #if (ATM_UART_RX_INTERRUPT_ENABLED && (ATM_UART_RX_ENABLED || ATM_UART_HD_ENABLED))
  36:Generated_Source\PSoC4/ATM_UART.c ****     uint8 ATM_UART_errorStatus = 0u;
  37:Generated_Source\PSoC4/ATM_UART.c ****     volatile uint8 ATM_UART_rxBuffer[ATM_UART_RX_BUFFER_SIZE];
  38:Generated_Source\PSoC4/ATM_UART.c ****     volatile uint8 ATM_UART_rxBufferRead  = 0u;
  39:Generated_Source\PSoC4/ATM_UART.c ****     volatile uint8 ATM_UART_rxBufferWrite = 0u;
  40:Generated_Source\PSoC4/ATM_UART.c ****     volatile uint8 ATM_UART_rxBufferLoopDetect = 0u;
  41:Generated_Source\PSoC4/ATM_UART.c ****     volatile uint8 ATM_UART_rxBufferOverflow   = 0u;
  42:Generated_Source\PSoC4/ATM_UART.c ****     #if (ATM_UART_RXHW_ADDRESS_ENABLED)
  43:Generated_Source\PSoC4/ATM_UART.c ****         volatile uint8 ATM_UART_rxAddressMode = ATM_UART_RX_ADDRESS_MODE;
  44:Generated_Source\PSoC4/ATM_UART.c ****         volatile uint8 ATM_UART_rxAddressDetected = 0u;
  45:Generated_Source\PSoC4/ATM_UART.c ****     #endif /* (ATM_UART_RXHW_ADDRESS_ENABLED) */
  46:Generated_Source\PSoC4/ATM_UART.c **** #endif /* (ATM_UART_RX_INTERRUPT_ENABLED && (ATM_UART_RX_ENABLED || ATM_UART_HD_ENABLED)) */
  47:Generated_Source\PSoC4/ATM_UART.c **** 
  48:Generated_Source\PSoC4/ATM_UART.c **** 
  49:Generated_Source\PSoC4/ATM_UART.c **** /*******************************************************************************
  50:Generated_Source\PSoC4/ATM_UART.c **** * Function Name: ATM_UART_Start
  51:Generated_Source\PSoC4/ATM_UART.c **** ********************************************************************************
  52:Generated_Source\PSoC4/ATM_UART.c **** *
  53:Generated_Source\PSoC4/ATM_UART.c **** * Summary:
  54:Generated_Source\PSoC4/ATM_UART.c **** *  This is the preferred method to begin component operation.
  55:Generated_Source\PSoC4/ATM_UART.c **** *  ATM_UART_Start() sets the initVar variable, calls the
  56:Generated_Source\PSoC4/ATM_UART.c **** *  ATM_UART_Init() function, and then calls the
  57:Generated_Source\PSoC4/ATM_UART.c **** *  ATM_UART_Enable() function.
  58:Generated_Source\PSoC4/ATM_UART.c **** *
  59:Generated_Source\PSoC4/ATM_UART.c **** * Parameters:
  60:Generated_Source\PSoC4/ATM_UART.c **** *  None.
  61:Generated_Source\PSoC4/ATM_UART.c **** *
  62:Generated_Source\PSoC4/ATM_UART.c **** * Return:
  63:Generated_Source\PSoC4/ATM_UART.c **** *  None.
  64:Generated_Source\PSoC4/ATM_UART.c **** *
  65:Generated_Source\PSoC4/ATM_UART.c **** * Global variables:
  66:Generated_Source\PSoC4/ATM_UART.c **** *  The ATM_UART_intiVar variable is used to indicate initial
  67:Generated_Source\PSoC4/ATM_UART.c **** *  configuration of this component. The variable is initialized to zero (0u)
  68:Generated_Source\PSoC4/ATM_UART.c **** *  and set to one (1u) the first time ATM_UART_Start() is called. This
  69:Generated_Source\PSoC4/ATM_UART.c **** *  allows for component initialization without re-initialization in all
  70:Generated_Source\PSoC4/ATM_UART.c **** *  subsequent calls to the ATM_UART_Start() routine.
  71:Generated_Source\PSoC4/ATM_UART.c **** *
  72:Generated_Source\PSoC4/ATM_UART.c **** * Reentrant:
  73:Generated_Source\PSoC4/ATM_UART.c **** *  No.
  74:Generated_Source\PSoC4/ATM_UART.c **** *
  75:Generated_Source\PSoC4/ATM_UART.c **** *******************************************************************************/
  76:Generated_Source\PSoC4/ATM_UART.c **** void ATM_UART_Start(void) 
  77:Generated_Source\PSoC4/ATM_UART.c **** {
  78:Generated_Source\PSoC4/ATM_UART.c ****     /* If not initialized then initialize all required hardware and software */
  79:Generated_Source\PSoC4/ATM_UART.c ****     if(ATM_UART_initVar == 0u)
  80:Generated_Source\PSoC4/ATM_UART.c ****     {
  81:Generated_Source\PSoC4/ATM_UART.c ****         ATM_UART_Init();
  82:Generated_Source\PSoC4/ATM_UART.c ****         ATM_UART_initVar = 1u;
  83:Generated_Source\PSoC4/ATM_UART.c ****     }
  84:Generated_Source\PSoC4/ATM_UART.c **** 
  85:Generated_Source\PSoC4/ATM_UART.c ****     ATM_UART_Enable();
  86:Generated_Source\PSoC4/ATM_UART.c **** }
  87:Generated_Source\PSoC4/ATM_UART.c **** 
ARM GAS  C:\Users\CCPOW_~1\AppData\Local\Temp\ccJeinjc.s 			page 3


  88:Generated_Source\PSoC4/ATM_UART.c **** 
  89:Generated_Source\PSoC4/ATM_UART.c **** /*******************************************************************************
  90:Generated_Source\PSoC4/ATM_UART.c **** * Function Name: ATM_UART_Init
  91:Generated_Source\PSoC4/ATM_UART.c **** ********************************************************************************
  92:Generated_Source\PSoC4/ATM_UART.c **** *
  93:Generated_Source\PSoC4/ATM_UART.c **** * Summary:
  94:Generated_Source\PSoC4/ATM_UART.c **** *  Initializes or restores the component according to the customizer Configure
  95:Generated_Source\PSoC4/ATM_UART.c **** *  dialog settings. It is not necessary to call ATM_UART_Init() because
  96:Generated_Source\PSoC4/ATM_UART.c **** *  the ATM_UART_Start() API calls this function and is the preferred
  97:Generated_Source\PSoC4/ATM_UART.c **** *  method to begin component operation.
  98:Generated_Source\PSoC4/ATM_UART.c **** *
  99:Generated_Source\PSoC4/ATM_UART.c **** * Parameters:
 100:Generated_Source\PSoC4/ATM_UART.c **** *  None.
 101:Generated_Source\PSoC4/ATM_UART.c **** *
 102:Generated_Source\PSoC4/ATM_UART.c **** * Return:
 103:Generated_Source\PSoC4/ATM_UART.c **** *  None.
 104:Generated_Source\PSoC4/ATM_UART.c **** *
 105:Generated_Source\PSoC4/ATM_UART.c **** *******************************************************************************/
 106:Generated_Source\PSoC4/ATM_UART.c **** void ATM_UART_Init(void) 
 107:Generated_Source\PSoC4/ATM_UART.c **** {
  28              		.loc 1 107 0
  29              		.cfi_startproc
  30              		@ args = 0, pretend = 0, frame = 0
  31              		@ frame_needed = 0, uses_anonymous_args = 0
  32 0000 10B5     		push	{r4, lr}
  33              		.cfi_def_cfa_offset 8
  34              		.cfi_offset 4, -8
  35              		.cfi_offset 14, -4
 108:Generated_Source\PSoC4/ATM_UART.c ****     #if(ATM_UART_RX_ENABLED || ATM_UART_HD_ENABLED)
 109:Generated_Source\PSoC4/ATM_UART.c **** 
 110:Generated_Source\PSoC4/ATM_UART.c ****         #if (ATM_UART_RX_INTERRUPT_ENABLED)
 111:Generated_Source\PSoC4/ATM_UART.c ****             /* Set RX interrupt vector and priority */
 112:Generated_Source\PSoC4/ATM_UART.c ****             (void) CyIntSetVector(ATM_UART_RX_VECT_NUM, &ATM_UART_RXISR);
  36              		.loc 1 112 0
  37 0002 1149     		ldr	r1, .L2
  38 0004 0220     		movs	r0, #2
  39 0006 FFF7FEFF 		bl	CyIntSetVector
  40              	.LVL0:
 113:Generated_Source\PSoC4/ATM_UART.c ****             CyIntSetPriority(ATM_UART_RX_VECT_NUM, ATM_UART_RX_PRIOR_NUM);
  41              		.loc 1 113 0
  42 000a 0321     		movs	r1, #3
  43 000c 0220     		movs	r0, #2
  44 000e FFF7FEFF 		bl	CyIntSetPriority
  45              	.LVL1:
 114:Generated_Source\PSoC4/ATM_UART.c ****             ATM_UART_errorStatus = 0u;
  46              		.loc 1 114 0
  47 0012 0022     		movs	r2, #0
  48 0014 0D4B     		ldr	r3, .L2+4
  49 0016 1A70     		strb	r2, [r3]
 115:Generated_Source\PSoC4/ATM_UART.c ****         #endif /* (ATM_UART_RX_INTERRUPT_ENABLED) */
 116:Generated_Source\PSoC4/ATM_UART.c **** 
 117:Generated_Source\PSoC4/ATM_UART.c ****         #if (ATM_UART_RXHW_ADDRESS_ENABLED)
 118:Generated_Source\PSoC4/ATM_UART.c ****             ATM_UART_SetRxAddressMode(ATM_UART_RX_ADDRESS_MODE);
 119:Generated_Source\PSoC4/ATM_UART.c ****             ATM_UART_SetRxAddress1(ATM_UART_RX_HW_ADDRESS1);
 120:Generated_Source\PSoC4/ATM_UART.c ****             ATM_UART_SetRxAddress2(ATM_UART_RX_HW_ADDRESS2);
 121:Generated_Source\PSoC4/ATM_UART.c ****         #endif /* End ATM_UART_RXHW_ADDRESS_ENABLED */
 122:Generated_Source\PSoC4/ATM_UART.c **** 
ARM GAS  C:\Users\CCPOW_~1\AppData\Local\Temp\ccJeinjc.s 			page 4


 123:Generated_Source\PSoC4/ATM_UART.c ****         /* Init Count7 period */
 124:Generated_Source\PSoC4/ATM_UART.c ****         ATM_UART_RXBITCTR_PERIOD_REG = ATM_UART_RXBITCTR_INIT;
  50              		.loc 1 124 0
  51 0018 7232     		adds	r2, r2, #114
  52 001a 0D4B     		ldr	r3, .L2+8
  53 001c 1A70     		strb	r2, [r3]
 125:Generated_Source\PSoC4/ATM_UART.c ****         /* Configure the Initial RX interrupt mask */
 126:Generated_Source\PSoC4/ATM_UART.c ****         ATM_UART_RXSTATUS_MASK_REG  = ATM_UART_INIT_RX_INTERRUPTS_MASK;
  54              		.loc 1 126 0
  55 001e 523A     		subs	r2, r2, #82
  56 0020 0C4B     		ldr	r3, .L2+12
  57 0022 1A70     		strb	r2, [r3]
 127:Generated_Source\PSoC4/ATM_UART.c ****     #endif /* End ATM_UART_RX_ENABLED || ATM_UART_HD_ENABLED*/
 128:Generated_Source\PSoC4/ATM_UART.c **** 
 129:Generated_Source\PSoC4/ATM_UART.c ****     #if(ATM_UART_TX_ENABLED)
 130:Generated_Source\PSoC4/ATM_UART.c ****         #if (ATM_UART_TX_INTERRUPT_ENABLED)
 131:Generated_Source\PSoC4/ATM_UART.c ****             /* Set TX interrupt vector and priority */
 132:Generated_Source\PSoC4/ATM_UART.c ****             (void) CyIntSetVector(ATM_UART_TX_VECT_NUM, &ATM_UART_TXISR);
  58              		.loc 1 132 0
  59 0024 0C49     		ldr	r1, .L2+16
  60 0026 0320     		movs	r0, #3
  61 0028 FFF7FEFF 		bl	CyIntSetVector
  62              	.LVL2:
 133:Generated_Source\PSoC4/ATM_UART.c ****             CyIntSetPriority(ATM_UART_TX_VECT_NUM, ATM_UART_TX_PRIOR_NUM);
  63              		.loc 1 133 0
  64 002c 0321     		movs	r1, #3
  65 002e 0320     		movs	r0, #3
  66 0030 FFF7FEFF 		bl	CyIntSetPriority
  67              	.LVL3:
 134:Generated_Source\PSoC4/ATM_UART.c ****         #endif /* (ATM_UART_TX_INTERRUPT_ENABLED) */
 135:Generated_Source\PSoC4/ATM_UART.c **** 
 136:Generated_Source\PSoC4/ATM_UART.c ****         /* Write Counter Value for TX Bit Clk Generator*/
 137:Generated_Source\PSoC4/ATM_UART.c ****         #if (ATM_UART_TXCLKGEN_DP)
 138:Generated_Source\PSoC4/ATM_UART.c ****             ATM_UART_TXBITCLKGEN_CTR_REG = ATM_UART_BIT_CENTER;
  68              		.loc 1 138 0
  69 0034 0622     		movs	r2, #6
  70 0036 094B     		ldr	r3, .L2+20
  71 0038 1A70     		strb	r2, [r3]
 139:Generated_Source\PSoC4/ATM_UART.c ****             ATM_UART_TXBITCLKTX_COMPLETE_REG = ((ATM_UART_NUMBER_OF_DATA_BITS +
  72              		.loc 1 139 0
  73 003a 4132     		adds	r2, r2, #65
  74 003c 084B     		ldr	r3, .L2+24
  75 003e 1A70     		strb	r2, [r3]
 140:Generated_Source\PSoC4/ATM_UART.c ****                         ATM_UART_NUMBER_OF_START_BIT) * ATM_UART_OVER_SAMPLE_COUNT) - 1u;
 141:Generated_Source\PSoC4/ATM_UART.c ****         #else
 142:Generated_Source\PSoC4/ATM_UART.c ****             ATM_UART_TXBITCTR_PERIOD_REG = ((ATM_UART_NUMBER_OF_DATA_BITS +
 143:Generated_Source\PSoC4/ATM_UART.c ****                         ATM_UART_NUMBER_OF_START_BIT) * ATM_UART_OVER_SAMPLE_8) - 1u;
 144:Generated_Source\PSoC4/ATM_UART.c ****         #endif /* End ATM_UART_TXCLKGEN_DP */
 145:Generated_Source\PSoC4/ATM_UART.c **** 
 146:Generated_Source\PSoC4/ATM_UART.c ****         /* Configure the Initial TX interrupt mask */
 147:Generated_Source\PSoC4/ATM_UART.c ****         #if (ATM_UART_TX_INTERRUPT_ENABLED)
 148:Generated_Source\PSoC4/ATM_UART.c ****             ATM_UART_TXSTATUS_MASK_REG = ATM_UART_TX_STS_FIFO_EMPTY;
  76              		.loc 1 148 0
  77 0040 453A     		subs	r2, r2, #69
  78 0042 084B     		ldr	r3, .L2+28
  79 0044 1A70     		strb	r2, [r3]
 149:Generated_Source\PSoC4/ATM_UART.c ****         #else
ARM GAS  C:\Users\CCPOW_~1\AppData\Local\Temp\ccJeinjc.s 			page 5


 150:Generated_Source\PSoC4/ATM_UART.c ****             ATM_UART_TXSTATUS_MASK_REG = ATM_UART_INIT_TX_INTERRUPTS_MASK;
 151:Generated_Source\PSoC4/ATM_UART.c ****         #endif /*End ATM_UART_TX_INTERRUPT_ENABLED*/
 152:Generated_Source\PSoC4/ATM_UART.c **** 
 153:Generated_Source\PSoC4/ATM_UART.c ****     #endif /* End ATM_UART_TX_ENABLED */
 154:Generated_Source\PSoC4/ATM_UART.c **** 
 155:Generated_Source\PSoC4/ATM_UART.c ****     #if(ATM_UART_PARITY_TYPE_SW)  /* Write Parity to Control Register */
 156:Generated_Source\PSoC4/ATM_UART.c ****         ATM_UART_WriteControlRegister( \
 157:Generated_Source\PSoC4/ATM_UART.c ****             (ATM_UART_ReadControlRegister() & (uint8)~ATM_UART_CTRL_PARITY_TYPE_MASK) | \
 158:Generated_Source\PSoC4/ATM_UART.c ****             (uint8)(ATM_UART_PARITY_TYPE << ATM_UART_CTRL_PARITY_TYPE0_SHIFT) );
 159:Generated_Source\PSoC4/ATM_UART.c ****     #endif /* End ATM_UART_PARITY_TYPE_SW */
 160:Generated_Source\PSoC4/ATM_UART.c **** }
  80              		.loc 1 160 0
  81              		@ sp needed
  82 0046 10BD     		pop	{r4, pc}
  83              	.L3:
  84              		.align	2
  85              	.L2:
  86 0048 00000000 		.word	ATM_UART_RXISR
  87 004c 00000000 		.word	.LANCHOR0
  88 0050 81000F40 		.word	1074724993
  89 0054 80000F40 		.word	1074724992
  90 0058 00000000 		.word	ATM_UART_TXISR
  91 005c 23000F40 		.word	1074724899
  92 0060 33000F40 		.word	1074724915
  93 0064 82000F40 		.word	1074724994
  94              		.cfi_endproc
  95              	.LFE1:
  96              		.size	ATM_UART_Init, .-ATM_UART_Init
  97              		.section	.text.ATM_UART_Enable,"ax",%progbits
  98              		.align	2
  99              		.global	ATM_UART_Enable
 100              		.code	16
 101              		.thumb_func
 102              		.type	ATM_UART_Enable, %function
 103              	ATM_UART_Enable:
 104              	.LFB2:
 161:Generated_Source\PSoC4/ATM_UART.c **** 
 162:Generated_Source\PSoC4/ATM_UART.c **** 
 163:Generated_Source\PSoC4/ATM_UART.c **** /*******************************************************************************
 164:Generated_Source\PSoC4/ATM_UART.c **** * Function Name: ATM_UART_Enable
 165:Generated_Source\PSoC4/ATM_UART.c **** ********************************************************************************
 166:Generated_Source\PSoC4/ATM_UART.c **** *
 167:Generated_Source\PSoC4/ATM_UART.c **** * Summary:
 168:Generated_Source\PSoC4/ATM_UART.c **** *  Activates the hardware and begins component operation. It is not necessary
 169:Generated_Source\PSoC4/ATM_UART.c **** *  to call ATM_UART_Enable() because the ATM_UART_Start() API
 170:Generated_Source\PSoC4/ATM_UART.c **** *  calls this function, which is the preferred method to begin component
 171:Generated_Source\PSoC4/ATM_UART.c **** *  operation.
 172:Generated_Source\PSoC4/ATM_UART.c **** 
 173:Generated_Source\PSoC4/ATM_UART.c **** * Parameters:
 174:Generated_Source\PSoC4/ATM_UART.c **** *  None.
 175:Generated_Source\PSoC4/ATM_UART.c **** *
 176:Generated_Source\PSoC4/ATM_UART.c **** * Return:
 177:Generated_Source\PSoC4/ATM_UART.c **** *  None.
 178:Generated_Source\PSoC4/ATM_UART.c **** *
 179:Generated_Source\PSoC4/ATM_UART.c **** * Global Variables:
 180:Generated_Source\PSoC4/ATM_UART.c **** *  ATM_UART_rxAddressDetected - set to initial state (0).
 181:Generated_Source\PSoC4/ATM_UART.c **** *
ARM GAS  C:\Users\CCPOW_~1\AppData\Local\Temp\ccJeinjc.s 			page 6


 182:Generated_Source\PSoC4/ATM_UART.c **** *******************************************************************************/
 183:Generated_Source\PSoC4/ATM_UART.c **** void ATM_UART_Enable(void) 
 184:Generated_Source\PSoC4/ATM_UART.c **** {
 105              		.loc 1 184 0
 106              		.cfi_startproc
 107              		@ args = 0, pretend = 0, frame = 0
 108              		@ frame_needed = 0, uses_anonymous_args = 0
 109 0000 70B5     		push	{r4, r5, r6, lr}
 110              		.cfi_def_cfa_offset 16
 111              		.cfi_offset 4, -16
 112              		.cfi_offset 5, -12
 113              		.cfi_offset 6, -8
 114              		.cfi_offset 14, -4
 185:Generated_Source\PSoC4/ATM_UART.c ****     uint8 enableInterrupts;
 186:Generated_Source\PSoC4/ATM_UART.c ****     enableInterrupts = CyEnterCriticalSection();
 115              		.loc 1 186 0
 116 0002 FFF7FEFF 		bl	CyEnterCriticalSection
 117              	.LVL4:
 118 0006 0500     		movs	r5, r0
 119              	.LVL5:
 187:Generated_Source\PSoC4/ATM_UART.c **** 
 188:Generated_Source\PSoC4/ATM_UART.c ****     #if (ATM_UART_RX_ENABLED || ATM_UART_HD_ENABLED)
 189:Generated_Source\PSoC4/ATM_UART.c ****         /* RX Counter (Count7) Enable */
 190:Generated_Source\PSoC4/ATM_UART.c ****         ATM_UART_RXBITCTR_CONTROL_REG |= ATM_UART_CNTR_ENABLE;
 120              		.loc 1 190 0
 121 0008 0F4A     		ldr	r2, .L5
 122 000a 1178     		ldrb	r1, [r2]
 123 000c 2023     		movs	r3, #32
 124 000e 0B43     		orrs	r3, r1
 125 0010 DBB2     		uxtb	r3, r3
 126 0012 1370     		strb	r3, [r2]
 191:Generated_Source\PSoC4/ATM_UART.c **** 
 192:Generated_Source\PSoC4/ATM_UART.c ****         /* Enable the RX Interrupt */
 193:Generated_Source\PSoC4/ATM_UART.c ****         ATM_UART_RXSTATUS_ACTL_REG  |= ATM_UART_INT_ENABLE;
 127              		.loc 1 193 0
 128 0014 0D4A     		ldr	r2, .L5+4
 129 0016 1378     		ldrb	r3, [r2]
 130 0018 1024     		movs	r4, #16
 131 001a 2343     		orrs	r3, r4
 132 001c DBB2     		uxtb	r3, r3
 133 001e 1370     		strb	r3, [r2]
 194:Generated_Source\PSoC4/ATM_UART.c **** 
 195:Generated_Source\PSoC4/ATM_UART.c ****         #if (ATM_UART_RX_INTERRUPT_ENABLED)
 196:Generated_Source\PSoC4/ATM_UART.c ****             ATM_UART_EnableRxInt();
 134              		.loc 1 196 0
 135 0020 0220     		movs	r0, #2
 136 0022 FFF7FEFF 		bl	CyIntEnable
 137              	.LVL6:
 197:Generated_Source\PSoC4/ATM_UART.c **** 
 198:Generated_Source\PSoC4/ATM_UART.c ****             #if (ATM_UART_RXHW_ADDRESS_ENABLED)
 199:Generated_Source\PSoC4/ATM_UART.c ****                 ATM_UART_rxAddressDetected = 0u;
 200:Generated_Source\PSoC4/ATM_UART.c ****             #endif /* (ATM_UART_RXHW_ADDRESS_ENABLED) */
 201:Generated_Source\PSoC4/ATM_UART.c ****         #endif /* (ATM_UART_RX_INTERRUPT_ENABLED) */
 202:Generated_Source\PSoC4/ATM_UART.c ****     #endif /* (ATM_UART_RX_ENABLED || ATM_UART_HD_ENABLED) */
 203:Generated_Source\PSoC4/ATM_UART.c **** 
 204:Generated_Source\PSoC4/ATM_UART.c ****     #if(ATM_UART_TX_ENABLED)
 205:Generated_Source\PSoC4/ATM_UART.c ****         /* TX Counter (DP/Count7) Enable */
ARM GAS  C:\Users\CCPOW_~1\AppData\Local\Temp\ccJeinjc.s 			page 7


 206:Generated_Source\PSoC4/ATM_UART.c ****         #if(!ATM_UART_TXCLKGEN_DP)
 207:Generated_Source\PSoC4/ATM_UART.c ****             ATM_UART_TXBITCTR_CONTROL_REG |= ATM_UART_CNTR_ENABLE;
 208:Generated_Source\PSoC4/ATM_UART.c ****         #endif /* End ATM_UART_TXCLKGEN_DP */
 209:Generated_Source\PSoC4/ATM_UART.c **** 
 210:Generated_Source\PSoC4/ATM_UART.c ****         /* Enable the TX Interrupt */
 211:Generated_Source\PSoC4/ATM_UART.c ****         ATM_UART_TXSTATUS_ACTL_REG |= ATM_UART_INT_ENABLE;
 138              		.loc 1 211 0
 139 0026 0A4B     		ldr	r3, .L5+8
 140 0028 1A78     		ldrb	r2, [r3]
 141 002a 1443     		orrs	r4, r2
 142 002c E4B2     		uxtb	r4, r4
 143 002e 1C70     		strb	r4, [r3]
 212:Generated_Source\PSoC4/ATM_UART.c ****         #if (ATM_UART_TX_INTERRUPT_ENABLED)
 213:Generated_Source\PSoC4/ATM_UART.c ****             ATM_UART_ClearPendingTxInt(); /* Clear history of TX_NOT_EMPTY */
 144              		.loc 1 213 0
 145 0030 0320     		movs	r0, #3
 146 0032 FFF7FEFF 		bl	CyIntClearPending
 147              	.LVL7:
 214:Generated_Source\PSoC4/ATM_UART.c ****             ATM_UART_EnableTxInt();
 148              		.loc 1 214 0
 149 0036 0320     		movs	r0, #3
 150 0038 FFF7FEFF 		bl	CyIntEnable
 151              	.LVL8:
 215:Generated_Source\PSoC4/ATM_UART.c ****         #endif /* (ATM_UART_TX_INTERRUPT_ENABLED) */
 216:Generated_Source\PSoC4/ATM_UART.c ****      #endif /* (ATM_UART_TX_INTERRUPT_ENABLED) */
 217:Generated_Source\PSoC4/ATM_UART.c **** 
 218:Generated_Source\PSoC4/ATM_UART.c ****     #if (ATM_UART_INTERNAL_CLOCK_USED)
 219:Generated_Source\PSoC4/ATM_UART.c ****         ATM_UART_IntClock_Start();  /* Enable the clock */
 152              		.loc 1 219 0
 153 003c FFF7FEFF 		bl	ATM_UART_IntClock_Start
 154              	.LVL9:
 220:Generated_Source\PSoC4/ATM_UART.c ****     #endif /* (ATM_UART_INTERNAL_CLOCK_USED) */
 221:Generated_Source\PSoC4/ATM_UART.c **** 
 222:Generated_Source\PSoC4/ATM_UART.c ****     CyExitCriticalSection(enableInterrupts);
 155              		.loc 1 222 0
 156 0040 2800     		movs	r0, r5
 157 0042 FFF7FEFF 		bl	CyExitCriticalSection
 158              	.LVL10:
 223:Generated_Source\PSoC4/ATM_UART.c **** }
 159              		.loc 1 223 0
 160              		@ sp needed
 161              	.LVL11:
 162 0046 70BD     		pop	{r4, r5, r6, pc}
 163              	.L6:
 164              		.align	2
 165              	.L5:
 166 0048 91000F40 		.word	1074725009
 167 004c 90000F40 		.word	1074725008
 168 0050 92000F40 		.word	1074725010
 169              		.cfi_endproc
 170              	.LFE2:
 171              		.size	ATM_UART_Enable, .-ATM_UART_Enable
 172              		.section	.text.ATM_UART_Start,"ax",%progbits
 173              		.align	2
 174              		.global	ATM_UART_Start
 175              		.code	16
 176              		.thumb_func
ARM GAS  C:\Users\CCPOW_~1\AppData\Local\Temp\ccJeinjc.s 			page 8


 177              		.type	ATM_UART_Start, %function
 178              	ATM_UART_Start:
 179              	.LFB0:
  77:Generated_Source\PSoC4/ATM_UART.c ****     /* If not initialized then initialize all required hardware and software */
 180              		.loc 1 77 0
 181              		.cfi_startproc
 182              		@ args = 0, pretend = 0, frame = 0
 183              		@ frame_needed = 0, uses_anonymous_args = 0
 184 0000 10B5     		push	{r4, lr}
 185              		.cfi_def_cfa_offset 8
 186              		.cfi_offset 4, -8
 187              		.cfi_offset 14, -4
  79:Generated_Source\PSoC4/ATM_UART.c ****     {
 188              		.loc 1 79 0
 189 0002 064B     		ldr	r3, .L9
 190 0004 5B78     		ldrb	r3, [r3, #1]
 191 0006 002B     		cmp	r3, #0
 192 0008 04D1     		bne	.L8
  81:Generated_Source\PSoC4/ATM_UART.c ****         ATM_UART_initVar = 1u;
 193              		.loc 1 81 0
 194 000a FFF7FEFF 		bl	ATM_UART_Init
 195              	.LVL12:
  82:Generated_Source\PSoC4/ATM_UART.c ****     }
 196              		.loc 1 82 0
 197 000e 0122     		movs	r2, #1
 198 0010 024B     		ldr	r3, .L9
 199 0012 5A70     		strb	r2, [r3, #1]
 200              	.L8:
  85:Generated_Source\PSoC4/ATM_UART.c **** }
 201              		.loc 1 85 0
 202 0014 FFF7FEFF 		bl	ATM_UART_Enable
 203              	.LVL13:
  86:Generated_Source\PSoC4/ATM_UART.c **** 
 204              		.loc 1 86 0
 205              		@ sp needed
 206 0018 10BD     		pop	{r4, pc}
 207              	.L10:
 208 001a C046     		.align	2
 209              	.L9:
 210 001c 00000000 		.word	.LANCHOR0
 211              		.cfi_endproc
 212              	.LFE0:
 213              		.size	ATM_UART_Start, .-ATM_UART_Start
 214              		.section	.text.ATM_UART_Stop,"ax",%progbits
 215              		.align	2
 216              		.global	ATM_UART_Stop
 217              		.code	16
 218              		.thumb_func
 219              		.type	ATM_UART_Stop, %function
 220              	ATM_UART_Stop:
 221              	.LFB3:
 224:Generated_Source\PSoC4/ATM_UART.c **** 
 225:Generated_Source\PSoC4/ATM_UART.c **** 
 226:Generated_Source\PSoC4/ATM_UART.c **** /*******************************************************************************
 227:Generated_Source\PSoC4/ATM_UART.c **** * Function Name: ATM_UART_Stop
 228:Generated_Source\PSoC4/ATM_UART.c **** ********************************************************************************
 229:Generated_Source\PSoC4/ATM_UART.c **** *
ARM GAS  C:\Users\CCPOW_~1\AppData\Local\Temp\ccJeinjc.s 			page 9


 230:Generated_Source\PSoC4/ATM_UART.c **** * Summary:
 231:Generated_Source\PSoC4/ATM_UART.c **** *  Disables the UART operation.
 232:Generated_Source\PSoC4/ATM_UART.c **** *
 233:Generated_Source\PSoC4/ATM_UART.c **** * Parameters:
 234:Generated_Source\PSoC4/ATM_UART.c **** *  None.
 235:Generated_Source\PSoC4/ATM_UART.c **** *
 236:Generated_Source\PSoC4/ATM_UART.c **** * Return:
 237:Generated_Source\PSoC4/ATM_UART.c **** *  None.
 238:Generated_Source\PSoC4/ATM_UART.c **** *
 239:Generated_Source\PSoC4/ATM_UART.c **** *******************************************************************************/
 240:Generated_Source\PSoC4/ATM_UART.c **** void ATM_UART_Stop(void) 
 241:Generated_Source\PSoC4/ATM_UART.c **** {
 222              		.loc 1 241 0
 223              		.cfi_startproc
 224              		@ args = 0, pretend = 0, frame = 0
 225              		@ frame_needed = 0, uses_anonymous_args = 0
 226 0000 70B5     		push	{r4, r5, r6, lr}
 227              		.cfi_def_cfa_offset 16
 228              		.cfi_offset 4, -16
 229              		.cfi_offset 5, -12
 230              		.cfi_offset 6, -8
 231              		.cfi_offset 14, -4
 242:Generated_Source\PSoC4/ATM_UART.c ****     uint8 enableInterrupts;
 243:Generated_Source\PSoC4/ATM_UART.c ****     enableInterrupts = CyEnterCriticalSection();
 232              		.loc 1 243 0
 233 0002 FFF7FEFF 		bl	CyEnterCriticalSection
 234              	.LVL14:
 235 0006 0400     		movs	r4, r0
 236              	.LVL15:
 244:Generated_Source\PSoC4/ATM_UART.c **** 
 245:Generated_Source\PSoC4/ATM_UART.c ****     /* Write Bit Counter Disable */
 246:Generated_Source\PSoC4/ATM_UART.c ****     #if (ATM_UART_RX_ENABLED || ATM_UART_HD_ENABLED)
 247:Generated_Source\PSoC4/ATM_UART.c ****         ATM_UART_RXBITCTR_CONTROL_REG &= (uint8) ~ATM_UART_CNTR_ENABLE;
 237              		.loc 1 247 0
 238 0008 0C4A     		ldr	r2, .L12
 239 000a 1378     		ldrb	r3, [r2]
 240 000c 2021     		movs	r1, #32
 241 000e 8B43     		bics	r3, r1
 242 0010 1370     		strb	r3, [r2]
 248:Generated_Source\PSoC4/ATM_UART.c ****     #endif /* (ATM_UART_RX_ENABLED || ATM_UART_HD_ENABLED) */
 249:Generated_Source\PSoC4/ATM_UART.c **** 
 250:Generated_Source\PSoC4/ATM_UART.c ****     #if (ATM_UART_TX_ENABLED)
 251:Generated_Source\PSoC4/ATM_UART.c ****         #if(!ATM_UART_TXCLKGEN_DP)
 252:Generated_Source\PSoC4/ATM_UART.c ****             ATM_UART_TXBITCTR_CONTROL_REG &= (uint8) ~ATM_UART_CNTR_ENABLE;
 253:Generated_Source\PSoC4/ATM_UART.c ****         #endif /* (!ATM_UART_TXCLKGEN_DP) */
 254:Generated_Source\PSoC4/ATM_UART.c ****     #endif /* (ATM_UART_TX_ENABLED) */
 255:Generated_Source\PSoC4/ATM_UART.c **** 
 256:Generated_Source\PSoC4/ATM_UART.c ****     #if (ATM_UART_INTERNAL_CLOCK_USED)
 257:Generated_Source\PSoC4/ATM_UART.c ****         ATM_UART_IntClock_Stop();   /* Disable the clock */
 243              		.loc 1 257 0
 244 0012 FFF7FEFF 		bl	ATM_UART_IntClock_Stop
 245              	.LVL16:
 258:Generated_Source\PSoC4/ATM_UART.c ****     #endif /* (ATM_UART_INTERNAL_CLOCK_USED) */
 259:Generated_Source\PSoC4/ATM_UART.c **** 
 260:Generated_Source\PSoC4/ATM_UART.c ****     /* Disable internal interrupt component */
 261:Generated_Source\PSoC4/ATM_UART.c ****     #if (ATM_UART_RX_ENABLED || ATM_UART_HD_ENABLED)
 262:Generated_Source\PSoC4/ATM_UART.c ****         ATM_UART_RXSTATUS_ACTL_REG  &= (uint8) ~ATM_UART_INT_ENABLE;
ARM GAS  C:\Users\CCPOW_~1\AppData\Local\Temp\ccJeinjc.s 			page 10


 246              		.loc 1 262 0
 247 0016 0A4A     		ldr	r2, .L12+4
 248 0018 1378     		ldrb	r3, [r2]
 249 001a 1025     		movs	r5, #16
 250 001c AB43     		bics	r3, r5
 251 001e 1370     		strb	r3, [r2]
 263:Generated_Source\PSoC4/ATM_UART.c **** 
 264:Generated_Source\PSoC4/ATM_UART.c ****         #if (ATM_UART_RX_INTERRUPT_ENABLED)
 265:Generated_Source\PSoC4/ATM_UART.c ****             ATM_UART_DisableRxInt();
 252              		.loc 1 265 0
 253 0020 0220     		movs	r0, #2
 254 0022 FFF7FEFF 		bl	CyIntDisable
 255              	.LVL17:
 266:Generated_Source\PSoC4/ATM_UART.c ****         #endif /* (ATM_UART_RX_INTERRUPT_ENABLED) */
 267:Generated_Source\PSoC4/ATM_UART.c ****     #endif /* (ATM_UART_RX_ENABLED || ATM_UART_HD_ENABLED) */
 268:Generated_Source\PSoC4/ATM_UART.c **** 
 269:Generated_Source\PSoC4/ATM_UART.c ****     #if (ATM_UART_TX_ENABLED)
 270:Generated_Source\PSoC4/ATM_UART.c ****         ATM_UART_TXSTATUS_ACTL_REG &= (uint8) ~ATM_UART_INT_ENABLE;
 256              		.loc 1 270 0
 257 0026 074A     		ldr	r2, .L12+8
 258 0028 1378     		ldrb	r3, [r2]
 259 002a AB43     		bics	r3, r5
 260 002c 1370     		strb	r3, [r2]
 271:Generated_Source\PSoC4/ATM_UART.c **** 
 272:Generated_Source\PSoC4/ATM_UART.c ****         #if (ATM_UART_TX_INTERRUPT_ENABLED)
 273:Generated_Source\PSoC4/ATM_UART.c ****             ATM_UART_DisableTxInt();
 261              		.loc 1 273 0
 262 002e 0320     		movs	r0, #3
 263 0030 FFF7FEFF 		bl	CyIntDisable
 264              	.LVL18:
 274:Generated_Source\PSoC4/ATM_UART.c ****         #endif /* (ATM_UART_TX_INTERRUPT_ENABLED) */
 275:Generated_Source\PSoC4/ATM_UART.c ****     #endif /* (ATM_UART_TX_ENABLED) */
 276:Generated_Source\PSoC4/ATM_UART.c **** 
 277:Generated_Source\PSoC4/ATM_UART.c ****     CyExitCriticalSection(enableInterrupts);
 265              		.loc 1 277 0
 266 0034 2000     		movs	r0, r4
 267 0036 FFF7FEFF 		bl	CyExitCriticalSection
 268              	.LVL19:
 278:Generated_Source\PSoC4/ATM_UART.c **** }
 269              		.loc 1 278 0
 270              		@ sp needed
 271              	.LVL20:
 272 003a 70BD     		pop	{r4, r5, r6, pc}
 273              	.L13:
 274              		.align	2
 275              	.L12:
 276 003c 91000F40 		.word	1074725009
 277 0040 90000F40 		.word	1074725008
 278 0044 92000F40 		.word	1074725010
 279              		.cfi_endproc
 280              	.LFE3:
 281              		.size	ATM_UART_Stop, .-ATM_UART_Stop
 282              		.section	.text.ATM_UART_ReadControlRegister,"ax",%progbits
 283              		.align	2
 284              		.global	ATM_UART_ReadControlRegister
 285              		.code	16
 286              		.thumb_func
ARM GAS  C:\Users\CCPOW_~1\AppData\Local\Temp\ccJeinjc.s 			page 11


 287              		.type	ATM_UART_ReadControlRegister, %function
 288              	ATM_UART_ReadControlRegister:
 289              	.LFB4:
 279:Generated_Source\PSoC4/ATM_UART.c **** 
 280:Generated_Source\PSoC4/ATM_UART.c **** 
 281:Generated_Source\PSoC4/ATM_UART.c **** /*******************************************************************************
 282:Generated_Source\PSoC4/ATM_UART.c **** * Function Name: ATM_UART_ReadControlRegister
 283:Generated_Source\PSoC4/ATM_UART.c **** ********************************************************************************
 284:Generated_Source\PSoC4/ATM_UART.c **** *
 285:Generated_Source\PSoC4/ATM_UART.c **** * Summary:
 286:Generated_Source\PSoC4/ATM_UART.c **** *  Returns the current value of the control register.
 287:Generated_Source\PSoC4/ATM_UART.c **** *
 288:Generated_Source\PSoC4/ATM_UART.c **** * Parameters:
 289:Generated_Source\PSoC4/ATM_UART.c **** *  None.
 290:Generated_Source\PSoC4/ATM_UART.c **** *
 291:Generated_Source\PSoC4/ATM_UART.c **** * Return:
 292:Generated_Source\PSoC4/ATM_UART.c **** *  Contents of the control register.
 293:Generated_Source\PSoC4/ATM_UART.c **** *
 294:Generated_Source\PSoC4/ATM_UART.c **** *******************************************************************************/
 295:Generated_Source\PSoC4/ATM_UART.c **** uint8 ATM_UART_ReadControlRegister(void) 
 296:Generated_Source\PSoC4/ATM_UART.c **** {
 290              		.loc 1 296 0
 291              		.cfi_startproc
 292              		@ args = 0, pretend = 0, frame = 0
 293              		@ frame_needed = 0, uses_anonymous_args = 0
 294              		@ link register save eliminated.
 297:Generated_Source\PSoC4/ATM_UART.c ****     #if (ATM_UART_CONTROL_REG_REMOVED)
 298:Generated_Source\PSoC4/ATM_UART.c ****         return(0u);
 299:Generated_Source\PSoC4/ATM_UART.c ****     #else
 300:Generated_Source\PSoC4/ATM_UART.c ****         return(ATM_UART_CONTROL_REG);
 301:Generated_Source\PSoC4/ATM_UART.c ****     #endif /* (ATM_UART_CONTROL_REG_REMOVED) */
 302:Generated_Source\PSoC4/ATM_UART.c **** }
 295              		.loc 1 302 0
 296 0000 0020     		movs	r0, #0
 297              		@ sp needed
 298 0002 7047     		bx	lr
 299              		.cfi_endproc
 300              	.LFE4:
 301              		.size	ATM_UART_ReadControlRegister, .-ATM_UART_ReadControlRegister
 302              		.section	.text.ATM_UART_WriteControlRegister,"ax",%progbits
 303              		.align	2
 304              		.global	ATM_UART_WriteControlRegister
 305              		.code	16
 306              		.thumb_func
 307              		.type	ATM_UART_WriteControlRegister, %function
 308              	ATM_UART_WriteControlRegister:
 309              	.LFB5:
 303:Generated_Source\PSoC4/ATM_UART.c **** 
 304:Generated_Source\PSoC4/ATM_UART.c **** 
 305:Generated_Source\PSoC4/ATM_UART.c **** /*******************************************************************************
 306:Generated_Source\PSoC4/ATM_UART.c **** * Function Name: ATM_UART_WriteControlRegister
 307:Generated_Source\PSoC4/ATM_UART.c **** ********************************************************************************
 308:Generated_Source\PSoC4/ATM_UART.c **** *
 309:Generated_Source\PSoC4/ATM_UART.c **** * Summary:
 310:Generated_Source\PSoC4/ATM_UART.c **** *  Writes an 8-bit value into the control register
 311:Generated_Source\PSoC4/ATM_UART.c **** *
 312:Generated_Source\PSoC4/ATM_UART.c **** * Parameters:
ARM GAS  C:\Users\CCPOW_~1\AppData\Local\Temp\ccJeinjc.s 			page 12


 313:Generated_Source\PSoC4/ATM_UART.c **** *  control:  control register value
 314:Generated_Source\PSoC4/ATM_UART.c **** *
 315:Generated_Source\PSoC4/ATM_UART.c **** * Return:
 316:Generated_Source\PSoC4/ATM_UART.c **** *  None.
 317:Generated_Source\PSoC4/ATM_UART.c **** *
 318:Generated_Source\PSoC4/ATM_UART.c **** *******************************************************************************/
 319:Generated_Source\PSoC4/ATM_UART.c **** void  ATM_UART_WriteControlRegister(uint8 control) 
 320:Generated_Source\PSoC4/ATM_UART.c **** {
 310              		.loc 1 320 0
 311              		.cfi_startproc
 312              		@ args = 0, pretend = 0, frame = 0
 313              		@ frame_needed = 0, uses_anonymous_args = 0
 314              		@ link register save eliminated.
 315              	.LVL21:
 321:Generated_Source\PSoC4/ATM_UART.c ****     #if (ATM_UART_CONTROL_REG_REMOVED)
 322:Generated_Source\PSoC4/ATM_UART.c ****         if(0u != control)
 323:Generated_Source\PSoC4/ATM_UART.c ****         {
 324:Generated_Source\PSoC4/ATM_UART.c ****             /* Suppress compiler warning */
 325:Generated_Source\PSoC4/ATM_UART.c ****         }
 326:Generated_Source\PSoC4/ATM_UART.c ****     #else
 327:Generated_Source\PSoC4/ATM_UART.c ****        ATM_UART_CONTROL_REG = control;
 328:Generated_Source\PSoC4/ATM_UART.c ****     #endif /* (ATM_UART_CONTROL_REG_REMOVED) */
 329:Generated_Source\PSoC4/ATM_UART.c **** }
 316              		.loc 1 329 0
 317              		@ sp needed
 318 0000 7047     		bx	lr
 319              		.cfi_endproc
 320              	.LFE5:
 321              		.size	ATM_UART_WriteControlRegister, .-ATM_UART_WriteControlRegister
 322 0002 C046     		.section	.text.ATM_UART_SetRxInterruptMode,"ax",%progbits
 323              		.align	2
 324              		.global	ATM_UART_SetRxInterruptMode
 325              		.code	16
 326              		.thumb_func
 327              		.type	ATM_UART_SetRxInterruptMode, %function
 328              	ATM_UART_SetRxInterruptMode:
 329              	.LFB6:
 330:Generated_Source\PSoC4/ATM_UART.c **** 
 331:Generated_Source\PSoC4/ATM_UART.c **** 
 332:Generated_Source\PSoC4/ATM_UART.c **** #if(ATM_UART_RX_ENABLED || ATM_UART_HD_ENABLED)
 333:Generated_Source\PSoC4/ATM_UART.c ****     /*******************************************************************************
 334:Generated_Source\PSoC4/ATM_UART.c ****     * Function Name: ATM_UART_SetRxInterruptMode
 335:Generated_Source\PSoC4/ATM_UART.c ****     ********************************************************************************
 336:Generated_Source\PSoC4/ATM_UART.c ****     *
 337:Generated_Source\PSoC4/ATM_UART.c ****     * Summary:
 338:Generated_Source\PSoC4/ATM_UART.c ****     *  Configures the RX interrupt sources enabled.
 339:Generated_Source\PSoC4/ATM_UART.c ****     *
 340:Generated_Source\PSoC4/ATM_UART.c ****     * Parameters:
 341:Generated_Source\PSoC4/ATM_UART.c ****     *  IntSrc:  Bit field containing the RX interrupts to enable. Based on the 
 342:Generated_Source\PSoC4/ATM_UART.c ****     *  bit-field arrangement of the status register. This value must be a 
 343:Generated_Source\PSoC4/ATM_UART.c ****     *  combination of status register bit-masks shown below:
 344:Generated_Source\PSoC4/ATM_UART.c ****     *      ATM_UART_RX_STS_FIFO_NOTEMPTY    Interrupt on byte received.
 345:Generated_Source\PSoC4/ATM_UART.c ****     *      ATM_UART_RX_STS_PAR_ERROR        Interrupt on parity error.
 346:Generated_Source\PSoC4/ATM_UART.c ****     *      ATM_UART_RX_STS_STOP_ERROR       Interrupt on stop error.
 347:Generated_Source\PSoC4/ATM_UART.c ****     *      ATM_UART_RX_STS_BREAK            Interrupt on break.
 348:Generated_Source\PSoC4/ATM_UART.c ****     *      ATM_UART_RX_STS_OVERRUN          Interrupt on overrun error.
 349:Generated_Source\PSoC4/ATM_UART.c ****     *      ATM_UART_RX_STS_ADDR_MATCH       Interrupt on address match.
ARM GAS  C:\Users\CCPOW_~1\AppData\Local\Temp\ccJeinjc.s 			page 13


 350:Generated_Source\PSoC4/ATM_UART.c ****     *      ATM_UART_RX_STS_MRKSPC           Interrupt on address detect.
 351:Generated_Source\PSoC4/ATM_UART.c ****     *
 352:Generated_Source\PSoC4/ATM_UART.c ****     * Return:
 353:Generated_Source\PSoC4/ATM_UART.c ****     *  None.
 354:Generated_Source\PSoC4/ATM_UART.c ****     *
 355:Generated_Source\PSoC4/ATM_UART.c ****     * Theory:
 356:Generated_Source\PSoC4/ATM_UART.c ****     *  Enables the output of specific status bits to the interrupt controller
 357:Generated_Source\PSoC4/ATM_UART.c ****     *
 358:Generated_Source\PSoC4/ATM_UART.c ****     *******************************************************************************/
 359:Generated_Source\PSoC4/ATM_UART.c ****     void ATM_UART_SetRxInterruptMode(uint8 intSrc) 
 360:Generated_Source\PSoC4/ATM_UART.c ****     {
 330              		.loc 1 360 0
 331              		.cfi_startproc
 332              		@ args = 0, pretend = 0, frame = 0
 333              		@ frame_needed = 0, uses_anonymous_args = 0
 334              		@ link register save eliminated.
 335              	.LVL22:
 361:Generated_Source\PSoC4/ATM_UART.c ****         ATM_UART_RXSTATUS_MASK_REG  = intSrc;
 336              		.loc 1 361 0
 337 0000 014B     		ldr	r3, .L17
 338 0002 1870     		strb	r0, [r3]
 362:Generated_Source\PSoC4/ATM_UART.c ****     }
 339              		.loc 1 362 0
 340              		@ sp needed
 341 0004 7047     		bx	lr
 342              	.L18:
 343 0006 C046     		.align	2
 344              	.L17:
 345 0008 80000F40 		.word	1074724992
 346              		.cfi_endproc
 347              	.LFE6:
 348              		.size	ATM_UART_SetRxInterruptMode, .-ATM_UART_SetRxInterruptMode
 349              		.section	.text.ATM_UART_ReadRxData,"ax",%progbits
 350              		.align	2
 351              		.global	ATM_UART_ReadRxData
 352              		.code	16
 353              		.thumb_func
 354              		.type	ATM_UART_ReadRxData, %function
 355              	ATM_UART_ReadRxData:
 356              	.LFB7:
 363:Generated_Source\PSoC4/ATM_UART.c **** 
 364:Generated_Source\PSoC4/ATM_UART.c **** 
 365:Generated_Source\PSoC4/ATM_UART.c ****     /*******************************************************************************
 366:Generated_Source\PSoC4/ATM_UART.c ****     * Function Name: ATM_UART_ReadRxData
 367:Generated_Source\PSoC4/ATM_UART.c ****     ********************************************************************************
 368:Generated_Source\PSoC4/ATM_UART.c ****     *
 369:Generated_Source\PSoC4/ATM_UART.c ****     * Summary:
 370:Generated_Source\PSoC4/ATM_UART.c ****     *  Returns the next byte of received data. This function returns data without
 371:Generated_Source\PSoC4/ATM_UART.c ****     *  checking the status. You must check the status separately.
 372:Generated_Source\PSoC4/ATM_UART.c ****     *
 373:Generated_Source\PSoC4/ATM_UART.c ****     * Parameters:
 374:Generated_Source\PSoC4/ATM_UART.c ****     *  None.
 375:Generated_Source\PSoC4/ATM_UART.c ****     *
 376:Generated_Source\PSoC4/ATM_UART.c ****     * Return:
 377:Generated_Source\PSoC4/ATM_UART.c ****     *  Received data from RX register
 378:Generated_Source\PSoC4/ATM_UART.c ****     *
 379:Generated_Source\PSoC4/ATM_UART.c ****     * Global Variables:
ARM GAS  C:\Users\CCPOW_~1\AppData\Local\Temp\ccJeinjc.s 			page 14


 380:Generated_Source\PSoC4/ATM_UART.c ****     *  ATM_UART_rxBuffer - RAM buffer pointer for save received data.
 381:Generated_Source\PSoC4/ATM_UART.c ****     *  ATM_UART_rxBufferWrite - cyclic index for write to rxBuffer,
 382:Generated_Source\PSoC4/ATM_UART.c ****     *     checked to identify new data.
 383:Generated_Source\PSoC4/ATM_UART.c ****     *  ATM_UART_rxBufferRead - cyclic index for read from rxBuffer,
 384:Generated_Source\PSoC4/ATM_UART.c ****     *     incremented after each byte has been read from buffer.
 385:Generated_Source\PSoC4/ATM_UART.c ****     *  ATM_UART_rxBufferLoopDetect - cleared if loop condition was detected
 386:Generated_Source\PSoC4/ATM_UART.c ****     *     in RX ISR.
 387:Generated_Source\PSoC4/ATM_UART.c ****     *
 388:Generated_Source\PSoC4/ATM_UART.c ****     * Reentrant:
 389:Generated_Source\PSoC4/ATM_UART.c ****     *  No.
 390:Generated_Source\PSoC4/ATM_UART.c ****     *
 391:Generated_Source\PSoC4/ATM_UART.c ****     *******************************************************************************/
 392:Generated_Source\PSoC4/ATM_UART.c ****     uint8 ATM_UART_ReadRxData(void) 
 393:Generated_Source\PSoC4/ATM_UART.c ****     {
 357              		.loc 1 393 0
 358              		.cfi_startproc
 359              		@ args = 0, pretend = 0, frame = 0
 360              		@ frame_needed = 0, uses_anonymous_args = 0
 361 0000 10B5     		push	{r4, lr}
 362              		.cfi_def_cfa_offset 8
 363              		.cfi_offset 4, -8
 364              		.cfi_offset 14, -4
 394:Generated_Source\PSoC4/ATM_UART.c ****         uint8 rxData;
 395:Generated_Source\PSoC4/ATM_UART.c **** 
 396:Generated_Source\PSoC4/ATM_UART.c ****     #if (ATM_UART_RX_INTERRUPT_ENABLED)
 397:Generated_Source\PSoC4/ATM_UART.c **** 
 398:Generated_Source\PSoC4/ATM_UART.c ****         uint8 locRxBufferRead;
 399:Generated_Source\PSoC4/ATM_UART.c ****         uint8 locRxBufferWrite;
 400:Generated_Source\PSoC4/ATM_UART.c **** 
 401:Generated_Source\PSoC4/ATM_UART.c ****         /* Protect variables that could change on interrupt */
 402:Generated_Source\PSoC4/ATM_UART.c ****         ATM_UART_DisableRxInt();
 365              		.loc 1 402 0
 366 0002 0220     		movs	r0, #2
 367 0004 FFF7FEFF 		bl	CyIntDisable
 368              	.LVL23:
 403:Generated_Source\PSoC4/ATM_UART.c **** 
 404:Generated_Source\PSoC4/ATM_UART.c ****         locRxBufferRead  = ATM_UART_rxBufferRead;
 369              		.loc 1 404 0
 370 0008 114A     		ldr	r2, .L25
 371 000a 9378     		ldrb	r3, [r2, #2]
 372 000c DBB2     		uxtb	r3, r3
 373              	.LVL24:
 405:Generated_Source\PSoC4/ATM_UART.c ****         locRxBufferWrite = ATM_UART_rxBufferWrite;
 374              		.loc 1 405 0
 375 000e D178     		ldrb	r1, [r2, #3]
 376 0010 C9B2     		uxtb	r1, r1
 377              	.LVL25:
 406:Generated_Source\PSoC4/ATM_UART.c **** 
 407:Generated_Source\PSoC4/ATM_UART.c ****         if( (ATM_UART_rxBufferLoopDetect != 0u) || (locRxBufferRead != locRxBufferWrite) )
 378              		.loc 1 407 0
 379 0012 1279     		ldrb	r2, [r2, #4]
 380 0014 002A     		cmp	r2, #0
 381 0016 01D1     		bne	.L20
 382              		.loc 1 407 0 is_stmt 0 discriminator 1
 383 0018 8B42     		cmp	r3, r1
 384 001a 10D0     		beq	.L21
 385              	.L20:
ARM GAS  C:\Users\CCPOW_~1\AppData\Local\Temp\ccJeinjc.s 			page 15


 408:Generated_Source\PSoC4/ATM_UART.c ****         {
 409:Generated_Source\PSoC4/ATM_UART.c ****             rxData = ATM_UART_rxBuffer[locRxBufferRead];
 386              		.loc 1 409 0 is_stmt 1
 387 001c 0D4A     		ldr	r2, .L25+4
 388 001e D45C     		ldrb	r4, [r2, r3]
 389 0020 E4B2     		uxtb	r4, r4
 390              	.LVL26:
 410:Generated_Source\PSoC4/ATM_UART.c ****             locRxBufferRead++;
 391              		.loc 1 410 0
 392 0022 0133     		adds	r3, r3, #1
 393              	.LVL27:
 394 0024 DBB2     		uxtb	r3, r3
 395              	.LVL28:
 411:Generated_Source\PSoC4/ATM_UART.c **** 
 412:Generated_Source\PSoC4/ATM_UART.c ****             if(locRxBufferRead >= ATM_UART_RX_BUFFER_SIZE)
 396              		.loc 1 412 0
 397 0026 0F2B     		cmp	r3, #15
 398 0028 00D9     		bls	.L22
 413:Generated_Source\PSoC4/ATM_UART.c ****             {
 414:Generated_Source\PSoC4/ATM_UART.c ****                 locRxBufferRead = 0u;
 399              		.loc 1 414 0
 400 002a 0023     		movs	r3, #0
 401              	.LVL29:
 402              	.L22:
 415:Generated_Source\PSoC4/ATM_UART.c ****             }
 416:Generated_Source\PSoC4/ATM_UART.c ****             /* Update the real pointer */
 417:Generated_Source\PSoC4/ATM_UART.c ****             ATM_UART_rxBufferRead = locRxBufferRead;
 403              		.loc 1 417 0
 404 002c 084A     		ldr	r2, .L25
 405 002e 9370     		strb	r3, [r2, #2]
 418:Generated_Source\PSoC4/ATM_UART.c **** 
 419:Generated_Source\PSoC4/ATM_UART.c ****             if(ATM_UART_rxBufferLoopDetect != 0u)
 406              		.loc 1 419 0
 407 0030 1379     		ldrb	r3, [r2, #4]
 408              	.LVL30:
 409 0032 002B     		cmp	r3, #0
 410 0034 06D0     		beq	.L23
 420:Generated_Source\PSoC4/ATM_UART.c ****             {
 421:Generated_Source\PSoC4/ATM_UART.c ****                 ATM_UART_rxBufferLoopDetect = 0u;
 411              		.loc 1 421 0
 412 0036 0022     		movs	r2, #0
 413 0038 054B     		ldr	r3, .L25
 414 003a 1A71     		strb	r2, [r3, #4]
 415              	.LVL31:
 416 003c 02E0     		b	.L23
 417              	.LVL32:
 418              	.L21:
 422:Generated_Source\PSoC4/ATM_UART.c ****                 #if ((ATM_UART_RX_INTERRUPT_ENABLED) && (ATM_UART_FLOW_CONTROL != 0u))
 423:Generated_Source\PSoC4/ATM_UART.c ****                     /* When Hardware Flow Control selected - return RX mask */
 424:Generated_Source\PSoC4/ATM_UART.c ****                     #if( ATM_UART_HD_ENABLED )
 425:Generated_Source\PSoC4/ATM_UART.c ****                         if((ATM_UART_CONTROL_REG & ATM_UART_CTRL_HD_SEND) == 0u)
 426:Generated_Source\PSoC4/ATM_UART.c ****                         {   /* In Half duplex mode return RX mask only in RX
 427:Generated_Source\PSoC4/ATM_UART.c ****                             *  configuration set, otherwise
 428:Generated_Source\PSoC4/ATM_UART.c ****                             *  mask will be returned in LoadRxConfig() API.
 429:Generated_Source\PSoC4/ATM_UART.c ****                             */
 430:Generated_Source\PSoC4/ATM_UART.c ****                             ATM_UART_RXSTATUS_MASK_REG  |= ATM_UART_RX_STS_FIFO_NOTEMPTY;
 431:Generated_Source\PSoC4/ATM_UART.c ****                         }
ARM GAS  C:\Users\CCPOW_~1\AppData\Local\Temp\ccJeinjc.s 			page 16


 432:Generated_Source\PSoC4/ATM_UART.c ****                     #else
 433:Generated_Source\PSoC4/ATM_UART.c ****                         ATM_UART_RXSTATUS_MASK_REG  |= ATM_UART_RX_STS_FIFO_NOTEMPTY;
 434:Generated_Source\PSoC4/ATM_UART.c ****                     #endif /* end ATM_UART_HD_ENABLED */
 435:Generated_Source\PSoC4/ATM_UART.c ****                 #endif /* ((ATM_UART_RX_INTERRUPT_ENABLED) && (ATM_UART_FLOW_CONTROL != 0u)) */
 436:Generated_Source\PSoC4/ATM_UART.c ****             }
 437:Generated_Source\PSoC4/ATM_UART.c ****         }
 438:Generated_Source\PSoC4/ATM_UART.c ****         else
 439:Generated_Source\PSoC4/ATM_UART.c ****         {   /* Needs to check status for RX_STS_FIFO_NOTEMPTY bit */
 440:Generated_Source\PSoC4/ATM_UART.c ****             rxData = ATM_UART_RXDATA_REG;
 419              		.loc 1 440 0
 420 003e 064B     		ldr	r3, .L25+8
 421              	.LVL33:
 422 0040 1C78     		ldrb	r4, [r3]
 423 0042 E4B2     		uxtb	r4, r4
 424              	.LVL34:
 425              	.L23:
 441:Generated_Source\PSoC4/ATM_UART.c ****         }
 442:Generated_Source\PSoC4/ATM_UART.c **** 
 443:Generated_Source\PSoC4/ATM_UART.c ****         ATM_UART_EnableRxInt();
 426              		.loc 1 443 0
 427 0044 0220     		movs	r0, #2
 428 0046 FFF7FEFF 		bl	CyIntEnable
 429              	.LVL35:
 444:Generated_Source\PSoC4/ATM_UART.c **** 
 445:Generated_Source\PSoC4/ATM_UART.c ****     #else
 446:Generated_Source\PSoC4/ATM_UART.c **** 
 447:Generated_Source\PSoC4/ATM_UART.c ****         /* Needs to check status for RX_STS_FIFO_NOTEMPTY bit */
 448:Generated_Source\PSoC4/ATM_UART.c ****         rxData = ATM_UART_RXDATA_REG;
 449:Generated_Source\PSoC4/ATM_UART.c **** 
 450:Generated_Source\PSoC4/ATM_UART.c ****     #endif /* (ATM_UART_RX_INTERRUPT_ENABLED) */
 451:Generated_Source\PSoC4/ATM_UART.c **** 
 452:Generated_Source\PSoC4/ATM_UART.c ****         return(rxData);
 453:Generated_Source\PSoC4/ATM_UART.c ****     }
 430              		.loc 1 453 0
 431 004a 2000     		movs	r0, r4
 432              		@ sp needed
 433              	.LVL36:
 434 004c 10BD     		pop	{r4, pc}
 435              	.L26:
 436 004e C046     		.align	2
 437              	.L25:
 438 0050 00000000 		.word	.LANCHOR0
 439 0054 00000000 		.word	ATM_UART_rxBuffer
 440 0058 41000F40 		.word	1074724929
 441              		.cfi_endproc
 442              	.LFE7:
 443              		.size	ATM_UART_ReadRxData, .-ATM_UART_ReadRxData
 444              		.section	.text.ATM_UART_ReadRxStatus,"ax",%progbits
 445              		.align	2
 446              		.global	ATM_UART_ReadRxStatus
 447              		.code	16
 448              		.thumb_func
 449              		.type	ATM_UART_ReadRxStatus, %function
 450              	ATM_UART_ReadRxStatus:
 451              	.LFB8:
 454:Generated_Source\PSoC4/ATM_UART.c **** 
 455:Generated_Source\PSoC4/ATM_UART.c **** 
ARM GAS  C:\Users\CCPOW_~1\AppData\Local\Temp\ccJeinjc.s 			page 17


 456:Generated_Source\PSoC4/ATM_UART.c ****     /*******************************************************************************
 457:Generated_Source\PSoC4/ATM_UART.c ****     * Function Name: ATM_UART_ReadRxStatus
 458:Generated_Source\PSoC4/ATM_UART.c ****     ********************************************************************************
 459:Generated_Source\PSoC4/ATM_UART.c ****     *
 460:Generated_Source\PSoC4/ATM_UART.c ****     * Summary:
 461:Generated_Source\PSoC4/ATM_UART.c ****     *  Returns the current state of the receiver status register and the software
 462:Generated_Source\PSoC4/ATM_UART.c ****     *  buffer overflow status.
 463:Generated_Source\PSoC4/ATM_UART.c ****     *
 464:Generated_Source\PSoC4/ATM_UART.c ****     * Parameters:
 465:Generated_Source\PSoC4/ATM_UART.c ****     *  None.
 466:Generated_Source\PSoC4/ATM_UART.c ****     *
 467:Generated_Source\PSoC4/ATM_UART.c ****     * Return:
 468:Generated_Source\PSoC4/ATM_UART.c ****     *  Current state of the status register.
 469:Generated_Source\PSoC4/ATM_UART.c ****     *
 470:Generated_Source\PSoC4/ATM_UART.c ****     * Side Effect:
 471:Generated_Source\PSoC4/ATM_UART.c ****     *  All status register bits are clear-on-read except
 472:Generated_Source\PSoC4/ATM_UART.c ****     *  ATM_UART_RX_STS_FIFO_NOTEMPTY.
 473:Generated_Source\PSoC4/ATM_UART.c ****     *  ATM_UART_RX_STS_FIFO_NOTEMPTY clears immediately after RX data
 474:Generated_Source\PSoC4/ATM_UART.c ****     *  register read.
 475:Generated_Source\PSoC4/ATM_UART.c ****     *
 476:Generated_Source\PSoC4/ATM_UART.c ****     * Global Variables:
 477:Generated_Source\PSoC4/ATM_UART.c ****     *  ATM_UART_rxBufferOverflow - used to indicate overload condition.
 478:Generated_Source\PSoC4/ATM_UART.c ****     *   It set to one in RX interrupt when there isn't free space in
 479:Generated_Source\PSoC4/ATM_UART.c ****     *   ATM_UART_rxBufferRead to write new data. This condition returned
 480:Generated_Source\PSoC4/ATM_UART.c ****     *   and cleared to zero by this API as an
 481:Generated_Source\PSoC4/ATM_UART.c ****     *   ATM_UART_RX_STS_SOFT_BUFF_OVER bit along with RX Status register
 482:Generated_Source\PSoC4/ATM_UART.c ****     *   bits.
 483:Generated_Source\PSoC4/ATM_UART.c ****     *
 484:Generated_Source\PSoC4/ATM_UART.c ****     *******************************************************************************/
 485:Generated_Source\PSoC4/ATM_UART.c ****     uint8 ATM_UART_ReadRxStatus(void) 
 486:Generated_Source\PSoC4/ATM_UART.c ****     {
 452              		.loc 1 486 0
 453              		.cfi_startproc
 454              		@ args = 0, pretend = 0, frame = 0
 455              		@ frame_needed = 0, uses_anonymous_args = 0
 456              		@ link register save eliminated.
 487:Generated_Source\PSoC4/ATM_UART.c ****         uint8 status;
 488:Generated_Source\PSoC4/ATM_UART.c **** 
 489:Generated_Source\PSoC4/ATM_UART.c ****         status = ATM_UART_RXSTATUS_REG & ATM_UART_RX_HW_MASK;
 457              		.loc 1 489 0
 458 0000 074B     		ldr	r3, .L29
 459 0002 1878     		ldrb	r0, [r3]
 460 0004 7F23     		movs	r3, #127
 461 0006 1840     		ands	r0, r3
 462              	.LVL37:
 490:Generated_Source\PSoC4/ATM_UART.c **** 
 491:Generated_Source\PSoC4/ATM_UART.c ****     #if (ATM_UART_RX_INTERRUPT_ENABLED)
 492:Generated_Source\PSoC4/ATM_UART.c ****         if(ATM_UART_rxBufferOverflow != 0u)
 463              		.loc 1 492 0
 464 0008 064B     		ldr	r3, .L29+4
 465 000a 5B79     		ldrb	r3, [r3, #5]
 466 000c 002B     		cmp	r3, #0
 467 000e 06D0     		beq	.L28
 493:Generated_Source\PSoC4/ATM_UART.c ****         {
 494:Generated_Source\PSoC4/ATM_UART.c ****             status |= ATM_UART_RX_STS_SOFT_BUFF_OVER;
 468              		.loc 1 494 0
 469 0010 8023     		movs	r3, #128
ARM GAS  C:\Users\CCPOW_~1\AppData\Local\Temp\ccJeinjc.s 			page 18


 470 0012 5B42     		rsbs	r3, r3, #0
 471 0014 1843     		orrs	r0, r3
 472              	.LVL38:
 473 0016 C0B2     		uxtb	r0, r0
 474              	.LVL39:
 495:Generated_Source\PSoC4/ATM_UART.c ****             ATM_UART_rxBufferOverflow = 0u;
 475              		.loc 1 495 0
 476 0018 0022     		movs	r2, #0
 477 001a 024B     		ldr	r3, .L29+4
 478 001c 5A71     		strb	r2, [r3, #5]
 479              	.L28:
 496:Generated_Source\PSoC4/ATM_UART.c ****         }
 497:Generated_Source\PSoC4/ATM_UART.c ****     #endif /* (ATM_UART_RX_INTERRUPT_ENABLED) */
 498:Generated_Source\PSoC4/ATM_UART.c **** 
 499:Generated_Source\PSoC4/ATM_UART.c ****         return(status);
 500:Generated_Source\PSoC4/ATM_UART.c ****     }
 480              		.loc 1 500 0
 481              		@ sp needed
 482 001e 7047     		bx	lr
 483              	.L30:
 484              		.align	2
 485              	.L29:
 486 0020 60000F40 		.word	1074724960
 487 0024 00000000 		.word	.LANCHOR0
 488              		.cfi_endproc
 489              	.LFE8:
 490              		.size	ATM_UART_ReadRxStatus, .-ATM_UART_ReadRxStatus
 491              		.section	.text.ATM_UART_GetChar,"ax",%progbits
 492              		.align	2
 493              		.global	ATM_UART_GetChar
 494              		.code	16
 495              		.thumb_func
 496              		.type	ATM_UART_GetChar, %function
 497              	ATM_UART_GetChar:
 498              	.LFB9:
 501:Generated_Source\PSoC4/ATM_UART.c **** 
 502:Generated_Source\PSoC4/ATM_UART.c **** 
 503:Generated_Source\PSoC4/ATM_UART.c ****     /*******************************************************************************
 504:Generated_Source\PSoC4/ATM_UART.c ****     * Function Name: ATM_UART_GetChar
 505:Generated_Source\PSoC4/ATM_UART.c ****     ********************************************************************************
 506:Generated_Source\PSoC4/ATM_UART.c ****     *
 507:Generated_Source\PSoC4/ATM_UART.c ****     * Summary:
 508:Generated_Source\PSoC4/ATM_UART.c ****     *  Returns the last received byte of data. ATM_UART_GetChar() is
 509:Generated_Source\PSoC4/ATM_UART.c ****     *  designed for ASCII characters and returns a uint8 where 1 to 255 are values
 510:Generated_Source\PSoC4/ATM_UART.c ****     *  for valid characters and 0 indicates an error occurred or no data is present.
 511:Generated_Source\PSoC4/ATM_UART.c ****     *
 512:Generated_Source\PSoC4/ATM_UART.c ****     * Parameters:
 513:Generated_Source\PSoC4/ATM_UART.c ****     *  None.
 514:Generated_Source\PSoC4/ATM_UART.c ****     *
 515:Generated_Source\PSoC4/ATM_UART.c ****     * Return:
 516:Generated_Source\PSoC4/ATM_UART.c ****     *  Character read from UART RX buffer. ASCII characters from 1 to 255 are valid.
 517:Generated_Source\PSoC4/ATM_UART.c ****     *  A returned zero signifies an error condition or no data available.
 518:Generated_Source\PSoC4/ATM_UART.c ****     *
 519:Generated_Source\PSoC4/ATM_UART.c ****     * Global Variables:
 520:Generated_Source\PSoC4/ATM_UART.c ****     *  ATM_UART_rxBuffer - RAM buffer pointer for save received data.
 521:Generated_Source\PSoC4/ATM_UART.c ****     *  ATM_UART_rxBufferWrite - cyclic index for write to rxBuffer,
 522:Generated_Source\PSoC4/ATM_UART.c ****     *     checked to identify new data.
ARM GAS  C:\Users\CCPOW_~1\AppData\Local\Temp\ccJeinjc.s 			page 19


 523:Generated_Source\PSoC4/ATM_UART.c ****     *  ATM_UART_rxBufferRead - cyclic index for read from rxBuffer,
 524:Generated_Source\PSoC4/ATM_UART.c ****     *     incremented after each byte has been read from buffer.
 525:Generated_Source\PSoC4/ATM_UART.c ****     *  ATM_UART_rxBufferLoopDetect - cleared if loop condition was detected
 526:Generated_Source\PSoC4/ATM_UART.c ****     *     in RX ISR.
 527:Generated_Source\PSoC4/ATM_UART.c ****     *
 528:Generated_Source\PSoC4/ATM_UART.c ****     * Reentrant:
 529:Generated_Source\PSoC4/ATM_UART.c ****     *  No.
 530:Generated_Source\PSoC4/ATM_UART.c ****     *
 531:Generated_Source\PSoC4/ATM_UART.c ****     *******************************************************************************/
 532:Generated_Source\PSoC4/ATM_UART.c ****     uint8 ATM_UART_GetChar(void) 
 533:Generated_Source\PSoC4/ATM_UART.c ****     {
 499              		.loc 1 533 0
 500              		.cfi_startproc
 501              		@ args = 0, pretend = 0, frame = 0
 502              		@ frame_needed = 0, uses_anonymous_args = 0
 503 0000 10B5     		push	{r4, lr}
 504              		.cfi_def_cfa_offset 8
 505              		.cfi_offset 4, -8
 506              		.cfi_offset 14, -4
 507              	.LVL40:
 534:Generated_Source\PSoC4/ATM_UART.c ****         uint8 rxData = 0u;
 535:Generated_Source\PSoC4/ATM_UART.c ****         uint8 rxStatus;
 536:Generated_Source\PSoC4/ATM_UART.c **** 
 537:Generated_Source\PSoC4/ATM_UART.c ****     #if (ATM_UART_RX_INTERRUPT_ENABLED)
 538:Generated_Source\PSoC4/ATM_UART.c ****         uint8 locRxBufferRead;
 539:Generated_Source\PSoC4/ATM_UART.c ****         uint8 locRxBufferWrite;
 540:Generated_Source\PSoC4/ATM_UART.c **** 
 541:Generated_Source\PSoC4/ATM_UART.c ****         /* Protect variables that could change on interrupt */
 542:Generated_Source\PSoC4/ATM_UART.c ****         ATM_UART_DisableRxInt();
 508              		.loc 1 542 0
 509 0002 0220     		movs	r0, #2
 510 0004 FFF7FEFF 		bl	CyIntDisable
 511              	.LVL41:
 543:Generated_Source\PSoC4/ATM_UART.c **** 
 544:Generated_Source\PSoC4/ATM_UART.c ****         locRxBufferRead  = ATM_UART_rxBufferRead;
 512              		.loc 1 544 0
 513 0008 174A     		ldr	r2, .L39
 514 000a 9378     		ldrb	r3, [r2, #2]
 515 000c DBB2     		uxtb	r3, r3
 516              	.LVL42:
 545:Generated_Source\PSoC4/ATM_UART.c ****         locRxBufferWrite = ATM_UART_rxBufferWrite;
 517              		.loc 1 545 0
 518 000e D178     		ldrb	r1, [r2, #3]
 519 0010 C9B2     		uxtb	r1, r1
 520              	.LVL43:
 546:Generated_Source\PSoC4/ATM_UART.c **** 
 547:Generated_Source\PSoC4/ATM_UART.c ****         if( (ATM_UART_rxBufferLoopDetect != 0u) || (locRxBufferRead != locRxBufferWrite) )
 521              		.loc 1 547 0
 522 0012 1279     		ldrb	r2, [r2, #4]
 523 0014 002A     		cmp	r2, #0
 524 0016 01D1     		bne	.L32
 525              		.loc 1 547 0 is_stmt 0 discriminator 1
 526 0018 8B42     		cmp	r3, r1
 527 001a 10D0     		beq	.L33
 528              	.L32:
 548:Generated_Source\PSoC4/ATM_UART.c ****         {
 549:Generated_Source\PSoC4/ATM_UART.c ****             rxData = ATM_UART_rxBuffer[locRxBufferRead];
ARM GAS  C:\Users\CCPOW_~1\AppData\Local\Temp\ccJeinjc.s 			page 20


 529              		.loc 1 549 0 is_stmt 1
 530 001c 134A     		ldr	r2, .L39+4
 531 001e D45C     		ldrb	r4, [r2, r3]
 532 0020 E4B2     		uxtb	r4, r4
 533              	.LVL44:
 550:Generated_Source\PSoC4/ATM_UART.c ****             locRxBufferRead++;
 534              		.loc 1 550 0
 535 0022 0133     		adds	r3, r3, #1
 536              	.LVL45:
 537 0024 DBB2     		uxtb	r3, r3
 538              	.LVL46:
 551:Generated_Source\PSoC4/ATM_UART.c ****             if(locRxBufferRead >= ATM_UART_RX_BUFFER_SIZE)
 539              		.loc 1 551 0
 540 0026 0F2B     		cmp	r3, #15
 541 0028 00D9     		bls	.L34
 552:Generated_Source\PSoC4/ATM_UART.c ****             {
 553:Generated_Source\PSoC4/ATM_UART.c ****                 locRxBufferRead = 0u;
 542              		.loc 1 553 0
 543 002a 0023     		movs	r3, #0
 544              	.LVL47:
 545              	.L34:
 554:Generated_Source\PSoC4/ATM_UART.c ****             }
 555:Generated_Source\PSoC4/ATM_UART.c ****             /* Update the real pointer */
 556:Generated_Source\PSoC4/ATM_UART.c ****             ATM_UART_rxBufferRead = locRxBufferRead;
 546              		.loc 1 556 0
 547 002c 0E4A     		ldr	r2, .L39
 548 002e 9370     		strb	r3, [r2, #2]
 557:Generated_Source\PSoC4/ATM_UART.c **** 
 558:Generated_Source\PSoC4/ATM_UART.c ****             if(ATM_UART_rxBufferLoopDetect != 0u)
 549              		.loc 1 558 0
 550 0030 1379     		ldrb	r3, [r2, #4]
 551              	.LVL48:
 552 0032 002B     		cmp	r3, #0
 553 0034 12D0     		beq	.L35
 559:Generated_Source\PSoC4/ATM_UART.c ****             {
 560:Generated_Source\PSoC4/ATM_UART.c ****                 ATM_UART_rxBufferLoopDetect = 0u;
 554              		.loc 1 560 0
 555 0036 0022     		movs	r2, #0
 556 0038 0B4B     		ldr	r3, .L39
 557 003a 1A71     		strb	r2, [r3, #4]
 558              	.LVL49:
 559 003c 0EE0     		b	.L35
 560              	.LVL50:
 561              	.L33:
 561:Generated_Source\PSoC4/ATM_UART.c ****                 #if( (ATM_UART_RX_INTERRUPT_ENABLED) && (ATM_UART_FLOW_CONTROL != 0u) )
 562:Generated_Source\PSoC4/ATM_UART.c ****                     /* When Hardware Flow Control selected - return RX mask */
 563:Generated_Source\PSoC4/ATM_UART.c ****                     #if( ATM_UART_HD_ENABLED )
 564:Generated_Source\PSoC4/ATM_UART.c ****                         if((ATM_UART_CONTROL_REG & ATM_UART_CTRL_HD_SEND) == 0u)
 565:Generated_Source\PSoC4/ATM_UART.c ****                         {   /* In Half duplex mode return RX mask only if
 566:Generated_Source\PSoC4/ATM_UART.c ****                             *  RX configuration set, otherwise
 567:Generated_Source\PSoC4/ATM_UART.c ****                             *  mask will be returned in LoadRxConfig() API.
 568:Generated_Source\PSoC4/ATM_UART.c ****                             */
 569:Generated_Source\PSoC4/ATM_UART.c ****                             ATM_UART_RXSTATUS_MASK_REG |= ATM_UART_RX_STS_FIFO_NOTEMPTY;
 570:Generated_Source\PSoC4/ATM_UART.c ****                         }
 571:Generated_Source\PSoC4/ATM_UART.c ****                     #else
 572:Generated_Source\PSoC4/ATM_UART.c ****                         ATM_UART_RXSTATUS_MASK_REG |= ATM_UART_RX_STS_FIFO_NOTEMPTY;
 573:Generated_Source\PSoC4/ATM_UART.c ****                     #endif /* end ATM_UART_HD_ENABLED */
ARM GAS  C:\Users\CCPOW_~1\AppData\Local\Temp\ccJeinjc.s 			page 21


 574:Generated_Source\PSoC4/ATM_UART.c ****                 #endif /* ATM_UART_RX_INTERRUPT_ENABLED and Hardware flow control*/
 575:Generated_Source\PSoC4/ATM_UART.c ****             }
 576:Generated_Source\PSoC4/ATM_UART.c **** 
 577:Generated_Source\PSoC4/ATM_UART.c ****         }
 578:Generated_Source\PSoC4/ATM_UART.c ****         else
 579:Generated_Source\PSoC4/ATM_UART.c ****         {   rxStatus = ATM_UART_RXSTATUS_REG;
 562              		.loc 1 579 0
 563 003e 0C4B     		ldr	r3, .L39+8
 564              	.LVL51:
 565 0040 1B78     		ldrb	r3, [r3]
 566 0042 DBB2     		uxtb	r3, r3
 567              	.LVL52:
 580:Generated_Source\PSoC4/ATM_UART.c ****             if((rxStatus & ATM_UART_RX_STS_FIFO_NOTEMPTY) != 0u)
 568              		.loc 1 580 0
 569 0044 9A06     		lsls	r2, r3, #26
 570 0046 06D5     		bpl	.L37
 581:Generated_Source\PSoC4/ATM_UART.c ****             {   /* Read received data from FIFO */
 582:Generated_Source\PSoC4/ATM_UART.c ****                 rxData = ATM_UART_RXDATA_REG;
 571              		.loc 1 582 0
 572 0048 0A4A     		ldr	r2, .L39+12
 573 004a 1478     		ldrb	r4, [r2]
 574 004c E4B2     		uxtb	r4, r4
 575              	.LVL53:
 583:Generated_Source\PSoC4/ATM_UART.c ****                 /*Check status on error*/
 584:Generated_Source\PSoC4/ATM_UART.c ****                 if((rxStatus & (ATM_UART_RX_STS_BREAK | ATM_UART_RX_STS_PAR_ERROR |
 576              		.loc 1 584 0
 577 004e 1E22     		movs	r2, #30
 578 0050 1A42     		tst	r2, r3
 579 0052 02D1     		bne	.L38
 580 0054 02E0     		b	.L35
 581              	.LVL54:
 582              	.L37:
 534:Generated_Source\PSoC4/ATM_UART.c ****         uint8 rxStatus;
 583              		.loc 1 534 0
 584 0056 0024     		movs	r4, #0
 585 0058 00E0     		b	.L35
 586              	.LVL55:
 587              	.L38:
 585:Generated_Source\PSoC4/ATM_UART.c ****                                 ATM_UART_RX_STS_STOP_ERROR | ATM_UART_RX_STS_OVERRUN)) != 0u)
 586:Generated_Source\PSoC4/ATM_UART.c ****                 {
 587:Generated_Source\PSoC4/ATM_UART.c ****                     rxData = 0u;
 588              		.loc 1 587 0
 589 005a 0024     		movs	r4, #0
 590              	.LVL56:
 591              	.L35:
 588:Generated_Source\PSoC4/ATM_UART.c ****                 }
 589:Generated_Source\PSoC4/ATM_UART.c ****             }
 590:Generated_Source\PSoC4/ATM_UART.c ****         }
 591:Generated_Source\PSoC4/ATM_UART.c **** 
 592:Generated_Source\PSoC4/ATM_UART.c ****         ATM_UART_EnableRxInt();
 592              		.loc 1 592 0
 593 005c 0220     		movs	r0, #2
 594 005e FFF7FEFF 		bl	CyIntEnable
 595              	.LVL57:
 593:Generated_Source\PSoC4/ATM_UART.c **** 
 594:Generated_Source\PSoC4/ATM_UART.c ****     #else
 595:Generated_Source\PSoC4/ATM_UART.c **** 
ARM GAS  C:\Users\CCPOW_~1\AppData\Local\Temp\ccJeinjc.s 			page 22


 596:Generated_Source\PSoC4/ATM_UART.c ****         rxStatus =ATM_UART_RXSTATUS_REG;
 597:Generated_Source\PSoC4/ATM_UART.c ****         if((rxStatus & ATM_UART_RX_STS_FIFO_NOTEMPTY) != 0u)
 598:Generated_Source\PSoC4/ATM_UART.c ****         {
 599:Generated_Source\PSoC4/ATM_UART.c ****             /* Read received data from FIFO */
 600:Generated_Source\PSoC4/ATM_UART.c ****             rxData = ATM_UART_RXDATA_REG;
 601:Generated_Source\PSoC4/ATM_UART.c **** 
 602:Generated_Source\PSoC4/ATM_UART.c ****             /*Check status on error*/
 603:Generated_Source\PSoC4/ATM_UART.c ****             if((rxStatus & (ATM_UART_RX_STS_BREAK | ATM_UART_RX_STS_PAR_ERROR |
 604:Generated_Source\PSoC4/ATM_UART.c ****                             ATM_UART_RX_STS_STOP_ERROR | ATM_UART_RX_STS_OVERRUN)) != 0u)
 605:Generated_Source\PSoC4/ATM_UART.c ****             {
 606:Generated_Source\PSoC4/ATM_UART.c ****                 rxData = 0u;
 607:Generated_Source\PSoC4/ATM_UART.c ****             }
 608:Generated_Source\PSoC4/ATM_UART.c ****         }
 609:Generated_Source\PSoC4/ATM_UART.c ****     #endif /* (ATM_UART_RX_INTERRUPT_ENABLED) */
 610:Generated_Source\PSoC4/ATM_UART.c **** 
 611:Generated_Source\PSoC4/ATM_UART.c ****         return(rxData);
 612:Generated_Source\PSoC4/ATM_UART.c ****     }
 596              		.loc 1 612 0
 597 0062 2000     		movs	r0, r4
 598              		@ sp needed
 599              	.LVL58:
 600 0064 10BD     		pop	{r4, pc}
 601              	.L40:
 602 0066 C046     		.align	2
 603              	.L39:
 604 0068 00000000 		.word	.LANCHOR0
 605 006c 00000000 		.word	ATM_UART_rxBuffer
 606 0070 60000F40 		.word	1074724960
 607 0074 41000F40 		.word	1074724929
 608              		.cfi_endproc
 609              	.LFE9:
 610              		.size	ATM_UART_GetChar, .-ATM_UART_GetChar
 611              		.section	.text.ATM_UART_GetByte,"ax",%progbits
 612              		.align	2
 613              		.global	ATM_UART_GetByte
 614              		.code	16
 615              		.thumb_func
 616              		.type	ATM_UART_GetByte, %function
 617              	ATM_UART_GetByte:
 618              	.LFB10:
 613:Generated_Source\PSoC4/ATM_UART.c **** 
 614:Generated_Source\PSoC4/ATM_UART.c **** 
 615:Generated_Source\PSoC4/ATM_UART.c ****     /*******************************************************************************
 616:Generated_Source\PSoC4/ATM_UART.c ****     * Function Name: ATM_UART_GetByte
 617:Generated_Source\PSoC4/ATM_UART.c ****     ********************************************************************************
 618:Generated_Source\PSoC4/ATM_UART.c ****     *
 619:Generated_Source\PSoC4/ATM_UART.c ****     * Summary:
 620:Generated_Source\PSoC4/ATM_UART.c ****     *  Reads UART RX buffer immediately, returns received character and error
 621:Generated_Source\PSoC4/ATM_UART.c ****     *  condition.
 622:Generated_Source\PSoC4/ATM_UART.c ****     *
 623:Generated_Source\PSoC4/ATM_UART.c ****     * Parameters:
 624:Generated_Source\PSoC4/ATM_UART.c ****     *  None.
 625:Generated_Source\PSoC4/ATM_UART.c ****     *
 626:Generated_Source\PSoC4/ATM_UART.c ****     * Return:
 627:Generated_Source\PSoC4/ATM_UART.c ****     *  MSB contains status and LSB contains UART RX data. If the MSB is nonzero,
 628:Generated_Source\PSoC4/ATM_UART.c ****     *  an error has occurred.
 629:Generated_Source\PSoC4/ATM_UART.c ****     *
ARM GAS  C:\Users\CCPOW_~1\AppData\Local\Temp\ccJeinjc.s 			page 23


 630:Generated_Source\PSoC4/ATM_UART.c ****     * Reentrant:
 631:Generated_Source\PSoC4/ATM_UART.c ****     *  No.
 632:Generated_Source\PSoC4/ATM_UART.c ****     *
 633:Generated_Source\PSoC4/ATM_UART.c ****     *******************************************************************************/
 634:Generated_Source\PSoC4/ATM_UART.c ****     uint16 ATM_UART_GetByte(void) 
 635:Generated_Source\PSoC4/ATM_UART.c ****     {
 619              		.loc 1 635 0
 620              		.cfi_startproc
 621              		@ args = 0, pretend = 0, frame = 0
 622              		@ frame_needed = 0, uses_anonymous_args = 0
 623 0000 10B5     		push	{r4, lr}
 624              		.cfi_def_cfa_offset 8
 625              		.cfi_offset 4, -8
 626              		.cfi_offset 14, -4
 636:Generated_Source\PSoC4/ATM_UART.c ****         
 637:Generated_Source\PSoC4/ATM_UART.c ****     #if (ATM_UART_RX_INTERRUPT_ENABLED)
 638:Generated_Source\PSoC4/ATM_UART.c ****         uint16 locErrorStatus;
 639:Generated_Source\PSoC4/ATM_UART.c ****         /* Protect variables that could change on interrupt */
 640:Generated_Source\PSoC4/ATM_UART.c ****         ATM_UART_DisableRxInt();
 627              		.loc 1 640 0
 628 0002 0220     		movs	r0, #2
 629 0004 FFF7FEFF 		bl	CyIntDisable
 630              	.LVL59:
 641:Generated_Source\PSoC4/ATM_UART.c ****         locErrorStatus = (uint16)ATM_UART_errorStatus;
 631              		.loc 1 641 0
 632 0008 064B     		ldr	r3, .L42
 633 000a 1C78     		ldrb	r4, [r3]
 634              	.LVL60:
 642:Generated_Source\PSoC4/ATM_UART.c ****         ATM_UART_errorStatus = 0u;
 635              		.loc 1 642 0
 636 000c 0022     		movs	r2, #0
 637 000e 1A70     		strb	r2, [r3]
 643:Generated_Source\PSoC4/ATM_UART.c ****         ATM_UART_EnableRxInt();
 638              		.loc 1 643 0
 639 0010 0220     		movs	r0, #2
 640 0012 FFF7FEFF 		bl	CyIntEnable
 641              	.LVL61:
 644:Generated_Source\PSoC4/ATM_UART.c ****         return ( (uint16)(locErrorStatus << 8u) | ATM_UART_ReadRxData() );
 642              		.loc 1 644 0
 643 0016 2402     		lsls	r4, r4, #8
 644              	.LVL62:
 645 0018 FFF7FEFF 		bl	ATM_UART_ReadRxData
 646              	.LVL63:
 647 001c 2043     		orrs	r0, r4
 648 001e 80B2     		uxth	r0, r0
 645:Generated_Source\PSoC4/ATM_UART.c ****     #else
 646:Generated_Source\PSoC4/ATM_UART.c ****         return ( ((uint16)ATM_UART_ReadRxStatus() << 8u) | ATM_UART_ReadRxData() );
 647:Generated_Source\PSoC4/ATM_UART.c ****     #endif /* ATM_UART_RX_INTERRUPT_ENABLED */
 648:Generated_Source\PSoC4/ATM_UART.c ****         
 649:Generated_Source\PSoC4/ATM_UART.c ****     }
 649              		.loc 1 649 0
 650              		@ sp needed
 651 0020 10BD     		pop	{r4, pc}
 652              	.L43:
 653 0022 C046     		.align	2
 654              	.L42:
 655 0024 00000000 		.word	.LANCHOR0
ARM GAS  C:\Users\CCPOW_~1\AppData\Local\Temp\ccJeinjc.s 			page 24


 656              		.cfi_endproc
 657              	.LFE10:
 658              		.size	ATM_UART_GetByte, .-ATM_UART_GetByte
 659              		.section	.text.ATM_UART_GetRxBufferSize,"ax",%progbits
 660              		.align	2
 661              		.global	ATM_UART_GetRxBufferSize
 662              		.code	16
 663              		.thumb_func
 664              		.type	ATM_UART_GetRxBufferSize, %function
 665              	ATM_UART_GetRxBufferSize:
 666              	.LFB11:
 650:Generated_Source\PSoC4/ATM_UART.c **** 
 651:Generated_Source\PSoC4/ATM_UART.c **** 
 652:Generated_Source\PSoC4/ATM_UART.c ****     /*******************************************************************************
 653:Generated_Source\PSoC4/ATM_UART.c ****     * Function Name: ATM_UART_GetRxBufferSize
 654:Generated_Source\PSoC4/ATM_UART.c ****     ********************************************************************************
 655:Generated_Source\PSoC4/ATM_UART.c ****     *
 656:Generated_Source\PSoC4/ATM_UART.c ****     * Summary:
 657:Generated_Source\PSoC4/ATM_UART.c ****     *  Returns the number of received bytes available in the RX buffer.
 658:Generated_Source\PSoC4/ATM_UART.c ****     *  * RX software buffer is disabled (RX Buffer Size parameter is equal to 4): 
 659:Generated_Source\PSoC4/ATM_UART.c ****     *    returns 0 for empty RX FIFO or 1 for not empty RX FIFO.
 660:Generated_Source\PSoC4/ATM_UART.c ****     *  * RX software buffer is enabled: returns the number of bytes available in 
 661:Generated_Source\PSoC4/ATM_UART.c ****     *    the RX software buffer. Bytes available in the RX FIFO do not take to 
 662:Generated_Source\PSoC4/ATM_UART.c ****     *    account.
 663:Generated_Source\PSoC4/ATM_UART.c ****     *
 664:Generated_Source\PSoC4/ATM_UART.c ****     * Parameters:
 665:Generated_Source\PSoC4/ATM_UART.c ****     *  None.
 666:Generated_Source\PSoC4/ATM_UART.c ****     *
 667:Generated_Source\PSoC4/ATM_UART.c ****     * Return:
 668:Generated_Source\PSoC4/ATM_UART.c ****     *  uint8: Number of bytes in the RX buffer. 
 669:Generated_Source\PSoC4/ATM_UART.c ****     *    Return value type depends on RX Buffer Size parameter.
 670:Generated_Source\PSoC4/ATM_UART.c ****     *
 671:Generated_Source\PSoC4/ATM_UART.c ****     * Global Variables:
 672:Generated_Source\PSoC4/ATM_UART.c ****     *  ATM_UART_rxBufferWrite - used to calculate left bytes.
 673:Generated_Source\PSoC4/ATM_UART.c ****     *  ATM_UART_rxBufferRead - used to calculate left bytes.
 674:Generated_Source\PSoC4/ATM_UART.c ****     *  ATM_UART_rxBufferLoopDetect - checked to decide left bytes amount.
 675:Generated_Source\PSoC4/ATM_UART.c ****     *
 676:Generated_Source\PSoC4/ATM_UART.c ****     * Reentrant:
 677:Generated_Source\PSoC4/ATM_UART.c ****     *  No.
 678:Generated_Source\PSoC4/ATM_UART.c ****     *
 679:Generated_Source\PSoC4/ATM_UART.c ****     * Theory:
 680:Generated_Source\PSoC4/ATM_UART.c ****     *  Allows the user to find out how full the RX Buffer is.
 681:Generated_Source\PSoC4/ATM_UART.c ****     *
 682:Generated_Source\PSoC4/ATM_UART.c ****     *******************************************************************************/
 683:Generated_Source\PSoC4/ATM_UART.c ****     uint8 ATM_UART_GetRxBufferSize(void)
 684:Generated_Source\PSoC4/ATM_UART.c ****                                                             
 685:Generated_Source\PSoC4/ATM_UART.c ****     {
 667              		.loc 1 685 0
 668              		.cfi_startproc
 669              		@ args = 0, pretend = 0, frame = 0
 670              		@ frame_needed = 0, uses_anonymous_args = 0
 671 0000 10B5     		push	{r4, lr}
 672              		.cfi_def_cfa_offset 8
 673              		.cfi_offset 4, -8
 674              		.cfi_offset 14, -4
 686:Generated_Source\PSoC4/ATM_UART.c ****         uint8 size;
 687:Generated_Source\PSoC4/ATM_UART.c **** 
ARM GAS  C:\Users\CCPOW_~1\AppData\Local\Temp\ccJeinjc.s 			page 25


 688:Generated_Source\PSoC4/ATM_UART.c ****     #if (ATM_UART_RX_INTERRUPT_ENABLED)
 689:Generated_Source\PSoC4/ATM_UART.c **** 
 690:Generated_Source\PSoC4/ATM_UART.c ****         /* Protect variables that could change on interrupt */
 691:Generated_Source\PSoC4/ATM_UART.c ****         ATM_UART_DisableRxInt();
 675              		.loc 1 691 0
 676 0002 0220     		movs	r0, #2
 677 0004 FFF7FEFF 		bl	CyIntDisable
 678              	.LVL64:
 692:Generated_Source\PSoC4/ATM_UART.c **** 
 693:Generated_Source\PSoC4/ATM_UART.c ****         if(ATM_UART_rxBufferRead == ATM_UART_rxBufferWrite)
 679              		.loc 1 693 0
 680 0008 134B     		ldr	r3, .L49
 681 000a 9A78     		ldrb	r2, [r3, #2]
 682 000c D2B2     		uxtb	r2, r2
 683 000e DB78     		ldrb	r3, [r3, #3]
 684 0010 DBB2     		uxtb	r3, r3
 685 0012 9A42     		cmp	r2, r3
 686 0014 05D1     		bne	.L45
 694:Generated_Source\PSoC4/ATM_UART.c ****         {
 695:Generated_Source\PSoC4/ATM_UART.c ****             if(ATM_UART_rxBufferLoopDetect != 0u)
 687              		.loc 1 695 0
 688 0016 104B     		ldr	r3, .L49
 689 0018 1B79     		ldrb	r3, [r3, #4]
 690 001a 002B     		cmp	r3, #0
 691 001c 15D0     		beq	.L48
 696:Generated_Source\PSoC4/ATM_UART.c ****             {
 697:Generated_Source\PSoC4/ATM_UART.c ****                 size = ATM_UART_RX_BUFFER_SIZE;
 692              		.loc 1 697 0
 693 001e 1024     		movs	r4, #16
 694 0020 14E0     		b	.L46
 695              	.L45:
 698:Generated_Source\PSoC4/ATM_UART.c ****             }
 699:Generated_Source\PSoC4/ATM_UART.c ****             else
 700:Generated_Source\PSoC4/ATM_UART.c ****             {
 701:Generated_Source\PSoC4/ATM_UART.c ****                 size = 0u;
 702:Generated_Source\PSoC4/ATM_UART.c ****             }
 703:Generated_Source\PSoC4/ATM_UART.c ****         }
 704:Generated_Source\PSoC4/ATM_UART.c ****         else if(ATM_UART_rxBufferRead < ATM_UART_rxBufferWrite)
 696              		.loc 1 704 0
 697 0022 0D4B     		ldr	r3, .L49
 698 0024 9A78     		ldrb	r2, [r3, #2]
 699 0026 D2B2     		uxtb	r2, r2
 700 0028 DB78     		ldrb	r3, [r3, #3]
 701 002a DBB2     		uxtb	r3, r3
 702 002c 9A42     		cmp	r2, r3
 703 002e 05D2     		bcs	.L47
 705:Generated_Source\PSoC4/ATM_UART.c ****         {
 706:Generated_Source\PSoC4/ATM_UART.c ****             size = (ATM_UART_rxBufferWrite - ATM_UART_rxBufferRead);
 704              		.loc 1 706 0
 705 0030 094A     		ldr	r2, .L49
 706 0032 D378     		ldrb	r3, [r2, #3]
 707 0034 9478     		ldrb	r4, [r2, #2]
 708 0036 1C1B     		subs	r4, r3, r4
 709 0038 E4B2     		uxtb	r4, r4
 710              	.LVL65:
 711 003a 07E0     		b	.L46
 712              	.LVL66:
ARM GAS  C:\Users\CCPOW_~1\AppData\Local\Temp\ccJeinjc.s 			page 26


 713              	.L47:
 707:Generated_Source\PSoC4/ATM_UART.c ****         }
 708:Generated_Source\PSoC4/ATM_UART.c ****         else
 709:Generated_Source\PSoC4/ATM_UART.c ****         {
 710:Generated_Source\PSoC4/ATM_UART.c ****             size = (ATM_UART_RX_BUFFER_SIZE - ATM_UART_rxBufferRead) + ATM_UART_rxBufferWrite;
 714              		.loc 1 710 0
 715 003c 064A     		ldr	r2, .L49
 716 003e D378     		ldrb	r3, [r2, #3]
 717 0040 9478     		ldrb	r4, [r2, #2]
 718 0042 1C1B     		subs	r4, r3, r4
 719 0044 1034     		adds	r4, r4, #16
 720 0046 E4B2     		uxtb	r4, r4
 721              	.LVL67:
 722 0048 00E0     		b	.L46
 723              	.LVL68:
 724              	.L48:
 701:Generated_Source\PSoC4/ATM_UART.c ****             }
 725              		.loc 1 701 0
 726 004a 0024     		movs	r4, #0
 727              	.L46:
 728              	.LVL69:
 711:Generated_Source\PSoC4/ATM_UART.c ****         }
 712:Generated_Source\PSoC4/ATM_UART.c **** 
 713:Generated_Source\PSoC4/ATM_UART.c ****         ATM_UART_EnableRxInt();
 729              		.loc 1 713 0
 730 004c 0220     		movs	r0, #2
 731 004e FFF7FEFF 		bl	CyIntEnable
 732              	.LVL70:
 714:Generated_Source\PSoC4/ATM_UART.c **** 
 715:Generated_Source\PSoC4/ATM_UART.c ****     #else
 716:Generated_Source\PSoC4/ATM_UART.c **** 
 717:Generated_Source\PSoC4/ATM_UART.c ****         /* We can only know if there is data in the fifo. */
 718:Generated_Source\PSoC4/ATM_UART.c ****         size = ((ATM_UART_RXSTATUS_REG & ATM_UART_RX_STS_FIFO_NOTEMPTY) != 0u) ? 1u : 0u;
 719:Generated_Source\PSoC4/ATM_UART.c **** 
 720:Generated_Source\PSoC4/ATM_UART.c ****     #endif /* (ATM_UART_RX_INTERRUPT_ENABLED) */
 721:Generated_Source\PSoC4/ATM_UART.c **** 
 722:Generated_Source\PSoC4/ATM_UART.c ****         return(size);
 723:Generated_Source\PSoC4/ATM_UART.c ****     }
 733              		.loc 1 723 0
 734 0052 2000     		movs	r0, r4
 735              		@ sp needed
 736              	.LVL71:
 737 0054 10BD     		pop	{r4, pc}
 738              	.L50:
 739 0056 C046     		.align	2
 740              	.L49:
 741 0058 00000000 		.word	.LANCHOR0
 742              		.cfi_endproc
 743              	.LFE11:
 744              		.size	ATM_UART_GetRxBufferSize, .-ATM_UART_GetRxBufferSize
 745              		.section	.text.ATM_UART_ClearRxBuffer,"ax",%progbits
 746              		.align	2
 747              		.global	ATM_UART_ClearRxBuffer
 748              		.code	16
 749              		.thumb_func
 750              		.type	ATM_UART_ClearRxBuffer, %function
 751              	ATM_UART_ClearRxBuffer:
ARM GAS  C:\Users\CCPOW_~1\AppData\Local\Temp\ccJeinjc.s 			page 27


 752              	.LFB12:
 724:Generated_Source\PSoC4/ATM_UART.c **** 
 725:Generated_Source\PSoC4/ATM_UART.c **** 
 726:Generated_Source\PSoC4/ATM_UART.c ****     /*******************************************************************************
 727:Generated_Source\PSoC4/ATM_UART.c ****     * Function Name: ATM_UART_ClearRxBuffer
 728:Generated_Source\PSoC4/ATM_UART.c ****     ********************************************************************************
 729:Generated_Source\PSoC4/ATM_UART.c ****     *
 730:Generated_Source\PSoC4/ATM_UART.c ****     * Summary:
 731:Generated_Source\PSoC4/ATM_UART.c ****     *  Clears the receiver memory buffer and hardware RX FIFO of all received data.
 732:Generated_Source\PSoC4/ATM_UART.c ****     *
 733:Generated_Source\PSoC4/ATM_UART.c ****     * Parameters:
 734:Generated_Source\PSoC4/ATM_UART.c ****     *  None.
 735:Generated_Source\PSoC4/ATM_UART.c ****     *
 736:Generated_Source\PSoC4/ATM_UART.c ****     * Return:
 737:Generated_Source\PSoC4/ATM_UART.c ****     *  None.
 738:Generated_Source\PSoC4/ATM_UART.c ****     *
 739:Generated_Source\PSoC4/ATM_UART.c ****     * Global Variables:
 740:Generated_Source\PSoC4/ATM_UART.c ****     *  ATM_UART_rxBufferWrite - cleared to zero.
 741:Generated_Source\PSoC4/ATM_UART.c ****     *  ATM_UART_rxBufferRead - cleared to zero.
 742:Generated_Source\PSoC4/ATM_UART.c ****     *  ATM_UART_rxBufferLoopDetect - cleared to zero.
 743:Generated_Source\PSoC4/ATM_UART.c ****     *  ATM_UART_rxBufferOverflow - cleared to zero.
 744:Generated_Source\PSoC4/ATM_UART.c ****     *
 745:Generated_Source\PSoC4/ATM_UART.c ****     * Reentrant:
 746:Generated_Source\PSoC4/ATM_UART.c ****     *  No.
 747:Generated_Source\PSoC4/ATM_UART.c ****     *
 748:Generated_Source\PSoC4/ATM_UART.c ****     * Theory:
 749:Generated_Source\PSoC4/ATM_UART.c ****     *  Setting the pointers to zero makes the system believe there is no data to
 750:Generated_Source\PSoC4/ATM_UART.c ****     *  read and writing will resume at address 0 overwriting any data that may
 751:Generated_Source\PSoC4/ATM_UART.c ****     *  have remained in the RAM.
 752:Generated_Source\PSoC4/ATM_UART.c ****     *
 753:Generated_Source\PSoC4/ATM_UART.c ****     * Side Effects:
 754:Generated_Source\PSoC4/ATM_UART.c ****     *  Any received data not read from the RAM or FIFO buffer will be lost.
 755:Generated_Source\PSoC4/ATM_UART.c ****     *
 756:Generated_Source\PSoC4/ATM_UART.c ****     *******************************************************************************/
 757:Generated_Source\PSoC4/ATM_UART.c ****     void ATM_UART_ClearRxBuffer(void) 
 758:Generated_Source\PSoC4/ATM_UART.c ****     {
 753              		.loc 1 758 0
 754              		.cfi_startproc
 755              		@ args = 0, pretend = 0, frame = 0
 756              		@ frame_needed = 0, uses_anonymous_args = 0
 757 0000 10B5     		push	{r4, lr}
 758              		.cfi_def_cfa_offset 8
 759              		.cfi_offset 4, -8
 760              		.cfi_offset 14, -4
 759:Generated_Source\PSoC4/ATM_UART.c ****         uint8 enableInterrupts;
 760:Generated_Source\PSoC4/ATM_UART.c **** 
 761:Generated_Source\PSoC4/ATM_UART.c ****         /* Clear the HW FIFO */
 762:Generated_Source\PSoC4/ATM_UART.c ****         enableInterrupts = CyEnterCriticalSection();
 761              		.loc 1 762 0
 762 0002 FFF7FEFF 		bl	CyEnterCriticalSection
 763              	.LVL72:
 763:Generated_Source\PSoC4/ATM_UART.c ****         ATM_UART_RXDATA_AUX_CTL_REG |= (uint8)  ATM_UART_RX_FIFO_CLR;
 764              		.loc 1 763 0
 765 0006 0C4A     		ldr	r2, .L52
 766 0008 1178     		ldrb	r1, [r2]
 767 000a 0123     		movs	r3, #1
 768 000c 0B43     		orrs	r3, r1
ARM GAS  C:\Users\CCPOW_~1\AppData\Local\Temp\ccJeinjc.s 			page 28


 769 000e DBB2     		uxtb	r3, r3
 770 0010 1370     		strb	r3, [r2]
 764:Generated_Source\PSoC4/ATM_UART.c ****         ATM_UART_RXDATA_AUX_CTL_REG &= (uint8) ~ATM_UART_RX_FIFO_CLR;
 771              		.loc 1 764 0
 772 0012 1378     		ldrb	r3, [r2]
 773 0014 0121     		movs	r1, #1
 774 0016 8B43     		bics	r3, r1
 775 0018 1370     		strb	r3, [r2]
 765:Generated_Source\PSoC4/ATM_UART.c ****         CyExitCriticalSection(enableInterrupts);
 776              		.loc 1 765 0
 777 001a FFF7FEFF 		bl	CyExitCriticalSection
 778              	.LVL73:
 766:Generated_Source\PSoC4/ATM_UART.c **** 
 767:Generated_Source\PSoC4/ATM_UART.c ****     #if (ATM_UART_RX_INTERRUPT_ENABLED)
 768:Generated_Source\PSoC4/ATM_UART.c **** 
 769:Generated_Source\PSoC4/ATM_UART.c ****         /* Protect variables that could change on interrupt. */
 770:Generated_Source\PSoC4/ATM_UART.c ****         ATM_UART_DisableRxInt();
 779              		.loc 1 770 0
 780 001e 0220     		movs	r0, #2
 781 0020 FFF7FEFF 		bl	CyIntDisable
 782              	.LVL74:
 771:Generated_Source\PSoC4/ATM_UART.c **** 
 772:Generated_Source\PSoC4/ATM_UART.c ****         ATM_UART_rxBufferRead = 0u;
 783              		.loc 1 772 0
 784 0024 054B     		ldr	r3, .L52+4
 785 0026 0022     		movs	r2, #0
 786 0028 9A70     		strb	r2, [r3, #2]
 773:Generated_Source\PSoC4/ATM_UART.c ****         ATM_UART_rxBufferWrite = 0u;
 787              		.loc 1 773 0
 788 002a DA70     		strb	r2, [r3, #3]
 774:Generated_Source\PSoC4/ATM_UART.c ****         ATM_UART_rxBufferLoopDetect = 0u;
 789              		.loc 1 774 0
 790 002c 1A71     		strb	r2, [r3, #4]
 775:Generated_Source\PSoC4/ATM_UART.c ****         ATM_UART_rxBufferOverflow = 0u;
 791              		.loc 1 775 0
 792 002e 5A71     		strb	r2, [r3, #5]
 776:Generated_Source\PSoC4/ATM_UART.c **** 
 777:Generated_Source\PSoC4/ATM_UART.c ****         ATM_UART_EnableRxInt();
 793              		.loc 1 777 0
 794 0030 0220     		movs	r0, #2
 795 0032 FFF7FEFF 		bl	CyIntEnable
 796              	.LVL75:
 778:Generated_Source\PSoC4/ATM_UART.c **** 
 779:Generated_Source\PSoC4/ATM_UART.c ****     #endif /* (ATM_UART_RX_INTERRUPT_ENABLED) */
 780:Generated_Source\PSoC4/ATM_UART.c **** 
 781:Generated_Source\PSoC4/ATM_UART.c ****     }
 797              		.loc 1 781 0
 798              		@ sp needed
 799 0036 10BD     		pop	{r4, pc}
 800              	.L53:
 801              		.align	2
 802              	.L52:
 803 0038 91000F40 		.word	1074725009
 804 003c 00000000 		.word	.LANCHOR0
 805              		.cfi_endproc
 806              	.LFE12:
 807              		.size	ATM_UART_ClearRxBuffer, .-ATM_UART_ClearRxBuffer
ARM GAS  C:\Users\CCPOW_~1\AppData\Local\Temp\ccJeinjc.s 			page 29


 808              		.section	.text.ATM_UART_SetRxAddressMode,"ax",%progbits
 809              		.align	2
 810              		.global	ATM_UART_SetRxAddressMode
 811              		.code	16
 812              		.thumb_func
 813              		.type	ATM_UART_SetRxAddressMode, %function
 814              	ATM_UART_SetRxAddressMode:
 815              	.LFB13:
 782:Generated_Source\PSoC4/ATM_UART.c **** 
 783:Generated_Source\PSoC4/ATM_UART.c **** 
 784:Generated_Source\PSoC4/ATM_UART.c ****     /*******************************************************************************
 785:Generated_Source\PSoC4/ATM_UART.c ****     * Function Name: ATM_UART_SetRxAddressMode
 786:Generated_Source\PSoC4/ATM_UART.c ****     ********************************************************************************
 787:Generated_Source\PSoC4/ATM_UART.c ****     *
 788:Generated_Source\PSoC4/ATM_UART.c ****     * Summary:
 789:Generated_Source\PSoC4/ATM_UART.c ****     *  Sets the software controlled Addressing mode used by the RX portion of the
 790:Generated_Source\PSoC4/ATM_UART.c ****     *  UART.
 791:Generated_Source\PSoC4/ATM_UART.c ****     *
 792:Generated_Source\PSoC4/ATM_UART.c ****     * Parameters:
 793:Generated_Source\PSoC4/ATM_UART.c ****     *  addressMode: Enumerated value indicating the mode of RX addressing
 794:Generated_Source\PSoC4/ATM_UART.c ****     *  ATM_UART__B_UART__AM_SW_BYTE_BYTE -  Software Byte-by-Byte address
 795:Generated_Source\PSoC4/ATM_UART.c ****     *                                               detection
 796:Generated_Source\PSoC4/ATM_UART.c ****     *  ATM_UART__B_UART__AM_SW_DETECT_TO_BUFFER - Software Detect to Buffer
 797:Generated_Source\PSoC4/ATM_UART.c ****     *                                               address detection
 798:Generated_Source\PSoC4/ATM_UART.c ****     *  ATM_UART__B_UART__AM_HW_BYTE_BY_BYTE - Hardware Byte-by-Byte address
 799:Generated_Source\PSoC4/ATM_UART.c ****     *                                               detection
 800:Generated_Source\PSoC4/ATM_UART.c ****     *  ATM_UART__B_UART__AM_HW_DETECT_TO_BUFFER - Hardware Detect to Buffer
 801:Generated_Source\PSoC4/ATM_UART.c ****     *                                               address detection
 802:Generated_Source\PSoC4/ATM_UART.c ****     *  ATM_UART__B_UART__AM_NONE - No address detection
 803:Generated_Source\PSoC4/ATM_UART.c ****     *
 804:Generated_Source\PSoC4/ATM_UART.c ****     * Return:
 805:Generated_Source\PSoC4/ATM_UART.c ****     *  None.
 806:Generated_Source\PSoC4/ATM_UART.c ****     *
 807:Generated_Source\PSoC4/ATM_UART.c ****     * Global Variables:
 808:Generated_Source\PSoC4/ATM_UART.c ****     *  ATM_UART_rxAddressMode - the parameter stored in this variable for
 809:Generated_Source\PSoC4/ATM_UART.c ****     *   the farther usage in RX ISR.
 810:Generated_Source\PSoC4/ATM_UART.c ****     *  ATM_UART_rxAddressDetected - set to initial state (0).
 811:Generated_Source\PSoC4/ATM_UART.c ****     *
 812:Generated_Source\PSoC4/ATM_UART.c ****     *******************************************************************************/
 813:Generated_Source\PSoC4/ATM_UART.c ****     void ATM_UART_SetRxAddressMode(uint8 addressMode)
 814:Generated_Source\PSoC4/ATM_UART.c ****                                                         
 815:Generated_Source\PSoC4/ATM_UART.c ****     {
 816              		.loc 1 815 0
 817              		.cfi_startproc
 818              		@ args = 0, pretend = 0, frame = 0
 819              		@ frame_needed = 0, uses_anonymous_args = 0
 820              		@ link register save eliminated.
 821              	.LVL76:
 816:Generated_Source\PSoC4/ATM_UART.c ****         #if(ATM_UART_RXHW_ADDRESS_ENABLED)
 817:Generated_Source\PSoC4/ATM_UART.c ****             #if(ATM_UART_CONTROL_REG_REMOVED)
 818:Generated_Source\PSoC4/ATM_UART.c ****                 if(0u != addressMode)
 819:Generated_Source\PSoC4/ATM_UART.c ****                 {
 820:Generated_Source\PSoC4/ATM_UART.c ****                     /* Suppress compiler warning */
 821:Generated_Source\PSoC4/ATM_UART.c ****                 }
 822:Generated_Source\PSoC4/ATM_UART.c ****             #else /* ATM_UART_CONTROL_REG_REMOVED */
 823:Generated_Source\PSoC4/ATM_UART.c ****                 uint8 tmpCtrl;
 824:Generated_Source\PSoC4/ATM_UART.c ****                 tmpCtrl = ATM_UART_CONTROL_REG & (uint8)~ATM_UART_CTRL_RXADDR_MODE_MASK;
ARM GAS  C:\Users\CCPOW_~1\AppData\Local\Temp\ccJeinjc.s 			page 30


 825:Generated_Source\PSoC4/ATM_UART.c ****                 tmpCtrl |= (uint8)(addressMode << ATM_UART_CTRL_RXADDR_MODE0_SHIFT);
 826:Generated_Source\PSoC4/ATM_UART.c ****                 ATM_UART_CONTROL_REG = tmpCtrl;
 827:Generated_Source\PSoC4/ATM_UART.c **** 
 828:Generated_Source\PSoC4/ATM_UART.c ****                 #if(ATM_UART_RX_INTERRUPT_ENABLED && \
 829:Generated_Source\PSoC4/ATM_UART.c ****                    (ATM_UART_RXBUFFERSIZE > ATM_UART_FIFO_LENGTH) )
 830:Generated_Source\PSoC4/ATM_UART.c ****                     ATM_UART_rxAddressMode = addressMode;
 831:Generated_Source\PSoC4/ATM_UART.c ****                     ATM_UART_rxAddressDetected = 0u;
 832:Generated_Source\PSoC4/ATM_UART.c ****                 #endif /* End ATM_UART_RXBUFFERSIZE > ATM_UART_FIFO_LENGTH*/
 833:Generated_Source\PSoC4/ATM_UART.c ****             #endif /* End ATM_UART_CONTROL_REG_REMOVED */
 834:Generated_Source\PSoC4/ATM_UART.c ****         #else /* ATM_UART_RXHW_ADDRESS_ENABLED */
 835:Generated_Source\PSoC4/ATM_UART.c ****             if(0u != addressMode)
 836:Generated_Source\PSoC4/ATM_UART.c ****             {
 837:Generated_Source\PSoC4/ATM_UART.c ****                 /* Suppress compiler warning */
 838:Generated_Source\PSoC4/ATM_UART.c ****             }
 839:Generated_Source\PSoC4/ATM_UART.c ****         #endif /* End ATM_UART_RXHW_ADDRESS_ENABLED */
 840:Generated_Source\PSoC4/ATM_UART.c ****     }
 822              		.loc 1 840 0
 823              		@ sp needed
 824 0000 7047     		bx	lr
 825              		.cfi_endproc
 826              	.LFE13:
 827              		.size	ATM_UART_SetRxAddressMode, .-ATM_UART_SetRxAddressMode
 828 0002 C046     		.section	.text.ATM_UART_SetRxAddress1,"ax",%progbits
 829              		.align	2
 830              		.global	ATM_UART_SetRxAddress1
 831              		.code	16
 832              		.thumb_func
 833              		.type	ATM_UART_SetRxAddress1, %function
 834              	ATM_UART_SetRxAddress1:
 835              	.LFB14:
 841:Generated_Source\PSoC4/ATM_UART.c **** 
 842:Generated_Source\PSoC4/ATM_UART.c **** 
 843:Generated_Source\PSoC4/ATM_UART.c ****     /*******************************************************************************
 844:Generated_Source\PSoC4/ATM_UART.c ****     * Function Name: ATM_UART_SetRxAddress1
 845:Generated_Source\PSoC4/ATM_UART.c ****     ********************************************************************************
 846:Generated_Source\PSoC4/ATM_UART.c ****     *
 847:Generated_Source\PSoC4/ATM_UART.c ****     * Summary:
 848:Generated_Source\PSoC4/ATM_UART.c ****     *  Sets the first of two hardware-detectable receiver addresses.
 849:Generated_Source\PSoC4/ATM_UART.c ****     *
 850:Generated_Source\PSoC4/ATM_UART.c ****     * Parameters:
 851:Generated_Source\PSoC4/ATM_UART.c ****     *  address: Address #1 for hardware address detection.
 852:Generated_Source\PSoC4/ATM_UART.c ****     *
 853:Generated_Source\PSoC4/ATM_UART.c ****     * Return:
 854:Generated_Source\PSoC4/ATM_UART.c ****     *  None.
 855:Generated_Source\PSoC4/ATM_UART.c ****     *
 856:Generated_Source\PSoC4/ATM_UART.c ****     *******************************************************************************/
 857:Generated_Source\PSoC4/ATM_UART.c ****     void ATM_UART_SetRxAddress1(uint8 address) 
 858:Generated_Source\PSoC4/ATM_UART.c ****     {
 836              		.loc 1 858 0
 837              		.cfi_startproc
 838              		@ args = 0, pretend = 0, frame = 0
 839              		@ frame_needed = 0, uses_anonymous_args = 0
 840              		@ link register save eliminated.
 841              	.LVL77:
 859:Generated_Source\PSoC4/ATM_UART.c ****         ATM_UART_RXADDRESS1_REG = address;
 842              		.loc 1 859 0
 843 0000 014B     		ldr	r3, .L56
ARM GAS  C:\Users\CCPOW_~1\AppData\Local\Temp\ccJeinjc.s 			page 31


 844 0002 1870     		strb	r0, [r3]
 860:Generated_Source\PSoC4/ATM_UART.c ****     }
 845              		.loc 1 860 0
 846              		@ sp needed
 847 0004 7047     		bx	lr
 848              	.L57:
 849 0006 C046     		.align	2
 850              	.L56:
 851 0008 21000F40 		.word	1074724897
 852              		.cfi_endproc
 853              	.LFE14:
 854              		.size	ATM_UART_SetRxAddress1, .-ATM_UART_SetRxAddress1
 855              		.section	.text.ATM_UART_SetRxAddress2,"ax",%progbits
 856              		.align	2
 857              		.global	ATM_UART_SetRxAddress2
 858              		.code	16
 859              		.thumb_func
 860              		.type	ATM_UART_SetRxAddress2, %function
 861              	ATM_UART_SetRxAddress2:
 862              	.LFB15:
 861:Generated_Source\PSoC4/ATM_UART.c **** 
 862:Generated_Source\PSoC4/ATM_UART.c **** 
 863:Generated_Source\PSoC4/ATM_UART.c ****     /*******************************************************************************
 864:Generated_Source\PSoC4/ATM_UART.c ****     * Function Name: ATM_UART_SetRxAddress2
 865:Generated_Source\PSoC4/ATM_UART.c ****     ********************************************************************************
 866:Generated_Source\PSoC4/ATM_UART.c ****     *
 867:Generated_Source\PSoC4/ATM_UART.c ****     * Summary:
 868:Generated_Source\PSoC4/ATM_UART.c ****     *  Sets the second of two hardware-detectable receiver addresses.
 869:Generated_Source\PSoC4/ATM_UART.c ****     *
 870:Generated_Source\PSoC4/ATM_UART.c ****     * Parameters:
 871:Generated_Source\PSoC4/ATM_UART.c ****     *  address: Address #2 for hardware address detection.
 872:Generated_Source\PSoC4/ATM_UART.c ****     *
 873:Generated_Source\PSoC4/ATM_UART.c ****     * Return:
 874:Generated_Source\PSoC4/ATM_UART.c ****     *  None.
 875:Generated_Source\PSoC4/ATM_UART.c ****     *
 876:Generated_Source\PSoC4/ATM_UART.c ****     *******************************************************************************/
 877:Generated_Source\PSoC4/ATM_UART.c ****     void ATM_UART_SetRxAddress2(uint8 address) 
 878:Generated_Source\PSoC4/ATM_UART.c ****     {
 863              		.loc 1 878 0
 864              		.cfi_startproc
 865              		@ args = 0, pretend = 0, frame = 0
 866              		@ frame_needed = 0, uses_anonymous_args = 0
 867              		@ link register save eliminated.
 868              	.LVL78:
 879:Generated_Source\PSoC4/ATM_UART.c ****         ATM_UART_RXADDRESS2_REG = address;
 869              		.loc 1 879 0
 870 0000 014B     		ldr	r3, .L59
 871 0002 1870     		strb	r0, [r3]
 880:Generated_Source\PSoC4/ATM_UART.c ****     }
 872              		.loc 1 880 0
 873              		@ sp needed
 874 0004 7047     		bx	lr
 875              	.L60:
 876 0006 C046     		.align	2
 877              	.L59:
 878 0008 31000F40 		.word	1074724913
 879              		.cfi_endproc
ARM GAS  C:\Users\CCPOW_~1\AppData\Local\Temp\ccJeinjc.s 			page 32


 880              	.LFE15:
 881              		.size	ATM_UART_SetRxAddress2, .-ATM_UART_SetRxAddress2
 882              		.section	.text.ATM_UART_SetTxInterruptMode,"ax",%progbits
 883              		.align	2
 884              		.global	ATM_UART_SetTxInterruptMode
 885              		.code	16
 886              		.thumb_func
 887              		.type	ATM_UART_SetTxInterruptMode, %function
 888              	ATM_UART_SetTxInterruptMode:
 889              	.LFB16:
 881:Generated_Source\PSoC4/ATM_UART.c **** 
 882:Generated_Source\PSoC4/ATM_UART.c **** #endif  /* ATM_UART_RX_ENABLED || ATM_UART_HD_ENABLED*/
 883:Generated_Source\PSoC4/ATM_UART.c **** 
 884:Generated_Source\PSoC4/ATM_UART.c **** 
 885:Generated_Source\PSoC4/ATM_UART.c **** #if( (ATM_UART_TX_ENABLED) || (ATM_UART_HD_ENABLED) )
 886:Generated_Source\PSoC4/ATM_UART.c ****     /*******************************************************************************
 887:Generated_Source\PSoC4/ATM_UART.c ****     * Function Name: ATM_UART_SetTxInterruptMode
 888:Generated_Source\PSoC4/ATM_UART.c ****     ********************************************************************************
 889:Generated_Source\PSoC4/ATM_UART.c ****     *
 890:Generated_Source\PSoC4/ATM_UART.c ****     * Summary:
 891:Generated_Source\PSoC4/ATM_UART.c ****     *  Configures the TX interrupt sources to be enabled, but does not enable the
 892:Generated_Source\PSoC4/ATM_UART.c ****     *  interrupt.
 893:Generated_Source\PSoC4/ATM_UART.c ****     *
 894:Generated_Source\PSoC4/ATM_UART.c ****     * Parameters:
 895:Generated_Source\PSoC4/ATM_UART.c ****     *  intSrc: Bit field containing the TX interrupt sources to enable
 896:Generated_Source\PSoC4/ATM_UART.c ****     *   ATM_UART_TX_STS_COMPLETE        Interrupt on TX byte complete
 897:Generated_Source\PSoC4/ATM_UART.c ****     *   ATM_UART_TX_STS_FIFO_EMPTY      Interrupt when TX FIFO is empty
 898:Generated_Source\PSoC4/ATM_UART.c ****     *   ATM_UART_TX_STS_FIFO_FULL       Interrupt when TX FIFO is full
 899:Generated_Source\PSoC4/ATM_UART.c ****     *   ATM_UART_TX_STS_FIFO_NOT_FULL   Interrupt when TX FIFO is not full
 900:Generated_Source\PSoC4/ATM_UART.c ****     *
 901:Generated_Source\PSoC4/ATM_UART.c ****     * Return:
 902:Generated_Source\PSoC4/ATM_UART.c ****     *  None.
 903:Generated_Source\PSoC4/ATM_UART.c ****     *
 904:Generated_Source\PSoC4/ATM_UART.c ****     * Theory:
 905:Generated_Source\PSoC4/ATM_UART.c ****     *  Enables the output of specific status bits to the interrupt controller
 906:Generated_Source\PSoC4/ATM_UART.c ****     *
 907:Generated_Source\PSoC4/ATM_UART.c ****     *******************************************************************************/
 908:Generated_Source\PSoC4/ATM_UART.c ****     void ATM_UART_SetTxInterruptMode(uint8 intSrc) 
 909:Generated_Source\PSoC4/ATM_UART.c ****     {
 890              		.loc 1 909 0
 891              		.cfi_startproc
 892              		@ args = 0, pretend = 0, frame = 0
 893              		@ frame_needed = 0, uses_anonymous_args = 0
 894              		@ link register save eliminated.
 895              	.LVL79:
 910:Generated_Source\PSoC4/ATM_UART.c ****         ATM_UART_TXSTATUS_MASK_REG = intSrc;
 896              		.loc 1 910 0
 897 0000 014B     		ldr	r3, .L62
 898 0002 1870     		strb	r0, [r3]
 911:Generated_Source\PSoC4/ATM_UART.c ****     }
 899              		.loc 1 911 0
 900              		@ sp needed
 901 0004 7047     		bx	lr
 902              	.L63:
 903 0006 C046     		.align	2
 904              	.L62:
 905 0008 82000F40 		.word	1074724994
ARM GAS  C:\Users\CCPOW_~1\AppData\Local\Temp\ccJeinjc.s 			page 33


 906              		.cfi_endproc
 907              	.LFE16:
 908              		.size	ATM_UART_SetTxInterruptMode, .-ATM_UART_SetTxInterruptMode
 909              		.section	.text.ATM_UART_WriteTxData,"ax",%progbits
 910              		.align	2
 911              		.global	ATM_UART_WriteTxData
 912              		.code	16
 913              		.thumb_func
 914              		.type	ATM_UART_WriteTxData, %function
 915              	ATM_UART_WriteTxData:
 916              	.LFB17:
 912:Generated_Source\PSoC4/ATM_UART.c **** 
 913:Generated_Source\PSoC4/ATM_UART.c **** 
 914:Generated_Source\PSoC4/ATM_UART.c ****     /*******************************************************************************
 915:Generated_Source\PSoC4/ATM_UART.c ****     * Function Name: ATM_UART_WriteTxData
 916:Generated_Source\PSoC4/ATM_UART.c ****     ********************************************************************************
 917:Generated_Source\PSoC4/ATM_UART.c ****     *
 918:Generated_Source\PSoC4/ATM_UART.c ****     * Summary:
 919:Generated_Source\PSoC4/ATM_UART.c ****     *  Places a byte of data into the transmit buffer to be sent when the bus is
 920:Generated_Source\PSoC4/ATM_UART.c ****     *  available without checking the TX status register. You must check status
 921:Generated_Source\PSoC4/ATM_UART.c ****     *  separately.
 922:Generated_Source\PSoC4/ATM_UART.c ****     *
 923:Generated_Source\PSoC4/ATM_UART.c ****     * Parameters:
 924:Generated_Source\PSoC4/ATM_UART.c ****     *  txDataByte: data byte
 925:Generated_Source\PSoC4/ATM_UART.c ****     *
 926:Generated_Source\PSoC4/ATM_UART.c ****     * Return:
 927:Generated_Source\PSoC4/ATM_UART.c ****     * None.
 928:Generated_Source\PSoC4/ATM_UART.c ****     *
 929:Generated_Source\PSoC4/ATM_UART.c ****     * Global Variables:
 930:Generated_Source\PSoC4/ATM_UART.c ****     *  ATM_UART_txBuffer - RAM buffer pointer for save data for transmission
 931:Generated_Source\PSoC4/ATM_UART.c ****     *  ATM_UART_txBufferWrite - cyclic index for write to txBuffer,
 932:Generated_Source\PSoC4/ATM_UART.c ****     *    incremented after each byte saved to buffer.
 933:Generated_Source\PSoC4/ATM_UART.c ****     *  ATM_UART_txBufferRead - cyclic index for read from txBuffer,
 934:Generated_Source\PSoC4/ATM_UART.c ****     *    checked to identify the condition to write to FIFO directly or to TX buffer
 935:Generated_Source\PSoC4/ATM_UART.c ****     *  ATM_UART_initVar - checked to identify that the component has been
 936:Generated_Source\PSoC4/ATM_UART.c ****     *    initialized.
 937:Generated_Source\PSoC4/ATM_UART.c ****     *
 938:Generated_Source\PSoC4/ATM_UART.c ****     * Reentrant:
 939:Generated_Source\PSoC4/ATM_UART.c ****     *  No.
 940:Generated_Source\PSoC4/ATM_UART.c ****     *
 941:Generated_Source\PSoC4/ATM_UART.c ****     *******************************************************************************/
 942:Generated_Source\PSoC4/ATM_UART.c ****     void ATM_UART_WriteTxData(uint8 txDataByte) 
 943:Generated_Source\PSoC4/ATM_UART.c ****     {
 917              		.loc 1 943 0
 918              		.cfi_startproc
 919              		@ args = 0, pretend = 0, frame = 0
 920              		@ frame_needed = 0, uses_anonymous_args = 0
 921              	.LVL80:
 922 0000 10B5     		push	{r4, lr}
 923              		.cfi_def_cfa_offset 8
 924              		.cfi_offset 4, -8
 925              		.cfi_offset 14, -4
 926 0002 0400     		movs	r4, r0
 944:Generated_Source\PSoC4/ATM_UART.c ****         /* If not Initialized then skip this function*/
 945:Generated_Source\PSoC4/ATM_UART.c ****         if(ATM_UART_initVar != 0u)
 927              		.loc 1 945 0
 928 0004 114B     		ldr	r3, .L69
ARM GAS  C:\Users\CCPOW_~1\AppData\Local\Temp\ccJeinjc.s 			page 34


 929 0006 5B78     		ldrb	r3, [r3, #1]
 930 0008 002B     		cmp	r3, #0
 931 000a 1DD0     		beq	.L64
 946:Generated_Source\PSoC4/ATM_UART.c ****         {
 947:Generated_Source\PSoC4/ATM_UART.c ****         #if (ATM_UART_TX_INTERRUPT_ENABLED)
 948:Generated_Source\PSoC4/ATM_UART.c **** 
 949:Generated_Source\PSoC4/ATM_UART.c ****             /* Protect variables that could change on interrupt. */
 950:Generated_Source\PSoC4/ATM_UART.c ****             ATM_UART_DisableTxInt();
 932              		.loc 1 950 0
 933 000c 0320     		movs	r0, #3
 934              	.LVL81:
 935 000e FFF7FEFF 		bl	CyIntDisable
 936              	.LVL82:
 951:Generated_Source\PSoC4/ATM_UART.c **** 
 952:Generated_Source\PSoC4/ATM_UART.c ****             if( (ATM_UART_txBufferRead == ATM_UART_txBufferWrite) &&
 937              		.loc 1 952 0
 938 0012 0E4A     		ldr	r2, .L69
 939 0014 9379     		ldrb	r3, [r2, #6]
 940 0016 DBB2     		uxtb	r3, r3
 941 0018 D279     		ldrb	r2, [r2, #7]
 942 001a 9342     		cmp	r3, r2
 943 001c 06D1     		bne	.L66
 953:Generated_Source\PSoC4/ATM_UART.c ****                 ((ATM_UART_TXSTATUS_REG & ATM_UART_TX_STS_FIFO_FULL) == 0u) )
 944              		.loc 1 953 0 discriminator 1
 945 001e 0C4B     		ldr	r3, .L69+4
 946 0020 1B78     		ldrb	r3, [r3]
 952:Generated_Source\PSoC4/ATM_UART.c ****                 ((ATM_UART_TXSTATUS_REG & ATM_UART_TX_STS_FIFO_FULL) == 0u) )
 947              		.loc 1 952 0 discriminator 1
 948 0022 5B07     		lsls	r3, r3, #29
 949 0024 02D4     		bmi	.L66
 954:Generated_Source\PSoC4/ATM_UART.c ****             {
 955:Generated_Source\PSoC4/ATM_UART.c ****                 /* Add directly to the FIFO. */
 956:Generated_Source\PSoC4/ATM_UART.c ****                 ATM_UART_TXDATA_REG = txDataByte;
 950              		.loc 1 956 0
 951 0026 0B4B     		ldr	r3, .L69+8
 952 0028 1C70     		strb	r4, [r3]
 953 002a 0AE0     		b	.L67
 954              	.L66:
 957:Generated_Source\PSoC4/ATM_UART.c ****             }
 958:Generated_Source\PSoC4/ATM_UART.c ****             else
 959:Generated_Source\PSoC4/ATM_UART.c ****             {
 960:Generated_Source\PSoC4/ATM_UART.c ****                 if(ATM_UART_txBufferWrite >= ATM_UART_TX_BUFFER_SIZE)
 955              		.loc 1 960 0
 956 002c 0F2A     		cmp	r2, #15
 957 002e 02D9     		bls	.L68
 961:Generated_Source\PSoC4/ATM_UART.c ****                 {
 962:Generated_Source\PSoC4/ATM_UART.c ****                     ATM_UART_txBufferWrite = 0u;
 958              		.loc 1 962 0
 959 0030 0022     		movs	r2, #0
 960 0032 064B     		ldr	r3, .L69
 961 0034 DA71     		strb	r2, [r3, #7]
 962              	.L68:
 963:Generated_Source\PSoC4/ATM_UART.c ****                 }
 964:Generated_Source\PSoC4/ATM_UART.c **** 
 965:Generated_Source\PSoC4/ATM_UART.c ****                 ATM_UART_txBuffer[ATM_UART_txBufferWrite] = txDataByte;
 963              		.loc 1 965 0
 964 0036 054A     		ldr	r2, .L69
ARM GAS  C:\Users\CCPOW_~1\AppData\Local\Temp\ccJeinjc.s 			page 35


 965 0038 D379     		ldrb	r3, [r2, #7]
 966 003a 0749     		ldr	r1, .L69+12
 967 003c CC54     		strb	r4, [r1, r3]
 966:Generated_Source\PSoC4/ATM_UART.c **** 
 967:Generated_Source\PSoC4/ATM_UART.c ****                 /* Add to the software buffer. */
 968:Generated_Source\PSoC4/ATM_UART.c ****                 ATM_UART_txBufferWrite++;
 968              		.loc 1 968 0
 969 003e 0133     		adds	r3, r3, #1
 970 0040 D371     		strb	r3, [r2, #7]
 971              	.L67:
 969:Generated_Source\PSoC4/ATM_UART.c ****             }
 970:Generated_Source\PSoC4/ATM_UART.c **** 
 971:Generated_Source\PSoC4/ATM_UART.c ****             ATM_UART_EnableTxInt();
 972              		.loc 1 971 0
 973 0042 0320     		movs	r0, #3
 974 0044 FFF7FEFF 		bl	CyIntEnable
 975              	.LVL83:
 976              	.L64:
 972:Generated_Source\PSoC4/ATM_UART.c **** 
 973:Generated_Source\PSoC4/ATM_UART.c ****         #else
 974:Generated_Source\PSoC4/ATM_UART.c **** 
 975:Generated_Source\PSoC4/ATM_UART.c ****             /* Add directly to the FIFO. */
 976:Generated_Source\PSoC4/ATM_UART.c ****             ATM_UART_TXDATA_REG = txDataByte;
 977:Generated_Source\PSoC4/ATM_UART.c **** 
 978:Generated_Source\PSoC4/ATM_UART.c ****         #endif /*(ATM_UART_TX_INTERRUPT_ENABLED) */
 979:Generated_Source\PSoC4/ATM_UART.c ****         }
 980:Generated_Source\PSoC4/ATM_UART.c ****     }
 977              		.loc 1 980 0
 978              		@ sp needed
 979 0048 10BD     		pop	{r4, pc}
 980              	.L70:
 981 004a C046     		.align	2
 982              	.L69:
 983 004c 00000000 		.word	.LANCHOR0
 984 0050 62000F40 		.word	1074724962
 985 0054 42000F40 		.word	1074724930
 986 0058 00000000 		.word	ATM_UART_txBuffer
 987              		.cfi_endproc
 988              	.LFE17:
 989              		.size	ATM_UART_WriteTxData, .-ATM_UART_WriteTxData
 990              		.section	.text.ATM_UART_ReadTxStatus,"ax",%progbits
 991              		.align	2
 992              		.global	ATM_UART_ReadTxStatus
 993              		.code	16
 994              		.thumb_func
 995              		.type	ATM_UART_ReadTxStatus, %function
 996              	ATM_UART_ReadTxStatus:
 997              	.LFB18:
 981:Generated_Source\PSoC4/ATM_UART.c **** 
 982:Generated_Source\PSoC4/ATM_UART.c **** 
 983:Generated_Source\PSoC4/ATM_UART.c ****     /*******************************************************************************
 984:Generated_Source\PSoC4/ATM_UART.c ****     * Function Name: ATM_UART_ReadTxStatus
 985:Generated_Source\PSoC4/ATM_UART.c ****     ********************************************************************************
 986:Generated_Source\PSoC4/ATM_UART.c ****     *
 987:Generated_Source\PSoC4/ATM_UART.c ****     * Summary:
 988:Generated_Source\PSoC4/ATM_UART.c ****     *  Reads the status register for the TX portion of the UART.
 989:Generated_Source\PSoC4/ATM_UART.c ****     *
ARM GAS  C:\Users\CCPOW_~1\AppData\Local\Temp\ccJeinjc.s 			page 36


 990:Generated_Source\PSoC4/ATM_UART.c ****     * Parameters:
 991:Generated_Source\PSoC4/ATM_UART.c ****     *  None.
 992:Generated_Source\PSoC4/ATM_UART.c ****     *
 993:Generated_Source\PSoC4/ATM_UART.c ****     * Return:
 994:Generated_Source\PSoC4/ATM_UART.c ****     *  Contents of the status register
 995:Generated_Source\PSoC4/ATM_UART.c ****     *
 996:Generated_Source\PSoC4/ATM_UART.c ****     * Theory:
 997:Generated_Source\PSoC4/ATM_UART.c ****     *  This function reads the TX status register, which is cleared on read.
 998:Generated_Source\PSoC4/ATM_UART.c ****     *  It is up to the user to handle all bits in this return value accordingly,
 999:Generated_Source\PSoC4/ATM_UART.c ****     *  even if the bit was not enabled as an interrupt source the event happened
1000:Generated_Source\PSoC4/ATM_UART.c ****     *  and must be handled accordingly.
1001:Generated_Source\PSoC4/ATM_UART.c ****     *
1002:Generated_Source\PSoC4/ATM_UART.c ****     *******************************************************************************/
1003:Generated_Source\PSoC4/ATM_UART.c ****     uint8 ATM_UART_ReadTxStatus(void) 
1004:Generated_Source\PSoC4/ATM_UART.c ****     {
 998              		.loc 1 1004 0
 999              		.cfi_startproc
 1000              		@ args = 0, pretend = 0, frame = 0
 1001              		@ frame_needed = 0, uses_anonymous_args = 0
 1002              		@ link register save eliminated.
1005:Generated_Source\PSoC4/ATM_UART.c ****         return(ATM_UART_TXSTATUS_REG);
 1003              		.loc 1 1005 0
 1004 0000 014B     		ldr	r3, .L72
 1005 0002 1878     		ldrb	r0, [r3]
 1006 0004 C0B2     		uxtb	r0, r0
1006:Generated_Source\PSoC4/ATM_UART.c ****     }
 1007              		.loc 1 1006 0
 1008              		@ sp needed
 1009 0006 7047     		bx	lr
 1010              	.L73:
 1011              		.align	2
 1012              	.L72:
 1013 0008 62000F40 		.word	1074724962
 1014              		.cfi_endproc
 1015              	.LFE18:
 1016              		.size	ATM_UART_ReadTxStatus, .-ATM_UART_ReadTxStatus
 1017              		.section	.text.ATM_UART_PutChar,"ax",%progbits
 1018              		.align	2
 1019              		.global	ATM_UART_PutChar
 1020              		.code	16
 1021              		.thumb_func
 1022              		.type	ATM_UART_PutChar, %function
 1023              	ATM_UART_PutChar:
 1024              	.LFB19:
1007:Generated_Source\PSoC4/ATM_UART.c **** 
1008:Generated_Source\PSoC4/ATM_UART.c **** 
1009:Generated_Source\PSoC4/ATM_UART.c ****     /*******************************************************************************
1010:Generated_Source\PSoC4/ATM_UART.c ****     * Function Name: ATM_UART_PutChar
1011:Generated_Source\PSoC4/ATM_UART.c ****     ********************************************************************************
1012:Generated_Source\PSoC4/ATM_UART.c ****     *
1013:Generated_Source\PSoC4/ATM_UART.c ****     * Summary:
1014:Generated_Source\PSoC4/ATM_UART.c ****     *  Puts a byte of data into the transmit buffer to be sent when the bus is
1015:Generated_Source\PSoC4/ATM_UART.c ****     *  available. This is a blocking API that waits until the TX buffer has room to
1016:Generated_Source\PSoC4/ATM_UART.c ****     *  hold the data.
1017:Generated_Source\PSoC4/ATM_UART.c ****     *
1018:Generated_Source\PSoC4/ATM_UART.c ****     * Parameters:
1019:Generated_Source\PSoC4/ATM_UART.c ****     *  txDataByte: Byte containing the data to transmit
ARM GAS  C:\Users\CCPOW_~1\AppData\Local\Temp\ccJeinjc.s 			page 37


1020:Generated_Source\PSoC4/ATM_UART.c ****     *
1021:Generated_Source\PSoC4/ATM_UART.c ****     * Return:
1022:Generated_Source\PSoC4/ATM_UART.c ****     *  None.
1023:Generated_Source\PSoC4/ATM_UART.c ****     *
1024:Generated_Source\PSoC4/ATM_UART.c ****     * Global Variables:
1025:Generated_Source\PSoC4/ATM_UART.c ****     *  ATM_UART_txBuffer - RAM buffer pointer for save data for transmission
1026:Generated_Source\PSoC4/ATM_UART.c ****     *  ATM_UART_txBufferWrite - cyclic index for write to txBuffer,
1027:Generated_Source\PSoC4/ATM_UART.c ****     *     checked to identify free space in txBuffer and incremented after each byte
1028:Generated_Source\PSoC4/ATM_UART.c ****     *     saved to buffer.
1029:Generated_Source\PSoC4/ATM_UART.c ****     *  ATM_UART_txBufferRead - cyclic index for read from txBuffer,
1030:Generated_Source\PSoC4/ATM_UART.c ****     *     checked to identify free space in txBuffer.
1031:Generated_Source\PSoC4/ATM_UART.c ****     *  ATM_UART_initVar - checked to identify that the component has been
1032:Generated_Source\PSoC4/ATM_UART.c ****     *     initialized.
1033:Generated_Source\PSoC4/ATM_UART.c ****     *
1034:Generated_Source\PSoC4/ATM_UART.c ****     * Reentrant:
1035:Generated_Source\PSoC4/ATM_UART.c ****     *  No.
1036:Generated_Source\PSoC4/ATM_UART.c ****     *
1037:Generated_Source\PSoC4/ATM_UART.c ****     * Theory:
1038:Generated_Source\PSoC4/ATM_UART.c ****     *  Allows the user to transmit any byte of data in a single transfer
1039:Generated_Source\PSoC4/ATM_UART.c ****     *
1040:Generated_Source\PSoC4/ATM_UART.c ****     *******************************************************************************/
1041:Generated_Source\PSoC4/ATM_UART.c ****     void ATM_UART_PutChar(uint8 txDataByte) 
1042:Generated_Source\PSoC4/ATM_UART.c ****     {
 1025              		.loc 1 1042 0
 1026              		.cfi_startproc
 1027              		@ args = 0, pretend = 0, frame = 0
 1028              		@ frame_needed = 0, uses_anonymous_args = 0
 1029              	.LVL84:
 1030 0000 10B5     		push	{r4, lr}
 1031              		.cfi_def_cfa_offset 8
 1032              		.cfi_offset 4, -8
 1033              		.cfi_offset 14, -4
 1034              	.L77:
1043:Generated_Source\PSoC4/ATM_UART.c ****     #if (ATM_UART_TX_INTERRUPT_ENABLED)
1044:Generated_Source\PSoC4/ATM_UART.c ****         /* The temporary output pointer is used since it takes two instructions
1045:Generated_Source\PSoC4/ATM_UART.c ****         *  to increment with a wrap, and we can't risk doing that with the real
1046:Generated_Source\PSoC4/ATM_UART.c ****         *  pointer and getting an interrupt in between instructions.
1047:Generated_Source\PSoC4/ATM_UART.c ****         */
1048:Generated_Source\PSoC4/ATM_UART.c ****         uint8 locTxBufferWrite;
1049:Generated_Source\PSoC4/ATM_UART.c ****         uint8 locTxBufferRead;
1050:Generated_Source\PSoC4/ATM_UART.c **** 
1051:Generated_Source\PSoC4/ATM_UART.c ****         do
1052:Generated_Source\PSoC4/ATM_UART.c ****         { /* Block if software buffer is full, so we don't overwrite. */
1053:Generated_Source\PSoC4/ATM_UART.c **** 
1054:Generated_Source\PSoC4/ATM_UART.c ****         #if ((ATM_UART_TX_BUFFER_SIZE > ATM_UART_MAX_BYTE_VALUE) && (CY_PSOC3))
1055:Generated_Source\PSoC4/ATM_UART.c ****             /* Disable TX interrupt to protect variables from modification */
1056:Generated_Source\PSoC4/ATM_UART.c ****             ATM_UART_DisableTxInt();
1057:Generated_Source\PSoC4/ATM_UART.c ****         #endif /* (ATM_UART_TX_BUFFER_SIZE > ATM_UART_MAX_BYTE_VALUE) && (CY_PSOC3) */
1058:Generated_Source\PSoC4/ATM_UART.c **** 
1059:Generated_Source\PSoC4/ATM_UART.c ****             locTxBufferWrite = ATM_UART_txBufferWrite;
 1035              		.loc 1 1059 0
 1036 0002 164B     		ldr	r3, .L82
 1037 0004 D979     		ldrb	r1, [r3, #7]
 1038              	.LVL85:
1060:Generated_Source\PSoC4/ATM_UART.c ****             locTxBufferRead  = ATM_UART_txBufferRead;
 1039              		.loc 1 1060 0
 1040 0006 9A79     		ldrb	r2, [r3, #6]
ARM GAS  C:\Users\CCPOW_~1\AppData\Local\Temp\ccJeinjc.s 			page 38


 1041 0008 D2B2     		uxtb	r2, r2
 1042              	.LVL86:
1061:Generated_Source\PSoC4/ATM_UART.c **** 
1062:Generated_Source\PSoC4/ATM_UART.c ****         #if ((ATM_UART_TX_BUFFER_SIZE > ATM_UART_MAX_BYTE_VALUE) && (CY_PSOC3))
1063:Generated_Source\PSoC4/ATM_UART.c ****             /* Enable interrupt to continue transmission */
1064:Generated_Source\PSoC4/ATM_UART.c ****             ATM_UART_EnableTxInt();
1065:Generated_Source\PSoC4/ATM_UART.c ****         #endif /* (ATM_UART_TX_BUFFER_SIZE > ATM_UART_MAX_BYTE_VALUE) && (CY_PSOC3) */
1066:Generated_Source\PSoC4/ATM_UART.c ****         }
1067:Generated_Source\PSoC4/ATM_UART.c ****         while( (locTxBufferWrite < locTxBufferRead) ? (locTxBufferWrite == (locTxBufferRead - 1u)) 
 1043              		.loc 1 1067 0
 1044 000a 9142     		cmp	r1, r2
 1045 000c 05D2     		bcs	.L75
 1046              		.loc 1 1067 0 is_stmt 0 discriminator 1
 1047 000e 531E     		subs	r3, r2, #1
 1048 0010 CB1A     		subs	r3, r1, r3
 1049 0012 5C42     		rsbs	r4, r3, #0
 1050 0014 6341     		adcs	r3, r3, r4
 1051 0016 DBB2     		uxtb	r3, r3
 1052 0018 04E0     		b	.L76
 1053              	.L75:
1068:Generated_Source\PSoC4/ATM_UART.c ****                                 ((locTxBufferWrite - locTxBufferRead) ==
 1054              		.loc 1 1068 0 is_stmt 1 discriminator 2
 1055 001a 8B1A     		subs	r3, r1, r2
1067:Generated_Source\PSoC4/ATM_UART.c ****                                 ((locTxBufferWrite - locTxBufferRead) ==
 1056              		.loc 1 1067 0 discriminator 2
 1057 001c 0F3B     		subs	r3, r3, #15
 1058 001e 5C42     		rsbs	r4, r3, #0
 1059 0020 6341     		adcs	r3, r3, r4
 1060 0022 DBB2     		uxtb	r3, r3
 1061              	.L76:
1069:Generated_Source\PSoC4/ATM_UART.c ****                                 (uint8)(ATM_UART_TX_BUFFER_SIZE - 1u)) );
 1062              		.loc 1 1069 0
 1063 0024 002B     		cmp	r3, #0
 1064 0026 ECD1     		bne	.L77
1070:Generated_Source\PSoC4/ATM_UART.c **** 
1071:Generated_Source\PSoC4/ATM_UART.c ****         if( (locTxBufferRead == locTxBufferWrite) &&
 1065              		.loc 1 1071 0
 1066 0028 9142     		cmp	r1, r2
 1067 002a 06D1     		bne	.L78
1072:Generated_Source\PSoC4/ATM_UART.c ****             ((ATM_UART_TXSTATUS_REG & ATM_UART_TX_STS_FIFO_FULL) == 0u) )
 1068              		.loc 1 1072 0 discriminator 1
 1069 002c 0C4B     		ldr	r3, .L82+4
 1070 002e 1B78     		ldrb	r3, [r3]
1071:Generated_Source\PSoC4/ATM_UART.c ****             ((ATM_UART_TXSTATUS_REG & ATM_UART_TX_STS_FIFO_FULL) == 0u) )
 1071              		.loc 1 1071 0 discriminator 1
 1072 0030 5B07     		lsls	r3, r3, #29
 1073 0032 02D4     		bmi	.L78
1073:Generated_Source\PSoC4/ATM_UART.c ****         {
1074:Generated_Source\PSoC4/ATM_UART.c ****             /* Add directly to the FIFO */
1075:Generated_Source\PSoC4/ATM_UART.c ****             ATM_UART_TXDATA_REG = txDataByte;
 1074              		.loc 1 1075 0
 1075 0034 0B4B     		ldr	r3, .L82+8
 1076 0036 1870     		strb	r0, [r3]
 1077 0038 0EE0     		b	.L74
 1078              	.L78:
1076:Generated_Source\PSoC4/ATM_UART.c ****         }
1077:Generated_Source\PSoC4/ATM_UART.c ****         else
ARM GAS  C:\Users\CCPOW_~1\AppData\Local\Temp\ccJeinjc.s 			page 39


1078:Generated_Source\PSoC4/ATM_UART.c ****         {
1079:Generated_Source\PSoC4/ATM_UART.c ****             if(locTxBufferWrite >= ATM_UART_TX_BUFFER_SIZE)
 1079              		.loc 1 1079 0
 1080 003a 0F29     		cmp	r1, #15
 1081 003c 00D9     		bls	.L80
1080:Generated_Source\PSoC4/ATM_UART.c ****             {
1081:Generated_Source\PSoC4/ATM_UART.c ****                 locTxBufferWrite = 0u;
 1082              		.loc 1 1081 0
 1083 003e 0021     		movs	r1, #0
 1084              	.LVL87:
 1085              	.L80:
1082:Generated_Source\PSoC4/ATM_UART.c ****             }
1083:Generated_Source\PSoC4/ATM_UART.c ****             /* Add to the software buffer. */
1084:Generated_Source\PSoC4/ATM_UART.c ****             ATM_UART_txBuffer[locTxBufferWrite] = txDataByte;
 1086              		.loc 1 1084 0
 1087 0040 094B     		ldr	r3, .L82+12
 1088 0042 5854     		strb	r0, [r3, r1]
1085:Generated_Source\PSoC4/ATM_UART.c ****             locTxBufferWrite++;
 1089              		.loc 1 1085 0
 1090 0044 0131     		adds	r1, r1, #1
 1091              	.LVL88:
1086:Generated_Source\PSoC4/ATM_UART.c **** 
1087:Generated_Source\PSoC4/ATM_UART.c ****             /* Finally, update the real output pointer */
1088:Generated_Source\PSoC4/ATM_UART.c ****         #if ((ATM_UART_TX_BUFFER_SIZE > ATM_UART_MAX_BYTE_VALUE) && (CY_PSOC3))
1089:Generated_Source\PSoC4/ATM_UART.c ****             ATM_UART_DisableTxInt();
1090:Generated_Source\PSoC4/ATM_UART.c ****         #endif /* (ATM_UART_TX_BUFFER_SIZE > ATM_UART_MAX_BYTE_VALUE) && (CY_PSOC3) */
1091:Generated_Source\PSoC4/ATM_UART.c **** 
1092:Generated_Source\PSoC4/ATM_UART.c ****             ATM_UART_txBufferWrite = locTxBufferWrite;
 1092              		.loc 1 1092 0
 1093 0046 054B     		ldr	r3, .L82
 1094 0048 D971     		strb	r1, [r3, #7]
1093:Generated_Source\PSoC4/ATM_UART.c **** 
1094:Generated_Source\PSoC4/ATM_UART.c ****         #if ((ATM_UART_TX_BUFFER_SIZE > ATM_UART_MAX_BYTE_VALUE) && (CY_PSOC3))
1095:Generated_Source\PSoC4/ATM_UART.c ****             ATM_UART_EnableTxInt();
1096:Generated_Source\PSoC4/ATM_UART.c ****         #endif /* (ATM_UART_TX_BUFFER_SIZE > ATM_UART_MAX_BYTE_VALUE) && (CY_PSOC3) */
1097:Generated_Source\PSoC4/ATM_UART.c **** 
1098:Generated_Source\PSoC4/ATM_UART.c ****             if(0u != (ATM_UART_TXSTATUS_REG & ATM_UART_TX_STS_FIFO_EMPTY))
 1095              		.loc 1 1098 0
 1096 004a 054B     		ldr	r3, .L82+4
 1097 004c 1B78     		ldrb	r3, [r3]
 1098 004e 9B07     		lsls	r3, r3, #30
 1099 0050 02D5     		bpl	.L74
1099:Generated_Source\PSoC4/ATM_UART.c ****             {
1100:Generated_Source\PSoC4/ATM_UART.c ****                 /* Trigger TX interrupt to send software buffer */
1101:Generated_Source\PSoC4/ATM_UART.c ****                 ATM_UART_SetPendingTxInt();
 1100              		.loc 1 1101 0
 1101 0052 0320     		movs	r0, #3
 1102              	.LVL89:
 1103 0054 FFF7FEFF 		bl	CyIntSetPending
 1104              	.LVL90:
 1105              	.L74:
1102:Generated_Source\PSoC4/ATM_UART.c ****             }
1103:Generated_Source\PSoC4/ATM_UART.c ****         }
1104:Generated_Source\PSoC4/ATM_UART.c **** 
1105:Generated_Source\PSoC4/ATM_UART.c ****     #else
1106:Generated_Source\PSoC4/ATM_UART.c **** 
1107:Generated_Source\PSoC4/ATM_UART.c ****         while((ATM_UART_TXSTATUS_REG & ATM_UART_TX_STS_FIFO_FULL) != 0u)
ARM GAS  C:\Users\CCPOW_~1\AppData\Local\Temp\ccJeinjc.s 			page 40


1108:Generated_Source\PSoC4/ATM_UART.c ****         {
1109:Generated_Source\PSoC4/ATM_UART.c ****             /* Wait for room in the FIFO */
1110:Generated_Source\PSoC4/ATM_UART.c ****         }
1111:Generated_Source\PSoC4/ATM_UART.c **** 
1112:Generated_Source\PSoC4/ATM_UART.c ****         /* Add directly to the FIFO */
1113:Generated_Source\PSoC4/ATM_UART.c ****         ATM_UART_TXDATA_REG = txDataByte;
1114:Generated_Source\PSoC4/ATM_UART.c **** 
1115:Generated_Source\PSoC4/ATM_UART.c ****     #endif /* ATM_UART_TX_INTERRUPT_ENABLED */
1116:Generated_Source\PSoC4/ATM_UART.c ****     }
 1106              		.loc 1 1116 0
 1107              		@ sp needed
 1108 0058 10BD     		pop	{r4, pc}
 1109              	.L83:
 1110 005a C046     		.align	2
 1111              	.L82:
 1112 005c 00000000 		.word	.LANCHOR0
 1113 0060 62000F40 		.word	1074724962
 1114 0064 42000F40 		.word	1074724930
 1115 0068 00000000 		.word	ATM_UART_txBuffer
 1116              		.cfi_endproc
 1117              	.LFE19:
 1118              		.size	ATM_UART_PutChar, .-ATM_UART_PutChar
 1119              		.section	.text.ATM_UART_PutString,"ax",%progbits
 1120              		.align	2
 1121              		.global	ATM_UART_PutString
 1122              		.code	16
 1123              		.thumb_func
 1124              		.type	ATM_UART_PutString, %function
 1125              	ATM_UART_PutString:
 1126              	.LFB20:
1117:Generated_Source\PSoC4/ATM_UART.c **** 
1118:Generated_Source\PSoC4/ATM_UART.c **** 
1119:Generated_Source\PSoC4/ATM_UART.c ****     /*******************************************************************************
1120:Generated_Source\PSoC4/ATM_UART.c ****     * Function Name: ATM_UART_PutString
1121:Generated_Source\PSoC4/ATM_UART.c ****     ********************************************************************************
1122:Generated_Source\PSoC4/ATM_UART.c ****     *
1123:Generated_Source\PSoC4/ATM_UART.c ****     * Summary:
1124:Generated_Source\PSoC4/ATM_UART.c ****     *  Sends a NULL terminated string to the TX buffer for transmission.
1125:Generated_Source\PSoC4/ATM_UART.c ****     *
1126:Generated_Source\PSoC4/ATM_UART.c ****     * Parameters:
1127:Generated_Source\PSoC4/ATM_UART.c ****     *  string[]: Pointer to the null terminated string array residing in RAM or ROM
1128:Generated_Source\PSoC4/ATM_UART.c ****     *
1129:Generated_Source\PSoC4/ATM_UART.c ****     * Return:
1130:Generated_Source\PSoC4/ATM_UART.c ****     *  None.
1131:Generated_Source\PSoC4/ATM_UART.c ****     *
1132:Generated_Source\PSoC4/ATM_UART.c ****     * Global Variables:
1133:Generated_Source\PSoC4/ATM_UART.c ****     *  ATM_UART_initVar - checked to identify that the component has been
1134:Generated_Source\PSoC4/ATM_UART.c ****     *     initialized.
1135:Generated_Source\PSoC4/ATM_UART.c ****     *
1136:Generated_Source\PSoC4/ATM_UART.c ****     * Reentrant:
1137:Generated_Source\PSoC4/ATM_UART.c ****     *  No.
1138:Generated_Source\PSoC4/ATM_UART.c ****     *
1139:Generated_Source\PSoC4/ATM_UART.c ****     * Theory:
1140:Generated_Source\PSoC4/ATM_UART.c ****     *  If there is not enough memory in the TX buffer for the entire string, this
1141:Generated_Source\PSoC4/ATM_UART.c ****     *  function blocks until the last character of the string is loaded into the
1142:Generated_Source\PSoC4/ATM_UART.c ****     *  TX buffer.
1143:Generated_Source\PSoC4/ATM_UART.c ****     *
ARM GAS  C:\Users\CCPOW_~1\AppData\Local\Temp\ccJeinjc.s 			page 41


1144:Generated_Source\PSoC4/ATM_UART.c ****     *******************************************************************************/
1145:Generated_Source\PSoC4/ATM_UART.c ****     void ATM_UART_PutString(const char8 string[]) 
1146:Generated_Source\PSoC4/ATM_UART.c ****     {
 1127              		.loc 1 1146 0
 1128              		.cfi_startproc
 1129              		@ args = 0, pretend = 0, frame = 0
 1130              		@ frame_needed = 0, uses_anonymous_args = 0
 1131              	.LVL91:
 1132 0000 70B5     		push	{r4, r5, r6, lr}
 1133              		.cfi_def_cfa_offset 16
 1134              		.cfi_offset 4, -16
 1135              		.cfi_offset 5, -12
 1136              		.cfi_offset 6, -8
 1137              		.cfi_offset 14, -4
 1138 0002 0500     		movs	r5, r0
 1139              	.LVL92:
1147:Generated_Source\PSoC4/ATM_UART.c ****         uint16 bufIndex = 0u;
1148:Generated_Source\PSoC4/ATM_UART.c **** 
1149:Generated_Source\PSoC4/ATM_UART.c ****         /* If not Initialized then skip this function */
1150:Generated_Source\PSoC4/ATM_UART.c ****         if(ATM_UART_initVar != 0u)
 1140              		.loc 1 1150 0
 1141 0004 074B     		ldr	r3, .L89
 1142 0006 5B78     		ldrb	r3, [r3, #1]
 1143 0008 002B     		cmp	r3, #0
 1144 000a 05D1     		bne	.L88
 1145 000c 08E0     		b	.L84
 1146              	.LVL93:
 1147              	.L87:
1151:Generated_Source\PSoC4/ATM_UART.c ****         {
1152:Generated_Source\PSoC4/ATM_UART.c ****             /* This is a blocking function, it will not exit until all data is sent */
1153:Generated_Source\PSoC4/ATM_UART.c ****             while(string[bufIndex] != (char8) 0)
1154:Generated_Source\PSoC4/ATM_UART.c ****             {
1155:Generated_Source\PSoC4/ATM_UART.c ****                 ATM_UART_PutChar((uint8)string[bufIndex]);
 1148              		.loc 1 1155 0
 1149 000e FFF7FEFF 		bl	ATM_UART_PutChar
 1150              	.LVL94:
1156:Generated_Source\PSoC4/ATM_UART.c ****                 bufIndex++;
 1151              		.loc 1 1156 0
 1152 0012 0134     		adds	r4, r4, #1
 1153              	.LVL95:
 1154 0014 A4B2     		uxth	r4, r4
 1155              	.LVL96:
 1156 0016 00E0     		b	.L85
 1157              	.LVL97:
 1158              	.L88:
 1159 0018 0024     		movs	r4, #0
 1160              	.LVL98:
 1161              	.L85:
1153:Generated_Source\PSoC4/ATM_UART.c ****             {
 1162              		.loc 1 1153 0
 1163 001a 285D     		ldrb	r0, [r5, r4]
 1164 001c 0028     		cmp	r0, #0
 1165 001e F6D1     		bne	.L87
 1166              	.LVL99:
 1167              	.L84:
1157:Generated_Source\PSoC4/ATM_UART.c ****             }
1158:Generated_Source\PSoC4/ATM_UART.c ****         }
ARM GAS  C:\Users\CCPOW_~1\AppData\Local\Temp\ccJeinjc.s 			page 42


1159:Generated_Source\PSoC4/ATM_UART.c ****     }
 1168              		.loc 1 1159 0
 1169              		@ sp needed
 1170              	.LVL100:
 1171 0020 70BD     		pop	{r4, r5, r6, pc}
 1172              	.L90:
 1173 0022 C046     		.align	2
 1174              	.L89:
 1175 0024 00000000 		.word	.LANCHOR0
 1176              		.cfi_endproc
 1177              	.LFE20:
 1178              		.size	ATM_UART_PutString, .-ATM_UART_PutString
 1179              		.section	.text.ATM_UART_PutArray,"ax",%progbits
 1180              		.align	2
 1181              		.global	ATM_UART_PutArray
 1182              		.code	16
 1183              		.thumb_func
 1184              		.type	ATM_UART_PutArray, %function
 1185              	ATM_UART_PutArray:
 1186              	.LFB21:
1160:Generated_Source\PSoC4/ATM_UART.c **** 
1161:Generated_Source\PSoC4/ATM_UART.c **** 
1162:Generated_Source\PSoC4/ATM_UART.c ****     /*******************************************************************************
1163:Generated_Source\PSoC4/ATM_UART.c ****     * Function Name: ATM_UART_PutArray
1164:Generated_Source\PSoC4/ATM_UART.c ****     ********************************************************************************
1165:Generated_Source\PSoC4/ATM_UART.c ****     *
1166:Generated_Source\PSoC4/ATM_UART.c ****     * Summary:
1167:Generated_Source\PSoC4/ATM_UART.c ****     *  Places N bytes of data from a memory array into the TX buffer for
1168:Generated_Source\PSoC4/ATM_UART.c ****     *  transmission.
1169:Generated_Source\PSoC4/ATM_UART.c ****     *
1170:Generated_Source\PSoC4/ATM_UART.c ****     * Parameters:
1171:Generated_Source\PSoC4/ATM_UART.c ****     *  string[]: Address of the memory array residing in RAM or ROM.
1172:Generated_Source\PSoC4/ATM_UART.c ****     *  byteCount: Number of bytes to be transmitted. The type depends on TX Buffer
1173:Generated_Source\PSoC4/ATM_UART.c ****     *             Size parameter.
1174:Generated_Source\PSoC4/ATM_UART.c ****     *
1175:Generated_Source\PSoC4/ATM_UART.c ****     * Return:
1176:Generated_Source\PSoC4/ATM_UART.c ****     *  None.
1177:Generated_Source\PSoC4/ATM_UART.c ****     *
1178:Generated_Source\PSoC4/ATM_UART.c ****     * Global Variables:
1179:Generated_Source\PSoC4/ATM_UART.c ****     *  ATM_UART_initVar - checked to identify that the component has been
1180:Generated_Source\PSoC4/ATM_UART.c ****     *     initialized.
1181:Generated_Source\PSoC4/ATM_UART.c ****     *
1182:Generated_Source\PSoC4/ATM_UART.c ****     * Reentrant:
1183:Generated_Source\PSoC4/ATM_UART.c ****     *  No.
1184:Generated_Source\PSoC4/ATM_UART.c ****     *
1185:Generated_Source\PSoC4/ATM_UART.c ****     * Theory:
1186:Generated_Source\PSoC4/ATM_UART.c ****     *  If there is not enough memory in the TX buffer for the entire string, this
1187:Generated_Source\PSoC4/ATM_UART.c ****     *  function blocks until the last character of the string is loaded into the
1188:Generated_Source\PSoC4/ATM_UART.c ****     *  TX buffer.
1189:Generated_Source\PSoC4/ATM_UART.c ****     *
1190:Generated_Source\PSoC4/ATM_UART.c ****     *******************************************************************************/
1191:Generated_Source\PSoC4/ATM_UART.c ****     void ATM_UART_PutArray(const uint8 string[], uint8 byteCount)
1192:Generated_Source\PSoC4/ATM_UART.c ****                                                                     
1193:Generated_Source\PSoC4/ATM_UART.c ****     {
 1187              		.loc 1 1193 0
 1188              		.cfi_startproc
 1189              		@ args = 0, pretend = 0, frame = 0
ARM GAS  C:\Users\CCPOW_~1\AppData\Local\Temp\ccJeinjc.s 			page 43


 1190              		@ frame_needed = 0, uses_anonymous_args = 0
 1191              	.LVL101:
 1192 0000 70B5     		push	{r4, r5, r6, lr}
 1193              		.cfi_def_cfa_offset 16
 1194              		.cfi_offset 4, -16
 1195              		.cfi_offset 5, -12
 1196              		.cfi_offset 6, -8
 1197              		.cfi_offset 14, -4
 1198 0002 0600     		movs	r6, r0
 1199 0004 0D00     		movs	r5, r1
 1200              	.LVL102:
1194:Generated_Source\PSoC4/ATM_UART.c ****         uint8 bufIndex = 0u;
1195:Generated_Source\PSoC4/ATM_UART.c **** 
1196:Generated_Source\PSoC4/ATM_UART.c ****         /* If not Initialized then skip this function */
1197:Generated_Source\PSoC4/ATM_UART.c ****         if(ATM_UART_initVar != 0u)
 1201              		.loc 1 1197 0
 1202 0006 074B     		ldr	r3, .L96
 1203 0008 5B78     		ldrb	r3, [r3, #1]
 1204 000a 002B     		cmp	r3, #0
 1205 000c 06D1     		bne	.L95
 1206 000e 08E0     		b	.L91
 1207              	.LVL103:
 1208              	.L94:
1198:Generated_Source\PSoC4/ATM_UART.c ****         {
1199:Generated_Source\PSoC4/ATM_UART.c ****             while(bufIndex < byteCount)
1200:Generated_Source\PSoC4/ATM_UART.c ****             {
1201:Generated_Source\PSoC4/ATM_UART.c ****                 ATM_UART_PutChar(string[bufIndex]);
 1209              		.loc 1 1201 0
 1210 0010 305D     		ldrb	r0, [r6, r4]
 1211 0012 FFF7FEFF 		bl	ATM_UART_PutChar
 1212              	.LVL104:
1202:Generated_Source\PSoC4/ATM_UART.c ****                 bufIndex++;
 1213              		.loc 1 1202 0
 1214 0016 0134     		adds	r4, r4, #1
 1215              	.LVL105:
 1216 0018 E4B2     		uxtb	r4, r4
 1217              	.LVL106:
 1218 001a 00E0     		b	.L92
 1219              	.LVL107:
 1220              	.L95:
 1221 001c 0024     		movs	r4, #0
 1222              	.LVL108:
 1223              	.L92:
1199:Generated_Source\PSoC4/ATM_UART.c ****             {
 1224              		.loc 1 1199 0
 1225 001e AC42     		cmp	r4, r5
 1226 0020 F6D3     		bcc	.L94
 1227              	.LVL109:
 1228              	.L91:
1203:Generated_Source\PSoC4/ATM_UART.c ****             }
1204:Generated_Source\PSoC4/ATM_UART.c ****         }
1205:Generated_Source\PSoC4/ATM_UART.c ****     }
 1229              		.loc 1 1205 0
 1230              		@ sp needed
 1231              	.LVL110:
 1232 0022 70BD     		pop	{r4, r5, r6, pc}
 1233              	.L97:
ARM GAS  C:\Users\CCPOW_~1\AppData\Local\Temp\ccJeinjc.s 			page 44


 1234              		.align	2
 1235              	.L96:
 1236 0024 00000000 		.word	.LANCHOR0
 1237              		.cfi_endproc
 1238              	.LFE21:
 1239              		.size	ATM_UART_PutArray, .-ATM_UART_PutArray
 1240              		.section	.text.ATM_UART_PutCRLF,"ax",%progbits
 1241              		.align	2
 1242              		.global	ATM_UART_PutCRLF
 1243              		.code	16
 1244              		.thumb_func
 1245              		.type	ATM_UART_PutCRLF, %function
 1246              	ATM_UART_PutCRLF:
 1247              	.LFB22:
1206:Generated_Source\PSoC4/ATM_UART.c **** 
1207:Generated_Source\PSoC4/ATM_UART.c **** 
1208:Generated_Source\PSoC4/ATM_UART.c ****     /*******************************************************************************
1209:Generated_Source\PSoC4/ATM_UART.c ****     * Function Name: ATM_UART_PutCRLF
1210:Generated_Source\PSoC4/ATM_UART.c ****     ********************************************************************************
1211:Generated_Source\PSoC4/ATM_UART.c ****     *
1212:Generated_Source\PSoC4/ATM_UART.c ****     * Summary:
1213:Generated_Source\PSoC4/ATM_UART.c ****     *  Writes a byte of data followed by a carriage return (0x0D) and line feed
1214:Generated_Source\PSoC4/ATM_UART.c ****     *  (0x0A) to the transmit buffer.
1215:Generated_Source\PSoC4/ATM_UART.c ****     *
1216:Generated_Source\PSoC4/ATM_UART.c ****     * Parameters:
1217:Generated_Source\PSoC4/ATM_UART.c ****     *  txDataByte: Data byte to transmit before the carriage return and line feed.
1218:Generated_Source\PSoC4/ATM_UART.c ****     *
1219:Generated_Source\PSoC4/ATM_UART.c ****     * Return:
1220:Generated_Source\PSoC4/ATM_UART.c ****     *  None.
1221:Generated_Source\PSoC4/ATM_UART.c ****     *
1222:Generated_Source\PSoC4/ATM_UART.c ****     * Global Variables:
1223:Generated_Source\PSoC4/ATM_UART.c ****     *  ATM_UART_initVar - checked to identify that the component has been
1224:Generated_Source\PSoC4/ATM_UART.c ****     *     initialized.
1225:Generated_Source\PSoC4/ATM_UART.c ****     *
1226:Generated_Source\PSoC4/ATM_UART.c ****     * Reentrant:
1227:Generated_Source\PSoC4/ATM_UART.c ****     *  No.
1228:Generated_Source\PSoC4/ATM_UART.c ****     *
1229:Generated_Source\PSoC4/ATM_UART.c ****     *******************************************************************************/
1230:Generated_Source\PSoC4/ATM_UART.c ****     void ATM_UART_PutCRLF(uint8 txDataByte) 
1231:Generated_Source\PSoC4/ATM_UART.c ****     {
 1248              		.loc 1 1231 0
 1249              		.cfi_startproc
 1250              		@ args = 0, pretend = 0, frame = 0
 1251              		@ frame_needed = 0, uses_anonymous_args = 0
 1252              	.LVL111:
 1253 0000 10B5     		push	{r4, lr}
 1254              		.cfi_def_cfa_offset 8
 1255              		.cfi_offset 4, -8
 1256              		.cfi_offset 14, -4
1232:Generated_Source\PSoC4/ATM_UART.c ****         /* If not Initialized then skip this function */
1233:Generated_Source\PSoC4/ATM_UART.c ****         if(ATM_UART_initVar != 0u)
 1257              		.loc 1 1233 0
 1258 0002 064B     		ldr	r3, .L100
 1259 0004 5B78     		ldrb	r3, [r3, #1]
 1260 0006 002B     		cmp	r3, #0
 1261 0008 07D0     		beq	.L98
1234:Generated_Source\PSoC4/ATM_UART.c ****         {
ARM GAS  C:\Users\CCPOW_~1\AppData\Local\Temp\ccJeinjc.s 			page 45


1235:Generated_Source\PSoC4/ATM_UART.c ****             ATM_UART_PutChar(txDataByte);
 1262              		.loc 1 1235 0
 1263 000a FFF7FEFF 		bl	ATM_UART_PutChar
 1264              	.LVL112:
1236:Generated_Source\PSoC4/ATM_UART.c ****             ATM_UART_PutChar(0x0Du);
 1265              		.loc 1 1236 0
 1266 000e 0D20     		movs	r0, #13
 1267 0010 FFF7FEFF 		bl	ATM_UART_PutChar
 1268              	.LVL113:
1237:Generated_Source\PSoC4/ATM_UART.c ****             ATM_UART_PutChar(0x0Au);
 1269              		.loc 1 1237 0
 1270 0014 0A20     		movs	r0, #10
 1271 0016 FFF7FEFF 		bl	ATM_UART_PutChar
 1272              	.LVL114:
 1273              	.L98:
1238:Generated_Source\PSoC4/ATM_UART.c ****         }
1239:Generated_Source\PSoC4/ATM_UART.c ****     }
 1274              		.loc 1 1239 0
 1275              		@ sp needed
 1276 001a 10BD     		pop	{r4, pc}
 1277              	.L101:
 1278              		.align	2
 1279              	.L100:
 1280 001c 00000000 		.word	.LANCHOR0
 1281              		.cfi_endproc
 1282              	.LFE22:
 1283              		.size	ATM_UART_PutCRLF, .-ATM_UART_PutCRLF
 1284              		.section	.text.ATM_UART_GetTxBufferSize,"ax",%progbits
 1285              		.align	2
 1286              		.global	ATM_UART_GetTxBufferSize
 1287              		.code	16
 1288              		.thumb_func
 1289              		.type	ATM_UART_GetTxBufferSize, %function
 1290              	ATM_UART_GetTxBufferSize:
 1291              	.LFB23:
1240:Generated_Source\PSoC4/ATM_UART.c **** 
1241:Generated_Source\PSoC4/ATM_UART.c **** 
1242:Generated_Source\PSoC4/ATM_UART.c ****     /*******************************************************************************
1243:Generated_Source\PSoC4/ATM_UART.c ****     * Function Name: ATM_UART_GetTxBufferSize
1244:Generated_Source\PSoC4/ATM_UART.c ****     ********************************************************************************
1245:Generated_Source\PSoC4/ATM_UART.c ****     *
1246:Generated_Source\PSoC4/ATM_UART.c ****     * Summary:
1247:Generated_Source\PSoC4/ATM_UART.c ****     *  Returns the number of bytes in the TX buffer which are waiting to be 
1248:Generated_Source\PSoC4/ATM_UART.c ****     *  transmitted.
1249:Generated_Source\PSoC4/ATM_UART.c ****     *  * TX software buffer is disabled (TX Buffer Size parameter is equal to 4): 
1250:Generated_Source\PSoC4/ATM_UART.c ****     *    returns 0 for empty TX FIFO, 1 for not full TX FIFO or 4 for full TX FIFO.
1251:Generated_Source\PSoC4/ATM_UART.c ****     *  * TX software buffer is enabled: returns the number of bytes in the TX 
1252:Generated_Source\PSoC4/ATM_UART.c ****     *    software buffer which are waiting to be transmitted. Bytes available in the
1253:Generated_Source\PSoC4/ATM_UART.c ****     *    TX FIFO do not count.
1254:Generated_Source\PSoC4/ATM_UART.c ****     *
1255:Generated_Source\PSoC4/ATM_UART.c ****     * Parameters:
1256:Generated_Source\PSoC4/ATM_UART.c ****     *  None.
1257:Generated_Source\PSoC4/ATM_UART.c ****     *
1258:Generated_Source\PSoC4/ATM_UART.c ****     * Return:
1259:Generated_Source\PSoC4/ATM_UART.c ****     *  Number of bytes used in the TX buffer. Return value type depends on the TX 
1260:Generated_Source\PSoC4/ATM_UART.c ****     *  Buffer Size parameter.
1261:Generated_Source\PSoC4/ATM_UART.c ****     *
ARM GAS  C:\Users\CCPOW_~1\AppData\Local\Temp\ccJeinjc.s 			page 46


1262:Generated_Source\PSoC4/ATM_UART.c ****     * Global Variables:
1263:Generated_Source\PSoC4/ATM_UART.c ****     *  ATM_UART_txBufferWrite - used to calculate left space.
1264:Generated_Source\PSoC4/ATM_UART.c ****     *  ATM_UART_txBufferRead - used to calculate left space.
1265:Generated_Source\PSoC4/ATM_UART.c ****     *
1266:Generated_Source\PSoC4/ATM_UART.c ****     * Reentrant:
1267:Generated_Source\PSoC4/ATM_UART.c ****     *  No.
1268:Generated_Source\PSoC4/ATM_UART.c ****     *
1269:Generated_Source\PSoC4/ATM_UART.c ****     * Theory:
1270:Generated_Source\PSoC4/ATM_UART.c ****     *  Allows the user to find out how full the TX Buffer is.
1271:Generated_Source\PSoC4/ATM_UART.c ****     *
1272:Generated_Source\PSoC4/ATM_UART.c ****     *******************************************************************************/
1273:Generated_Source\PSoC4/ATM_UART.c ****     uint8 ATM_UART_GetTxBufferSize(void)
1274:Generated_Source\PSoC4/ATM_UART.c ****                                                             
1275:Generated_Source\PSoC4/ATM_UART.c ****     {
 1292              		.loc 1 1275 0
 1293              		.cfi_startproc
 1294              		@ args = 0, pretend = 0, frame = 0
 1295              		@ frame_needed = 0, uses_anonymous_args = 0
 1296 0000 10B5     		push	{r4, lr}
 1297              		.cfi_def_cfa_offset 8
 1298              		.cfi_offset 4, -8
 1299              		.cfi_offset 14, -4
1276:Generated_Source\PSoC4/ATM_UART.c ****         uint8 size;
1277:Generated_Source\PSoC4/ATM_UART.c **** 
1278:Generated_Source\PSoC4/ATM_UART.c ****     #if (ATM_UART_TX_INTERRUPT_ENABLED)
1279:Generated_Source\PSoC4/ATM_UART.c **** 
1280:Generated_Source\PSoC4/ATM_UART.c ****         /* Protect variables that could change on interrupt. */
1281:Generated_Source\PSoC4/ATM_UART.c ****         ATM_UART_DisableTxInt();
 1300              		.loc 1 1281 0
 1301 0002 0320     		movs	r0, #3
 1302 0004 FFF7FEFF 		bl	CyIntDisable
 1303              	.LVL115:
1282:Generated_Source\PSoC4/ATM_UART.c **** 
1283:Generated_Source\PSoC4/ATM_UART.c ****         if(ATM_UART_txBufferRead == ATM_UART_txBufferWrite)
 1304              		.loc 1 1283 0
 1305 0008 0D4B     		ldr	r3, .L106
 1306 000a 9A79     		ldrb	r2, [r3, #6]
 1307 000c D2B2     		uxtb	r2, r2
 1308 000e DB79     		ldrb	r3, [r3, #7]
 1309 0010 9A42     		cmp	r2, r3
 1310 0012 0FD0     		beq	.L105
1284:Generated_Source\PSoC4/ATM_UART.c ****         {
1285:Generated_Source\PSoC4/ATM_UART.c ****             size = 0u;
1286:Generated_Source\PSoC4/ATM_UART.c ****         }
1287:Generated_Source\PSoC4/ATM_UART.c ****         else if(ATM_UART_txBufferRead < ATM_UART_txBufferWrite)
 1311              		.loc 1 1287 0
 1312 0014 0A4A     		ldr	r2, .L106
 1313 0016 9279     		ldrb	r2, [r2, #6]
 1314 0018 D2B2     		uxtb	r2, r2
 1315 001a 9342     		cmp	r3, r2
 1316 001c 04D9     		bls	.L104
1288:Generated_Source\PSoC4/ATM_UART.c ****         {
1289:Generated_Source\PSoC4/ATM_UART.c ****             size = (ATM_UART_txBufferWrite - ATM_UART_txBufferRead);
 1317              		.loc 1 1289 0
 1318 001e 084A     		ldr	r2, .L106
 1319 0020 9479     		ldrb	r4, [r2, #6]
 1320 0022 1B1B     		subs	r3, r3, r4
ARM GAS  C:\Users\CCPOW_~1\AppData\Local\Temp\ccJeinjc.s 			page 47


 1321 0024 DCB2     		uxtb	r4, r3
 1322              	.LVL116:
 1323 0026 06E0     		b	.L103
 1324              	.LVL117:
 1325              	.L104:
1290:Generated_Source\PSoC4/ATM_UART.c ****         }
1291:Generated_Source\PSoC4/ATM_UART.c ****         else
1292:Generated_Source\PSoC4/ATM_UART.c ****         {
1293:Generated_Source\PSoC4/ATM_UART.c ****             size = (ATM_UART_TX_BUFFER_SIZE - ATM_UART_txBufferRead) +
 1326              		.loc 1 1293 0
 1327 0028 054A     		ldr	r2, .L106
 1328 002a 9479     		ldrb	r4, [r2, #6]
 1329 002c 1C1B     		subs	r4, r3, r4
 1330 002e 1034     		adds	r4, r4, #16
 1331 0030 E4B2     		uxtb	r4, r4
 1332              	.LVL118:
 1333 0032 00E0     		b	.L103
 1334              	.LVL119:
 1335              	.L105:
1285:Generated_Source\PSoC4/ATM_UART.c ****         }
 1336              		.loc 1 1285 0
 1337 0034 0024     		movs	r4, #0
 1338              	.L103:
 1339              	.LVL120:
1294:Generated_Source\PSoC4/ATM_UART.c ****                     ATM_UART_txBufferWrite;
1295:Generated_Source\PSoC4/ATM_UART.c ****         }
1296:Generated_Source\PSoC4/ATM_UART.c **** 
1297:Generated_Source\PSoC4/ATM_UART.c ****         ATM_UART_EnableTxInt();
 1340              		.loc 1 1297 0
 1341 0036 0320     		movs	r0, #3
 1342 0038 FFF7FEFF 		bl	CyIntEnable
 1343              	.LVL121:
1298:Generated_Source\PSoC4/ATM_UART.c **** 
1299:Generated_Source\PSoC4/ATM_UART.c ****     #else
1300:Generated_Source\PSoC4/ATM_UART.c **** 
1301:Generated_Source\PSoC4/ATM_UART.c ****         size = ATM_UART_TXSTATUS_REG;
1302:Generated_Source\PSoC4/ATM_UART.c **** 
1303:Generated_Source\PSoC4/ATM_UART.c ****         /* Is the fifo is full. */
1304:Generated_Source\PSoC4/ATM_UART.c ****         if((size & ATM_UART_TX_STS_FIFO_FULL) != 0u)
1305:Generated_Source\PSoC4/ATM_UART.c ****         {
1306:Generated_Source\PSoC4/ATM_UART.c ****             size = ATM_UART_FIFO_LENGTH;
1307:Generated_Source\PSoC4/ATM_UART.c ****         }
1308:Generated_Source\PSoC4/ATM_UART.c ****         else if((size & ATM_UART_TX_STS_FIFO_EMPTY) != 0u)
1309:Generated_Source\PSoC4/ATM_UART.c ****         {
1310:Generated_Source\PSoC4/ATM_UART.c ****             size = 0u;
1311:Generated_Source\PSoC4/ATM_UART.c ****         }
1312:Generated_Source\PSoC4/ATM_UART.c ****         else
1313:Generated_Source\PSoC4/ATM_UART.c ****         {
1314:Generated_Source\PSoC4/ATM_UART.c ****             /* We only know there is data in the fifo. */
1315:Generated_Source\PSoC4/ATM_UART.c ****             size = 1u;
1316:Generated_Source\PSoC4/ATM_UART.c ****         }
1317:Generated_Source\PSoC4/ATM_UART.c **** 
1318:Generated_Source\PSoC4/ATM_UART.c ****     #endif /* (ATM_UART_TX_INTERRUPT_ENABLED) */
1319:Generated_Source\PSoC4/ATM_UART.c **** 
1320:Generated_Source\PSoC4/ATM_UART.c ****     return(size);
1321:Generated_Source\PSoC4/ATM_UART.c ****     }
 1344              		.loc 1 1321 0
ARM GAS  C:\Users\CCPOW_~1\AppData\Local\Temp\ccJeinjc.s 			page 48


 1345 003c 2000     		movs	r0, r4
 1346              		@ sp needed
 1347              	.LVL122:
 1348 003e 10BD     		pop	{r4, pc}
 1349              	.L107:
 1350              		.align	2
 1351              	.L106:
 1352 0040 00000000 		.word	.LANCHOR0
 1353              		.cfi_endproc
 1354              	.LFE23:
 1355              		.size	ATM_UART_GetTxBufferSize, .-ATM_UART_GetTxBufferSize
 1356              		.section	.text.ATM_UART_ClearTxBuffer,"ax",%progbits
 1357              		.align	2
 1358              		.global	ATM_UART_ClearTxBuffer
 1359              		.code	16
 1360              		.thumb_func
 1361              		.type	ATM_UART_ClearTxBuffer, %function
 1362              	ATM_UART_ClearTxBuffer:
 1363              	.LFB24:
1322:Generated_Source\PSoC4/ATM_UART.c **** 
1323:Generated_Source\PSoC4/ATM_UART.c **** 
1324:Generated_Source\PSoC4/ATM_UART.c ****     /*******************************************************************************
1325:Generated_Source\PSoC4/ATM_UART.c ****     * Function Name: ATM_UART_ClearTxBuffer
1326:Generated_Source\PSoC4/ATM_UART.c ****     ********************************************************************************
1327:Generated_Source\PSoC4/ATM_UART.c ****     *
1328:Generated_Source\PSoC4/ATM_UART.c ****     * Summary:
1329:Generated_Source\PSoC4/ATM_UART.c ****     *  Clears all data from the TX buffer and hardware TX FIFO.
1330:Generated_Source\PSoC4/ATM_UART.c ****     *
1331:Generated_Source\PSoC4/ATM_UART.c ****     * Parameters:
1332:Generated_Source\PSoC4/ATM_UART.c ****     *  None.
1333:Generated_Source\PSoC4/ATM_UART.c ****     *
1334:Generated_Source\PSoC4/ATM_UART.c ****     * Return:
1335:Generated_Source\PSoC4/ATM_UART.c ****     *  None.
1336:Generated_Source\PSoC4/ATM_UART.c ****     *
1337:Generated_Source\PSoC4/ATM_UART.c ****     * Global Variables:
1338:Generated_Source\PSoC4/ATM_UART.c ****     *  ATM_UART_txBufferWrite - cleared to zero.
1339:Generated_Source\PSoC4/ATM_UART.c ****     *  ATM_UART_txBufferRead - cleared to zero.
1340:Generated_Source\PSoC4/ATM_UART.c ****     *
1341:Generated_Source\PSoC4/ATM_UART.c ****     * Reentrant:
1342:Generated_Source\PSoC4/ATM_UART.c ****     *  No.
1343:Generated_Source\PSoC4/ATM_UART.c ****     *
1344:Generated_Source\PSoC4/ATM_UART.c ****     * Theory:
1345:Generated_Source\PSoC4/ATM_UART.c ****     *  Setting the pointers to zero makes the system believe there is no data to
1346:Generated_Source\PSoC4/ATM_UART.c ****     *  read and writing will resume at address 0 overwriting any data that may have
1347:Generated_Source\PSoC4/ATM_UART.c ****     *  remained in the RAM.
1348:Generated_Source\PSoC4/ATM_UART.c ****     *
1349:Generated_Source\PSoC4/ATM_UART.c ****     * Side Effects:
1350:Generated_Source\PSoC4/ATM_UART.c ****     *  Data waiting in the transmit buffer is not sent; a byte that is currently
1351:Generated_Source\PSoC4/ATM_UART.c ****     *  transmitting finishes transmitting.
1352:Generated_Source\PSoC4/ATM_UART.c ****     *
1353:Generated_Source\PSoC4/ATM_UART.c ****     *******************************************************************************/
1354:Generated_Source\PSoC4/ATM_UART.c ****     void ATM_UART_ClearTxBuffer(void) 
1355:Generated_Source\PSoC4/ATM_UART.c ****     {
 1364              		.loc 1 1355 0
 1365              		.cfi_startproc
 1366              		@ args = 0, pretend = 0, frame = 0
 1367              		@ frame_needed = 0, uses_anonymous_args = 0
ARM GAS  C:\Users\CCPOW_~1\AppData\Local\Temp\ccJeinjc.s 			page 49


 1368 0000 10B5     		push	{r4, lr}
 1369              		.cfi_def_cfa_offset 8
 1370              		.cfi_offset 4, -8
 1371              		.cfi_offset 14, -4
1356:Generated_Source\PSoC4/ATM_UART.c ****         uint8 enableInterrupts;
1357:Generated_Source\PSoC4/ATM_UART.c **** 
1358:Generated_Source\PSoC4/ATM_UART.c ****         enableInterrupts = CyEnterCriticalSection();
 1372              		.loc 1 1358 0
 1373 0002 FFF7FEFF 		bl	CyEnterCriticalSection
 1374              	.LVL123:
1359:Generated_Source\PSoC4/ATM_UART.c ****         /* Clear the HW FIFO */
1360:Generated_Source\PSoC4/ATM_UART.c ****         ATM_UART_TXDATA_AUX_CTL_REG |= (uint8)  ATM_UART_TX_FIFO_CLR;
 1375              		.loc 1 1360 0
 1376 0006 0B4A     		ldr	r2, .L109
 1377 0008 1178     		ldrb	r1, [r2]
 1378 000a 0123     		movs	r3, #1
 1379 000c 0B43     		orrs	r3, r1
 1380 000e DBB2     		uxtb	r3, r3
 1381 0010 1370     		strb	r3, [r2]
1361:Generated_Source\PSoC4/ATM_UART.c ****         ATM_UART_TXDATA_AUX_CTL_REG &= (uint8) ~ATM_UART_TX_FIFO_CLR;
 1382              		.loc 1 1361 0
 1383 0012 1378     		ldrb	r3, [r2]
 1384 0014 0121     		movs	r1, #1
 1385 0016 8B43     		bics	r3, r1
 1386 0018 1370     		strb	r3, [r2]
1362:Generated_Source\PSoC4/ATM_UART.c ****         CyExitCriticalSection(enableInterrupts);
 1387              		.loc 1 1362 0
 1388 001a FFF7FEFF 		bl	CyExitCriticalSection
 1389              	.LVL124:
1363:Generated_Source\PSoC4/ATM_UART.c **** 
1364:Generated_Source\PSoC4/ATM_UART.c ****     #if (ATM_UART_TX_INTERRUPT_ENABLED)
1365:Generated_Source\PSoC4/ATM_UART.c **** 
1366:Generated_Source\PSoC4/ATM_UART.c ****         /* Protect variables that could change on interrupt. */
1367:Generated_Source\PSoC4/ATM_UART.c ****         ATM_UART_DisableTxInt();
 1390              		.loc 1 1367 0
 1391 001e 0320     		movs	r0, #3
 1392 0020 FFF7FEFF 		bl	CyIntDisable
 1393              	.LVL125:
1368:Generated_Source\PSoC4/ATM_UART.c **** 
1369:Generated_Source\PSoC4/ATM_UART.c ****         ATM_UART_txBufferRead = 0u;
 1394              		.loc 1 1369 0
 1395 0024 044B     		ldr	r3, .L109+4
 1396 0026 0022     		movs	r2, #0
 1397 0028 9A71     		strb	r2, [r3, #6]
1370:Generated_Source\PSoC4/ATM_UART.c ****         ATM_UART_txBufferWrite = 0u;
 1398              		.loc 1 1370 0
 1399 002a DA71     		strb	r2, [r3, #7]
1371:Generated_Source\PSoC4/ATM_UART.c **** 
1372:Generated_Source\PSoC4/ATM_UART.c ****         /* Enable Tx interrupt. */
1373:Generated_Source\PSoC4/ATM_UART.c ****         ATM_UART_EnableTxInt();
 1400              		.loc 1 1373 0
 1401 002c 0320     		movs	r0, #3
 1402 002e FFF7FEFF 		bl	CyIntEnable
 1403              	.LVL126:
1374:Generated_Source\PSoC4/ATM_UART.c **** 
1375:Generated_Source\PSoC4/ATM_UART.c ****     #endif /* (ATM_UART_TX_INTERRUPT_ENABLED) */
1376:Generated_Source\PSoC4/ATM_UART.c ****     }
ARM GAS  C:\Users\CCPOW_~1\AppData\Local\Temp\ccJeinjc.s 			page 50


 1404              		.loc 1 1376 0
 1405              		@ sp needed
 1406 0032 10BD     		pop	{r4, pc}
 1407              	.L110:
 1408              		.align	2
 1409              	.L109:
 1410 0034 92000F40 		.word	1074725010
 1411 0038 00000000 		.word	.LANCHOR0
 1412              		.cfi_endproc
 1413              	.LFE24:
 1414              		.size	ATM_UART_ClearTxBuffer, .-ATM_UART_ClearTxBuffer
 1415              		.section	.text.ATM_UART_SendBreak,"ax",%progbits
 1416              		.align	2
 1417              		.global	ATM_UART_SendBreak
 1418              		.code	16
 1419              		.thumb_func
 1420              		.type	ATM_UART_SendBreak, %function
 1421              	ATM_UART_SendBreak:
 1422              	.LFB25:
1377:Generated_Source\PSoC4/ATM_UART.c **** 
1378:Generated_Source\PSoC4/ATM_UART.c **** 
1379:Generated_Source\PSoC4/ATM_UART.c ****     /*******************************************************************************
1380:Generated_Source\PSoC4/ATM_UART.c ****     * Function Name: ATM_UART_SendBreak
1381:Generated_Source\PSoC4/ATM_UART.c ****     ********************************************************************************
1382:Generated_Source\PSoC4/ATM_UART.c ****     *
1383:Generated_Source\PSoC4/ATM_UART.c ****     * Summary:
1384:Generated_Source\PSoC4/ATM_UART.c ****     *  Transmits a break signal on the bus.
1385:Generated_Source\PSoC4/ATM_UART.c ****     *
1386:Generated_Source\PSoC4/ATM_UART.c ****     * Parameters:
1387:Generated_Source\PSoC4/ATM_UART.c ****     *  uint8 retMode:  Send Break return mode. See the following table for options.
1388:Generated_Source\PSoC4/ATM_UART.c ****     *   ATM_UART_SEND_BREAK - Initialize registers for break, send the Break
1389:Generated_Source\PSoC4/ATM_UART.c ****     *       signal and return immediately.
1390:Generated_Source\PSoC4/ATM_UART.c ****     *   ATM_UART_WAIT_FOR_COMPLETE_REINIT - Wait until break transmission is
1391:Generated_Source\PSoC4/ATM_UART.c ****     *       complete, reinitialize registers to normal transmission mode then return
1392:Generated_Source\PSoC4/ATM_UART.c ****     *   ATM_UART_REINIT - Reinitialize registers to normal transmission mode
1393:Generated_Source\PSoC4/ATM_UART.c ****     *       then return.
1394:Generated_Source\PSoC4/ATM_UART.c ****     *   ATM_UART_SEND_WAIT_REINIT - Performs both options: 
1395:Generated_Source\PSoC4/ATM_UART.c ****     *      ATM_UART_SEND_BREAK and ATM_UART_WAIT_FOR_COMPLETE_REINIT.
1396:Generated_Source\PSoC4/ATM_UART.c ****     *      This option is recommended for most cases.
1397:Generated_Source\PSoC4/ATM_UART.c ****     *
1398:Generated_Source\PSoC4/ATM_UART.c ****     * Return:
1399:Generated_Source\PSoC4/ATM_UART.c ****     *  None.
1400:Generated_Source\PSoC4/ATM_UART.c ****     *
1401:Generated_Source\PSoC4/ATM_UART.c ****     * Global Variables:
1402:Generated_Source\PSoC4/ATM_UART.c ****     *  ATM_UART_initVar - checked to identify that the component has been
1403:Generated_Source\PSoC4/ATM_UART.c ****     *     initialized.
1404:Generated_Source\PSoC4/ATM_UART.c ****     *  txPeriod - static variable, used for keeping TX period configuration.
1405:Generated_Source\PSoC4/ATM_UART.c ****     *
1406:Generated_Source\PSoC4/ATM_UART.c ****     * Reentrant:
1407:Generated_Source\PSoC4/ATM_UART.c ****     *  No.
1408:Generated_Source\PSoC4/ATM_UART.c ****     *
1409:Generated_Source\PSoC4/ATM_UART.c ****     * Theory:
1410:Generated_Source\PSoC4/ATM_UART.c ****     *  SendBreak function initializes registers to send 13-bit break signal. It is
1411:Generated_Source\PSoC4/ATM_UART.c ****     *  important to return the registers configuration to normal for continue 8-bit
1412:Generated_Source\PSoC4/ATM_UART.c ****     *  operation.
1413:Generated_Source\PSoC4/ATM_UART.c ****     *  There are 3 variants for this API usage:
1414:Generated_Source\PSoC4/ATM_UART.c ****     *  1) SendBreak(3) - function will send the Break signal and take care on the
ARM GAS  C:\Users\CCPOW_~1\AppData\Local\Temp\ccJeinjc.s 			page 51


1415:Generated_Source\PSoC4/ATM_UART.c ****     *     configuration returning. Function will block CPU until transmission
1416:Generated_Source\PSoC4/ATM_UART.c ****     *     complete.
1417:Generated_Source\PSoC4/ATM_UART.c ****     *  2) User may want to use blocking time if UART configured to the low speed
1418:Generated_Source\PSoC4/ATM_UART.c ****     *     operation
1419:Generated_Source\PSoC4/ATM_UART.c ****     *     Example for this case:
1420:Generated_Source\PSoC4/ATM_UART.c ****     *     SendBreak(0);     - initialize Break signal transmission
1421:Generated_Source\PSoC4/ATM_UART.c ****     *         Add your code here to use CPU time
1422:Generated_Source\PSoC4/ATM_UART.c ****     *     SendBreak(1);     - complete Break operation
1423:Generated_Source\PSoC4/ATM_UART.c ****     *  3) Same to 2) but user may want to initialize and use the interrupt to
1424:Generated_Source\PSoC4/ATM_UART.c ****     *     complete break operation.
1425:Generated_Source\PSoC4/ATM_UART.c ****     *     Example for this case:
1426:Generated_Source\PSoC4/ATM_UART.c ****     *     Initialize TX interrupt with "TX - On TX Complete" parameter
1427:Generated_Source\PSoC4/ATM_UART.c ****     *     SendBreak(0);     - initialize Break signal transmission
1428:Generated_Source\PSoC4/ATM_UART.c ****     *         Add your code here to use CPU time
1429:Generated_Source\PSoC4/ATM_UART.c ****     *     When interrupt appear with ATM_UART_TX_STS_COMPLETE status:
1430:Generated_Source\PSoC4/ATM_UART.c ****     *     SendBreak(2);     - complete Break operation
1431:Generated_Source\PSoC4/ATM_UART.c ****     *
1432:Generated_Source\PSoC4/ATM_UART.c ****     * Side Effects:
1433:Generated_Source\PSoC4/ATM_UART.c ****     *  The ATM_UART_SendBreak() function initializes registers to send a
1434:Generated_Source\PSoC4/ATM_UART.c ****     *  break signal.
1435:Generated_Source\PSoC4/ATM_UART.c ****     *  Break signal length depends on the break signal bits configuration.
1436:Generated_Source\PSoC4/ATM_UART.c ****     *  The register configuration should be reinitialized before normal 8-bit
1437:Generated_Source\PSoC4/ATM_UART.c ****     *  communication can continue.
1438:Generated_Source\PSoC4/ATM_UART.c ****     *
1439:Generated_Source\PSoC4/ATM_UART.c ****     *******************************************************************************/
1440:Generated_Source\PSoC4/ATM_UART.c ****     void ATM_UART_SendBreak(uint8 retMode) 
1441:Generated_Source\PSoC4/ATM_UART.c ****     {
 1423              		.loc 1 1441 0
 1424              		.cfi_startproc
 1425              		@ args = 0, pretend = 0, frame = 0
 1426              		@ frame_needed = 0, uses_anonymous_args = 0
 1427              		@ link register save eliminated.
 1428              	.LVL127:
1442:Generated_Source\PSoC4/ATM_UART.c **** 
1443:Generated_Source\PSoC4/ATM_UART.c ****         /* If not Initialized then skip this function*/
1444:Generated_Source\PSoC4/ATM_UART.c ****         if(ATM_UART_initVar != 0u)
 1429              		.loc 1 1444 0
 1430 0000 134B     		ldr	r3, .L118
 1431 0002 5B78     		ldrb	r3, [r3, #1]
 1432 0004 002B     		cmp	r3, #0
 1433 0006 21D0     		beq	.L111
 1434              	.LBB2:
1445:Generated_Source\PSoC4/ATM_UART.c ****         {
1446:Generated_Source\PSoC4/ATM_UART.c ****             /* Set the Counter to 13-bits and transmit a 00 byte */
1447:Generated_Source\PSoC4/ATM_UART.c ****             /* When that is done then reset the counter value back */
1448:Generated_Source\PSoC4/ATM_UART.c ****             uint8 tmpStat;
1449:Generated_Source\PSoC4/ATM_UART.c **** 
1450:Generated_Source\PSoC4/ATM_UART.c ****         #if(ATM_UART_HD_ENABLED) /* Half Duplex mode*/
1451:Generated_Source\PSoC4/ATM_UART.c **** 
1452:Generated_Source\PSoC4/ATM_UART.c ****             if( (retMode == ATM_UART_SEND_BREAK) ||
1453:Generated_Source\PSoC4/ATM_UART.c ****                 (retMode == ATM_UART_SEND_WAIT_REINIT ) )
1454:Generated_Source\PSoC4/ATM_UART.c ****             {
1455:Generated_Source\PSoC4/ATM_UART.c ****                 /* CTRL_HD_SEND_BREAK - sends break bits in HD mode */
1456:Generated_Source\PSoC4/ATM_UART.c ****                 ATM_UART_WriteControlRegister(ATM_UART_ReadControlRegister() |
1457:Generated_Source\PSoC4/ATM_UART.c ****                                                       ATM_UART_CTRL_HD_SEND_BREAK);
1458:Generated_Source\PSoC4/ATM_UART.c ****                 /* Send zeros */
1459:Generated_Source\PSoC4/ATM_UART.c ****                 ATM_UART_TXDATA_REG = 0u;
ARM GAS  C:\Users\CCPOW_~1\AppData\Local\Temp\ccJeinjc.s 			page 52


1460:Generated_Source\PSoC4/ATM_UART.c **** 
1461:Generated_Source\PSoC4/ATM_UART.c ****                 do /* Wait until transmit starts */
1462:Generated_Source\PSoC4/ATM_UART.c ****                 {
1463:Generated_Source\PSoC4/ATM_UART.c ****                     tmpStat = ATM_UART_TXSTATUS_REG;
1464:Generated_Source\PSoC4/ATM_UART.c ****                 }
1465:Generated_Source\PSoC4/ATM_UART.c ****                 while((tmpStat & ATM_UART_TX_STS_FIFO_EMPTY) != 0u);
1466:Generated_Source\PSoC4/ATM_UART.c ****             }
1467:Generated_Source\PSoC4/ATM_UART.c **** 
1468:Generated_Source\PSoC4/ATM_UART.c ****             if( (retMode == ATM_UART_WAIT_FOR_COMPLETE_REINIT) ||
1469:Generated_Source\PSoC4/ATM_UART.c ****                 (retMode == ATM_UART_SEND_WAIT_REINIT) )
1470:Generated_Source\PSoC4/ATM_UART.c ****             {
1471:Generated_Source\PSoC4/ATM_UART.c ****                 do /* Wait until transmit complete */
1472:Generated_Source\PSoC4/ATM_UART.c ****                 {
1473:Generated_Source\PSoC4/ATM_UART.c ****                     tmpStat = ATM_UART_TXSTATUS_REG;
1474:Generated_Source\PSoC4/ATM_UART.c ****                 }
1475:Generated_Source\PSoC4/ATM_UART.c ****                 while(((uint8)~tmpStat & ATM_UART_TX_STS_COMPLETE) != 0u);
1476:Generated_Source\PSoC4/ATM_UART.c ****             }
1477:Generated_Source\PSoC4/ATM_UART.c **** 
1478:Generated_Source\PSoC4/ATM_UART.c ****             if( (retMode == ATM_UART_WAIT_FOR_COMPLETE_REINIT) ||
1479:Generated_Source\PSoC4/ATM_UART.c ****                 (retMode == ATM_UART_REINIT) ||
1480:Generated_Source\PSoC4/ATM_UART.c ****                 (retMode == ATM_UART_SEND_WAIT_REINIT) )
1481:Generated_Source\PSoC4/ATM_UART.c ****             {
1482:Generated_Source\PSoC4/ATM_UART.c ****                 ATM_UART_WriteControlRegister(ATM_UART_ReadControlRegister() &
1483:Generated_Source\PSoC4/ATM_UART.c ****                                               (uint8)~ATM_UART_CTRL_HD_SEND_BREAK);
1484:Generated_Source\PSoC4/ATM_UART.c ****             }
1485:Generated_Source\PSoC4/ATM_UART.c **** 
1486:Generated_Source\PSoC4/ATM_UART.c ****         #else /* ATM_UART_HD_ENABLED Full Duplex mode */
1487:Generated_Source\PSoC4/ATM_UART.c **** 
1488:Generated_Source\PSoC4/ATM_UART.c ****             static uint8 txPeriod;
1489:Generated_Source\PSoC4/ATM_UART.c **** 
1490:Generated_Source\PSoC4/ATM_UART.c ****             if( (retMode == ATM_UART_SEND_BREAK) ||
 1435              		.loc 1 1490 0
 1436 0008 0028     		cmp	r0, #0
 1437 000a 01D0     		beq	.L113
 1438              		.loc 1 1490 0 is_stmt 0 discriminator 1
 1439 000c 0328     		cmp	r0, #3
 1440 000e 0CD1     		bne	.L114
 1441              	.L113:
1491:Generated_Source\PSoC4/ATM_UART.c ****                 (retMode == ATM_UART_SEND_WAIT_REINIT) )
1492:Generated_Source\PSoC4/ATM_UART.c ****             {
1493:Generated_Source\PSoC4/ATM_UART.c ****                 /* CTRL_HD_SEND_BREAK - skip to send parity bit at Break signal in Full Duplex mode
1494:Generated_Source\PSoC4/ATM_UART.c ****                 #if( (ATM_UART_PARITY_TYPE != ATM_UART__B_UART__NONE_REVB) || \
1495:Generated_Source\PSoC4/ATM_UART.c ****                                     (ATM_UART_PARITY_TYPE_SW != 0u) )
1496:Generated_Source\PSoC4/ATM_UART.c ****                     ATM_UART_WriteControlRegister(ATM_UART_ReadControlRegister() |
1497:Generated_Source\PSoC4/ATM_UART.c ****                                                           ATM_UART_CTRL_HD_SEND_BREAK);
1498:Generated_Source\PSoC4/ATM_UART.c ****                 #endif /* End ATM_UART_PARITY_TYPE != ATM_UART__B_UART__NONE_REVB  */
1499:Generated_Source\PSoC4/ATM_UART.c **** 
1500:Generated_Source\PSoC4/ATM_UART.c ****                 #if(ATM_UART_TXCLKGEN_DP)
1501:Generated_Source\PSoC4/ATM_UART.c ****                     txPeriod = ATM_UART_TXBITCLKTX_COMPLETE_REG;
 1442              		.loc 1 1501 0 is_stmt 1
 1443 0010 104B     		ldr	r3, .L118+4
 1444 0012 1978     		ldrb	r1, [r3]
 1445 0014 0E4A     		ldr	r2, .L118
 1446 0016 1172     		strb	r1, [r2, #8]
1502:Generated_Source\PSoC4/ATM_UART.c ****                     ATM_UART_TXBITCLKTX_COMPLETE_REG = ATM_UART_TXBITCTR_BREAKBITS;
 1447              		.loc 1 1502 0
 1448 0018 6722     		movs	r2, #103
ARM GAS  C:\Users\CCPOW_~1\AppData\Local\Temp\ccJeinjc.s 			page 53


 1449 001a 1A70     		strb	r2, [r3]
1503:Generated_Source\PSoC4/ATM_UART.c ****                 #else
1504:Generated_Source\PSoC4/ATM_UART.c ****                     txPeriod = ATM_UART_TXBITCTR_PERIOD_REG;
1505:Generated_Source\PSoC4/ATM_UART.c ****                     ATM_UART_TXBITCTR_PERIOD_REG = ATM_UART_TXBITCTR_BREAKBITS8X;
1506:Generated_Source\PSoC4/ATM_UART.c ****                 #endif /* End ATM_UART_TXCLKGEN_DP */
1507:Generated_Source\PSoC4/ATM_UART.c **** 
1508:Generated_Source\PSoC4/ATM_UART.c ****                 /* Send zeros */
1509:Generated_Source\PSoC4/ATM_UART.c ****                 ATM_UART_TXDATA_REG = 0u;
 1450              		.loc 1 1509 0
 1451 001c 0022     		movs	r2, #0
 1452 001e 0E4B     		ldr	r3, .L118+8
 1453 0020 1A70     		strb	r2, [r3]
 1454              	.L115:
1510:Generated_Source\PSoC4/ATM_UART.c **** 
1511:Generated_Source\PSoC4/ATM_UART.c ****                 do /* Wait until transmit starts */
1512:Generated_Source\PSoC4/ATM_UART.c ****                 {
1513:Generated_Source\PSoC4/ATM_UART.c ****                     tmpStat = ATM_UART_TXSTATUS_REG;
 1455              		.loc 1 1513 0 discriminator 1
 1456 0022 0E4B     		ldr	r3, .L118+12
 1457 0024 1B78     		ldrb	r3, [r3]
 1458              	.LVL128:
1514:Generated_Source\PSoC4/ATM_UART.c ****                 }
1515:Generated_Source\PSoC4/ATM_UART.c ****                 while((tmpStat & ATM_UART_TX_STS_FIFO_EMPTY) != 0u);
 1459              		.loc 1 1515 0 discriminator 1
 1460 0026 9B07     		lsls	r3, r3, #30
 1461 0028 FBD4     		bmi	.L115
 1462              	.LVL129:
 1463              	.L114:
1516:Generated_Source\PSoC4/ATM_UART.c ****             }
1517:Generated_Source\PSoC4/ATM_UART.c **** 
1518:Generated_Source\PSoC4/ATM_UART.c ****             if( (retMode == ATM_UART_WAIT_FOR_COMPLETE_REINIT) ||
 1464              		.loc 1 1518 0
 1465 002a 0128     		cmp	r0, #1
 1466 002c 01D0     		beq	.L116
 1467              		.loc 1 1518 0 is_stmt 0 discriminator 1
 1468 002e 0328     		cmp	r0, #3
 1469 0030 04D1     		bne	.L117
 1470              	.L116:
1519:Generated_Source\PSoC4/ATM_UART.c ****                 (retMode == ATM_UART_SEND_WAIT_REINIT) )
1520:Generated_Source\PSoC4/ATM_UART.c ****             {
1521:Generated_Source\PSoC4/ATM_UART.c ****                 do /* Wait until transmit complete */
1522:Generated_Source\PSoC4/ATM_UART.c ****                 {
1523:Generated_Source\PSoC4/ATM_UART.c ****                     tmpStat = ATM_UART_TXSTATUS_REG;
 1471              		.loc 1 1523 0 is_stmt 1 discriminator 1
 1472 0032 0A4B     		ldr	r3, .L118+12
 1473 0034 1A78     		ldrb	r2, [r3]
 1474              	.LVL130:
1524:Generated_Source\PSoC4/ATM_UART.c ****                 }
1525:Generated_Source\PSoC4/ATM_UART.c ****                 while(((uint8)~tmpStat & ATM_UART_TX_STS_COMPLETE) != 0u);
 1475              		.loc 1 1525 0 discriminator 1
 1476 0036 0123     		movs	r3, #1
 1477 0038 9343     		bics	r3, r2
 1478 003a FAD1     		bne	.L116
 1479              	.LVL131:
 1480              	.L117:
1526:Generated_Source\PSoC4/ATM_UART.c ****             }
1527:Generated_Source\PSoC4/ATM_UART.c **** 
ARM GAS  C:\Users\CCPOW_~1\AppData\Local\Temp\ccJeinjc.s 			page 54


1528:Generated_Source\PSoC4/ATM_UART.c ****             if( (retMode == ATM_UART_WAIT_FOR_COMPLETE_REINIT) ||
1529:Generated_Source\PSoC4/ATM_UART.c ****                 (retMode == ATM_UART_REINIT) ||
 1481              		.loc 1 1529 0
 1482 003c 0138     		subs	r0, r0, #1
 1483              	.LVL132:
 1484 003e C0B2     		uxtb	r0, r0
1528:Generated_Source\PSoC4/ATM_UART.c ****                 (retMode == ATM_UART_REINIT) ||
 1485              		.loc 1 1528 0
 1486 0040 0228     		cmp	r0, #2
 1487 0042 03D8     		bhi	.L111
1530:Generated_Source\PSoC4/ATM_UART.c ****                 (retMode == ATM_UART_SEND_WAIT_REINIT) )
1531:Generated_Source\PSoC4/ATM_UART.c ****             {
1532:Generated_Source\PSoC4/ATM_UART.c **** 
1533:Generated_Source\PSoC4/ATM_UART.c ****             #if(ATM_UART_TXCLKGEN_DP)
1534:Generated_Source\PSoC4/ATM_UART.c ****                 ATM_UART_TXBITCLKTX_COMPLETE_REG = txPeriod;
 1488              		.loc 1 1534 0
 1489 0044 024B     		ldr	r3, .L118
 1490 0046 1A7A     		ldrb	r2, [r3, #8]
 1491 0048 024B     		ldr	r3, .L118+4
 1492 004a 1A70     		strb	r2, [r3]
 1493              	.L111:
 1494              	.LBE2:
1535:Generated_Source\PSoC4/ATM_UART.c ****             #else
1536:Generated_Source\PSoC4/ATM_UART.c ****                 ATM_UART_TXBITCTR_PERIOD_REG = txPeriod;
1537:Generated_Source\PSoC4/ATM_UART.c ****             #endif /* End ATM_UART_TXCLKGEN_DP */
1538:Generated_Source\PSoC4/ATM_UART.c **** 
1539:Generated_Source\PSoC4/ATM_UART.c ****             #if( (ATM_UART_PARITY_TYPE != ATM_UART__B_UART__NONE_REVB) || \
1540:Generated_Source\PSoC4/ATM_UART.c ****                  (ATM_UART_PARITY_TYPE_SW != 0u) )
1541:Generated_Source\PSoC4/ATM_UART.c ****                 ATM_UART_WriteControlRegister(ATM_UART_ReadControlRegister() &
1542:Generated_Source\PSoC4/ATM_UART.c ****                                                       (uint8) ~ATM_UART_CTRL_HD_SEND_BREAK);
1543:Generated_Source\PSoC4/ATM_UART.c ****             #endif /* End ATM_UART_PARITY_TYPE != NONE */
1544:Generated_Source\PSoC4/ATM_UART.c ****             }
1545:Generated_Source\PSoC4/ATM_UART.c ****         #endif    /* End ATM_UART_HD_ENABLED */
1546:Generated_Source\PSoC4/ATM_UART.c ****         }
1547:Generated_Source\PSoC4/ATM_UART.c ****     }
 1495              		.loc 1 1547 0
 1496              		@ sp needed
 1497 004c 7047     		bx	lr
 1498              	.L119:
 1499 004e C046     		.align	2
 1500              	.L118:
 1501 0050 00000000 		.word	.LANCHOR0
 1502 0054 33000F40 		.word	1074724915
 1503 0058 42000F40 		.word	1074724930
 1504 005c 62000F40 		.word	1074724962
 1505              		.cfi_endproc
 1506              	.LFE25:
 1507              		.size	ATM_UART_SendBreak, .-ATM_UART_SendBreak
 1508              		.section	.text.ATM_UART_SetTxAddressMode,"ax",%progbits
 1509              		.align	2
 1510              		.global	ATM_UART_SetTxAddressMode
 1511              		.code	16
 1512              		.thumb_func
 1513              		.type	ATM_UART_SetTxAddressMode, %function
 1514              	ATM_UART_SetTxAddressMode:
 1515              	.LFB26:
1548:Generated_Source\PSoC4/ATM_UART.c **** 
ARM GAS  C:\Users\CCPOW_~1\AppData\Local\Temp\ccJeinjc.s 			page 55


1549:Generated_Source\PSoC4/ATM_UART.c **** 
1550:Generated_Source\PSoC4/ATM_UART.c ****     /*******************************************************************************
1551:Generated_Source\PSoC4/ATM_UART.c ****     * Function Name: ATM_UART_SetTxAddressMode
1552:Generated_Source\PSoC4/ATM_UART.c ****     ********************************************************************************
1553:Generated_Source\PSoC4/ATM_UART.c ****     *
1554:Generated_Source\PSoC4/ATM_UART.c ****     * Summary:
1555:Generated_Source\PSoC4/ATM_UART.c ****     *  Configures the transmitter to signal the next bytes is address or data.
1556:Generated_Source\PSoC4/ATM_UART.c ****     *
1557:Generated_Source\PSoC4/ATM_UART.c ****     * Parameters:
1558:Generated_Source\PSoC4/ATM_UART.c ****     *  addressMode: 
1559:Generated_Source\PSoC4/ATM_UART.c ****     *       ATM_UART_SET_SPACE - Configure the transmitter to send the next
1560:Generated_Source\PSoC4/ATM_UART.c ****     *                                    byte as a data.
1561:Generated_Source\PSoC4/ATM_UART.c ****     *       ATM_UART_SET_MARK  - Configure the transmitter to send the next
1562:Generated_Source\PSoC4/ATM_UART.c ****     *                                    byte as an address.
1563:Generated_Source\PSoC4/ATM_UART.c ****     *
1564:Generated_Source\PSoC4/ATM_UART.c ****     * Return:
1565:Generated_Source\PSoC4/ATM_UART.c ****     *  None.
1566:Generated_Source\PSoC4/ATM_UART.c ****     *
1567:Generated_Source\PSoC4/ATM_UART.c ****     * Side Effects:
1568:Generated_Source\PSoC4/ATM_UART.c ****     *  This function sets and clears ATM_UART_CTRL_MARK bit in the Control
1569:Generated_Source\PSoC4/ATM_UART.c ****     *  register.
1570:Generated_Source\PSoC4/ATM_UART.c ****     *
1571:Generated_Source\PSoC4/ATM_UART.c ****     *******************************************************************************/
1572:Generated_Source\PSoC4/ATM_UART.c ****     void ATM_UART_SetTxAddressMode(uint8 addressMode) 
1573:Generated_Source\PSoC4/ATM_UART.c ****     {
 1516              		.loc 1 1573 0
 1517              		.cfi_startproc
 1518              		@ args = 0, pretend = 0, frame = 0
 1519              		@ frame_needed = 0, uses_anonymous_args = 0
 1520              		@ link register save eliminated.
 1521              	.LVL133:
1574:Generated_Source\PSoC4/ATM_UART.c ****         /* Mark/Space sending enable */
1575:Generated_Source\PSoC4/ATM_UART.c ****         if(addressMode != 0u)
1576:Generated_Source\PSoC4/ATM_UART.c ****         {
1577:Generated_Source\PSoC4/ATM_UART.c ****         #if( ATM_UART_CONTROL_REG_REMOVED == 0u )
1578:Generated_Source\PSoC4/ATM_UART.c ****             ATM_UART_WriteControlRegister(ATM_UART_ReadControlRegister() |
1579:Generated_Source\PSoC4/ATM_UART.c ****                                                   ATM_UART_CTRL_MARK);
1580:Generated_Source\PSoC4/ATM_UART.c ****         #endif /* End ATM_UART_CONTROL_REG_REMOVED == 0u */
1581:Generated_Source\PSoC4/ATM_UART.c ****         }
1582:Generated_Source\PSoC4/ATM_UART.c ****         else
1583:Generated_Source\PSoC4/ATM_UART.c ****         {
1584:Generated_Source\PSoC4/ATM_UART.c ****         #if( ATM_UART_CONTROL_REG_REMOVED == 0u )
1585:Generated_Source\PSoC4/ATM_UART.c ****             ATM_UART_WriteControlRegister(ATM_UART_ReadControlRegister() &
1586:Generated_Source\PSoC4/ATM_UART.c ****                                                   (uint8) ~ATM_UART_CTRL_MARK);
1587:Generated_Source\PSoC4/ATM_UART.c ****         #endif /* End ATM_UART_CONTROL_REG_REMOVED == 0u */
1588:Generated_Source\PSoC4/ATM_UART.c ****         }
1589:Generated_Source\PSoC4/ATM_UART.c ****     }
 1522              		.loc 1 1589 0
 1523              		@ sp needed
 1524 0000 7047     		bx	lr
 1525              		.cfi_endproc
 1526              	.LFE26:
 1527              		.size	ATM_UART_SetTxAddressMode, .-ATM_UART_SetTxAddressMode
 1528              		.global	ATM_UART_rxBufferOverflow
 1529              		.global	ATM_UART_rxBufferLoopDetect
 1530              		.global	ATM_UART_rxBufferWrite
 1531              		.global	ATM_UART_rxBufferRead
ARM GAS  C:\Users\CCPOW_~1\AppData\Local\Temp\ccJeinjc.s 			page 56


 1532              		.comm	ATM_UART_rxBuffer,16,4
 1533              		.global	ATM_UART_errorStatus
 1534              		.global	ATM_UART_txBufferWrite
 1535              		.global	ATM_UART_txBufferRead
 1536              		.comm	ATM_UART_txBuffer,16,4
 1537              		.global	ATM_UART_initVar
 1538 0002 C046     		.bss
 1539              		.set	.LANCHOR0,. + 0
 1540              		.type	ATM_UART_errorStatus, %object
 1541              		.size	ATM_UART_errorStatus, 1
 1542              	ATM_UART_errorStatus:
 1543 0000 00       		.space	1
 1544              		.type	ATM_UART_initVar, %object
 1545              		.size	ATM_UART_initVar, 1
 1546              	ATM_UART_initVar:
 1547 0001 00       		.space	1
 1548              		.type	ATM_UART_rxBufferRead, %object
 1549              		.size	ATM_UART_rxBufferRead, 1
 1550              	ATM_UART_rxBufferRead:
 1551 0002 00       		.space	1
 1552              		.type	ATM_UART_rxBufferWrite, %object
 1553              		.size	ATM_UART_rxBufferWrite, 1
 1554              	ATM_UART_rxBufferWrite:
 1555 0003 00       		.space	1
 1556              		.type	ATM_UART_rxBufferLoopDetect, %object
 1557              		.size	ATM_UART_rxBufferLoopDetect, 1
 1558              	ATM_UART_rxBufferLoopDetect:
 1559 0004 00       		.space	1
 1560              		.type	ATM_UART_rxBufferOverflow, %object
 1561              		.size	ATM_UART_rxBufferOverflow, 1
 1562              	ATM_UART_rxBufferOverflow:
 1563 0005 00       		.space	1
 1564              		.type	ATM_UART_txBufferRead, %object
 1565              		.size	ATM_UART_txBufferRead, 1
 1566              	ATM_UART_txBufferRead:
 1567 0006 00       		.space	1
 1568              		.type	ATM_UART_txBufferWrite, %object
 1569              		.size	ATM_UART_txBufferWrite, 1
 1570              	ATM_UART_txBufferWrite:
 1571 0007 00       		.space	1
 1572              		.type	txPeriod.5011, %object
 1573              		.size	txPeriod.5011, 1
 1574              	txPeriod.5011:
 1575 0008 00       		.space	1
 1576              		.text
 1577              	.Letext0:
 1578              		.file 2 "Generated_Source\\PSoC4\\cytypes.h"
 1579              		.file 3 "Generated_Source\\PSoC4\\CyLib.h"
 1580              		.file 4 "Generated_Source\\PSoC4\\ATM_UART_IntClock.h"