ARM GAS  C:\Users\CCPOW_~1\AppData\Local\Temp\cc3yP1bi.s 			page 1


   1              		.syntax unified
   2              		.cpu cortex-m0
   3              		.fpu softvfp
   4              		.eabi_attribute 20, 1
   5              		.eabi_attribute 21, 1
   6              		.eabi_attribute 23, 3
   7              		.eabi_attribute 24, 1
   8              		.eabi_attribute 25, 1
   9              		.eabi_attribute 26, 1
  10              		.eabi_attribute 30, 1
  11              		.eabi_attribute 34, 0
  12              		.eabi_attribute 18, 4
  13              		.thumb
  14              		.syntax unified
  15              		.file	"cyfitter_cfg.c"
  16              		.text
  17              	.Ltext0:
  18              		.cfi_sections	.debug_frame
  19              		.section	.text.cfg_write_bytes32,"ax",%progbits
  20              		.align	2
  21              		.code	16
  22              		.thumb_func
  23              		.type	cfg_write_bytes32, %function
  24              	cfg_write_bytes32:
  25              	.LFB3:
  26              		.file 1 "Generated_Source\\PSoC4\\cyfitter_cfg.c"
   1:Generated_Source\PSoC4/cyfitter_cfg.c **** 
   2:Generated_Source\PSoC4/cyfitter_cfg.c **** /*******************************************************************************
   3:Generated_Source\PSoC4/cyfitter_cfg.c **** * File Name: cyfitter_cfg.c
   4:Generated_Source\PSoC4/cyfitter_cfg.c **** * 
   5:Generated_Source\PSoC4/cyfitter_cfg.c **** * PSoC Creator  4.1 Update 1
   6:Generated_Source\PSoC4/cyfitter_cfg.c **** *
   7:Generated_Source\PSoC4/cyfitter_cfg.c **** * Description:
   8:Generated_Source\PSoC4/cyfitter_cfg.c **** * This file contains device initialization code.
   9:Generated_Source\PSoC4/cyfitter_cfg.c **** * Except for the user defined sections in CyClockStartupError(), this file should not be modified.
  10:Generated_Source\PSoC4/cyfitter_cfg.c **** * This file is automatically generated by PSoC Creator.
  11:Generated_Source\PSoC4/cyfitter_cfg.c **** *
  12:Generated_Source\PSoC4/cyfitter_cfg.c **** ********************************************************************************
  13:Generated_Source\PSoC4/cyfitter_cfg.c **** * Copyright (c) 2007-2017 Cypress Semiconductor.  All rights reserved.
  14:Generated_Source\PSoC4/cyfitter_cfg.c **** * You may use this file only in accordance with the license, terms, conditions, 
  15:Generated_Source\PSoC4/cyfitter_cfg.c **** * disclaimers, and limitations in the end user license agreement accompanying 
  16:Generated_Source\PSoC4/cyfitter_cfg.c **** * the software package with which this file was provided.
  17:Generated_Source\PSoC4/cyfitter_cfg.c **** ********************************************************************************/
  18:Generated_Source\PSoC4/cyfitter_cfg.c **** 
  19:Generated_Source\PSoC4/cyfitter_cfg.c **** #include <string.h>
  20:Generated_Source\PSoC4/cyfitter_cfg.c **** #include "cytypes.h"
  21:Generated_Source\PSoC4/cyfitter_cfg.c **** #include "cydevice_trm.h"
  22:Generated_Source\PSoC4/cyfitter_cfg.c **** #include "cyfitter.h"
  23:Generated_Source\PSoC4/cyfitter_cfg.c **** #include "CyLib.h"
  24:Generated_Source\PSoC4/cyfitter_cfg.c **** #include "CyLFClk.h"
  25:Generated_Source\PSoC4/cyfitter_cfg.c **** #include "cyfitter_cfg.h"
  26:Generated_Source\PSoC4/cyfitter_cfg.c **** #include "cyapicallbacks.h"
  27:Generated_Source\PSoC4/cyfitter_cfg.c **** 
  28:Generated_Source\PSoC4/cyfitter_cfg.c **** 
  29:Generated_Source\PSoC4/cyfitter_cfg.c **** #if defined(__GNUC__) || defined(__ARMCC_VERSION)
  30:Generated_Source\PSoC4/cyfitter_cfg.c ****     #define CYPACKED 
  31:Generated_Source\PSoC4/cyfitter_cfg.c ****     #define CYPACKED_ATTR __attribute__ ((packed))
ARM GAS  C:\Users\CCPOW_~1\AppData\Local\Temp\cc3yP1bi.s 			page 2


  32:Generated_Source\PSoC4/cyfitter_cfg.c ****     #define CYALIGNED __attribute__ ((aligned))
  33:Generated_Source\PSoC4/cyfitter_cfg.c ****     #define CY_CFG_UNUSED __attribute__ ((unused))
  34:Generated_Source\PSoC4/cyfitter_cfg.c ****     #ifndef CY_CFG_SECTION
  35:Generated_Source\PSoC4/cyfitter_cfg.c ****         #define CY_CFG_SECTION __attribute__ ((section(".psocinit")))
  36:Generated_Source\PSoC4/cyfitter_cfg.c ****     #endif
  37:Generated_Source\PSoC4/cyfitter_cfg.c ****     
  38:Generated_Source\PSoC4/cyfitter_cfg.c ****     #if defined(__ARMCC_VERSION)
  39:Generated_Source\PSoC4/cyfitter_cfg.c ****         #define CY_CFG_MEMORY_BARRIER() __memory_changed()
  40:Generated_Source\PSoC4/cyfitter_cfg.c ****     #else
  41:Generated_Source\PSoC4/cyfitter_cfg.c ****         #define CY_CFG_MEMORY_BARRIER() __sync_synchronize()
  42:Generated_Source\PSoC4/cyfitter_cfg.c ****     #endif
  43:Generated_Source\PSoC4/cyfitter_cfg.c ****     
  44:Generated_Source\PSoC4/cyfitter_cfg.c **** #elif defined(__ICCARM__)
  45:Generated_Source\PSoC4/cyfitter_cfg.c ****     #include <intrinsics.h>
  46:Generated_Source\PSoC4/cyfitter_cfg.c **** 
  47:Generated_Source\PSoC4/cyfitter_cfg.c ****     #define CYPACKED __packed
  48:Generated_Source\PSoC4/cyfitter_cfg.c ****     #define CYPACKED_ATTR 
  49:Generated_Source\PSoC4/cyfitter_cfg.c ****     #define CYALIGNED _Pragma("data_alignment=4")
  50:Generated_Source\PSoC4/cyfitter_cfg.c ****     #define CY_CFG_UNUSED _Pragma("diag_suppress=Pe177")
  51:Generated_Source\PSoC4/cyfitter_cfg.c ****     #define CY_CFG_SECTION _Pragma("location=\".psocinit\"")
  52:Generated_Source\PSoC4/cyfitter_cfg.c ****     
  53:Generated_Source\PSoC4/cyfitter_cfg.c ****     #define CY_CFG_MEMORY_BARRIER() __DMB()
  54:Generated_Source\PSoC4/cyfitter_cfg.c ****     
  55:Generated_Source\PSoC4/cyfitter_cfg.c **** #else
  56:Generated_Source\PSoC4/cyfitter_cfg.c ****     #error Unsupported toolchain
  57:Generated_Source\PSoC4/cyfitter_cfg.c **** #endif
  58:Generated_Source\PSoC4/cyfitter_cfg.c **** 
  59:Generated_Source\PSoC4/cyfitter_cfg.c **** #ifndef CYCODE
  60:Generated_Source\PSoC4/cyfitter_cfg.c ****     #define CYCODE
  61:Generated_Source\PSoC4/cyfitter_cfg.c **** #endif
  62:Generated_Source\PSoC4/cyfitter_cfg.c **** #ifndef CYDATA
  63:Generated_Source\PSoC4/cyfitter_cfg.c ****     #define CYDATA
  64:Generated_Source\PSoC4/cyfitter_cfg.c **** #endif
  65:Generated_Source\PSoC4/cyfitter_cfg.c **** #ifndef CYFAR
  66:Generated_Source\PSoC4/cyfitter_cfg.c ****     #define CYFAR
  67:Generated_Source\PSoC4/cyfitter_cfg.c **** #endif
  68:Generated_Source\PSoC4/cyfitter_cfg.c **** #ifndef CYXDATA
  69:Generated_Source\PSoC4/cyfitter_cfg.c ****     #define CYXDATA
  70:Generated_Source\PSoC4/cyfitter_cfg.c **** #endif
  71:Generated_Source\PSoC4/cyfitter_cfg.c **** 
  72:Generated_Source\PSoC4/cyfitter_cfg.c **** 
  73:Generated_Source\PSoC4/cyfitter_cfg.c **** CY_CFG_UNUSED
  74:Generated_Source\PSoC4/cyfitter_cfg.c **** static void CYMEMZERO(void *s, size_t n);
  75:Generated_Source\PSoC4/cyfitter_cfg.c **** CY_CFG_UNUSED
  76:Generated_Source\PSoC4/cyfitter_cfg.c **** static void CYMEMZERO(void *s, size_t n)
  77:Generated_Source\PSoC4/cyfitter_cfg.c **** {
  78:Generated_Source\PSoC4/cyfitter_cfg.c **** 	(void)memset(s, 0, n);
  79:Generated_Source\PSoC4/cyfitter_cfg.c **** }
  80:Generated_Source\PSoC4/cyfitter_cfg.c **** CY_CFG_UNUSED
  81:Generated_Source\PSoC4/cyfitter_cfg.c **** static void CYCONFIGCPY(void *dest, const void *src, size_t n);
  82:Generated_Source\PSoC4/cyfitter_cfg.c **** CY_CFG_UNUSED
  83:Generated_Source\PSoC4/cyfitter_cfg.c **** static void CYCONFIGCPY(void *dest, const void *src, size_t n)
  84:Generated_Source\PSoC4/cyfitter_cfg.c **** {
  85:Generated_Source\PSoC4/cyfitter_cfg.c **** 	(void)memcpy(dest, src, n);
  86:Generated_Source\PSoC4/cyfitter_cfg.c **** }
  87:Generated_Source\PSoC4/cyfitter_cfg.c **** CY_CFG_UNUSED
  88:Generated_Source\PSoC4/cyfitter_cfg.c **** static void CYCONFIGCPYCODE(void *dest, const void *src, size_t n);
ARM GAS  C:\Users\CCPOW_~1\AppData\Local\Temp\cc3yP1bi.s 			page 3


  89:Generated_Source\PSoC4/cyfitter_cfg.c **** CY_CFG_UNUSED
  90:Generated_Source\PSoC4/cyfitter_cfg.c **** static void CYCONFIGCPYCODE(void *dest, const void *src, size_t n)
  91:Generated_Source\PSoC4/cyfitter_cfg.c **** {
  92:Generated_Source\PSoC4/cyfitter_cfg.c **** 	(void)memcpy(dest, src, n);
  93:Generated_Source\PSoC4/cyfitter_cfg.c **** }
  94:Generated_Source\PSoC4/cyfitter_cfg.c **** 
  95:Generated_Source\PSoC4/cyfitter_cfg.c **** 
  96:Generated_Source\PSoC4/cyfitter_cfg.c **** 
  97:Generated_Source\PSoC4/cyfitter_cfg.c **** 
  98:Generated_Source\PSoC4/cyfitter_cfg.c **** /* Clock startup error codes                                                   */
  99:Generated_Source\PSoC4/cyfitter_cfg.c **** #define CYCLOCKSTART_NO_ERROR    0u
 100:Generated_Source\PSoC4/cyfitter_cfg.c **** #define CYCLOCKSTART_XTAL_ERROR  1u
 101:Generated_Source\PSoC4/cyfitter_cfg.c **** #define CYCLOCKSTART_32KHZ_ERROR 2u
 102:Generated_Source\PSoC4/cyfitter_cfg.c **** #define CYCLOCKSTART_PLL_ERROR   3u
 103:Generated_Source\PSoC4/cyfitter_cfg.c **** #define CYCLOCKSTART_FLL_ERROR   4u
 104:Generated_Source\PSoC4/cyfitter_cfg.c **** 
 105:Generated_Source\PSoC4/cyfitter_cfg.c **** 
 106:Generated_Source\PSoC4/cyfitter_cfg.c **** #ifdef CY_NEED_CYCLOCKSTARTUPERROR
 107:Generated_Source\PSoC4/cyfitter_cfg.c **** /*******************************************************************************
 108:Generated_Source\PSoC4/cyfitter_cfg.c **** * Function Name: CyClockStartupError
 109:Generated_Source\PSoC4/cyfitter_cfg.c **** ********************************************************************************
 110:Generated_Source\PSoC4/cyfitter_cfg.c **** * Summary:
 111:Generated_Source\PSoC4/cyfitter_cfg.c **** *  If an error is encountered during clock configuration (crystal startup error,
 112:Generated_Source\PSoC4/cyfitter_cfg.c **** *  PLL lock error, etc.), the system will end up here.  Unless reimplemented by
 113:Generated_Source\PSoC4/cyfitter_cfg.c **** *  the customer, this function will stop in an infinite loop.
 114:Generated_Source\PSoC4/cyfitter_cfg.c **** *
 115:Generated_Source\PSoC4/cyfitter_cfg.c **** * Parameters:
 116:Generated_Source\PSoC4/cyfitter_cfg.c **** *   void
 117:Generated_Source\PSoC4/cyfitter_cfg.c **** *
 118:Generated_Source\PSoC4/cyfitter_cfg.c **** * Return:
 119:Generated_Source\PSoC4/cyfitter_cfg.c **** *   void
 120:Generated_Source\PSoC4/cyfitter_cfg.c **** *
 121:Generated_Source\PSoC4/cyfitter_cfg.c **** *******************************************************************************/
 122:Generated_Source\PSoC4/cyfitter_cfg.c **** CY_CFG_UNUSED
 123:Generated_Source\PSoC4/cyfitter_cfg.c **** static void CyClockStartupError(uint8 errorCode);
 124:Generated_Source\PSoC4/cyfitter_cfg.c **** CY_CFG_UNUSED
 125:Generated_Source\PSoC4/cyfitter_cfg.c **** static void CyClockStartupError(uint8 errorCode)
 126:Generated_Source\PSoC4/cyfitter_cfg.c **** {
 127:Generated_Source\PSoC4/cyfitter_cfg.c ****     /* To remove the compiler warning if errorCode not used. */
 128:Generated_Source\PSoC4/cyfitter_cfg.c **** #if defined(CY_PSOC3) && (CY_PSOC3)
 129:Generated_Source\PSoC4/cyfitter_cfg.c ****     errorCode = errorCode;
 130:Generated_Source\PSoC4/cyfitter_cfg.c **** #else
 131:Generated_Source\PSoC4/cyfitter_cfg.c ****     (void)errorCode;
 132:Generated_Source\PSoC4/cyfitter_cfg.c **** #endif /* CY_PSOC3 */
 133:Generated_Source\PSoC4/cyfitter_cfg.c **** 
 134:Generated_Source\PSoC4/cyfitter_cfg.c ****     /* If we have a clock startup error (bad MHz crystal, PLL lock, etc.),  */
 135:Generated_Source\PSoC4/cyfitter_cfg.c ****     /* we will end up here to allow the customer to implement something to  */
 136:Generated_Source\PSoC4/cyfitter_cfg.c ****     /* deal with the clock condition.                                       */
 137:Generated_Source\PSoC4/cyfitter_cfg.c **** 
 138:Generated_Source\PSoC4/cyfitter_cfg.c **** #ifdef CY_CFG_CLOCK_STARTUP_ERROR_CALLBACK
 139:Generated_Source\PSoC4/cyfitter_cfg.c ****     CY_CFG_Clock_Startup_ErrorCallback();
 140:Generated_Source\PSoC4/cyfitter_cfg.c **** #else
 141:Generated_Source\PSoC4/cyfitter_cfg.c ****     /*  If not using CY_CFG_CLOCK_STARTUP_ERROR_CALLBACK, place your clock startup code here. */
 142:Generated_Source\PSoC4/cyfitter_cfg.c ****     /* `#START CyClockStartupError` */
 143:Generated_Source\PSoC4/cyfitter_cfg.c **** 
 144:Generated_Source\PSoC4/cyfitter_cfg.c **** 
 145:Generated_Source\PSoC4/cyfitter_cfg.c **** 
ARM GAS  C:\Users\CCPOW_~1\AppData\Local\Temp\cc3yP1bi.s 			page 4


 146:Generated_Source\PSoC4/cyfitter_cfg.c ****     /* `#END` */
 147:Generated_Source\PSoC4/cyfitter_cfg.c **** 
 148:Generated_Source\PSoC4/cyfitter_cfg.c ****     while(1) {}
 149:Generated_Source\PSoC4/cyfitter_cfg.c **** #endif /* CY_CFG_CLOCK_STARTUP_ERROR_CALLBACK */
 150:Generated_Source\PSoC4/cyfitter_cfg.c **** }
 151:Generated_Source\PSoC4/cyfitter_cfg.c **** #endif
 152:Generated_Source\PSoC4/cyfitter_cfg.c **** 
 153:Generated_Source\PSoC4/cyfitter_cfg.c **** #define CY_CFG_BASE_ADDR_COUNT 8u
 154:Generated_Source\PSoC4/cyfitter_cfg.c **** CYPACKED typedef struct
 155:Generated_Source\PSoC4/cyfitter_cfg.c **** {
 156:Generated_Source\PSoC4/cyfitter_cfg.c **** 	uint8 offset;
 157:Generated_Source\PSoC4/cyfitter_cfg.c **** 	uint8 value;
 158:Generated_Source\PSoC4/cyfitter_cfg.c **** } CYPACKED_ATTR cy_cfg_addrvalue_t;
 159:Generated_Source\PSoC4/cyfitter_cfg.c **** 
 160:Generated_Source\PSoC4/cyfitter_cfg.c **** 
 161:Generated_Source\PSoC4/cyfitter_cfg.c **** 
 162:Generated_Source\PSoC4/cyfitter_cfg.c **** /*******************************************************************************
 163:Generated_Source\PSoC4/cyfitter_cfg.c **** * Function Name: cfg_write_bytes32
 164:Generated_Source\PSoC4/cyfitter_cfg.c **** ********************************************************************************
 165:Generated_Source\PSoC4/cyfitter_cfg.c **** * Summary:
 166:Generated_Source\PSoC4/cyfitter_cfg.c **** *  This function is used for setting up the chip configuration areas that
 167:Generated_Source\PSoC4/cyfitter_cfg.c **** *  contain relatively sparse data.
 168:Generated_Source\PSoC4/cyfitter_cfg.c **** *
 169:Generated_Source\PSoC4/cyfitter_cfg.c **** * Parameters:
 170:Generated_Source\PSoC4/cyfitter_cfg.c **** *   void
 171:Generated_Source\PSoC4/cyfitter_cfg.c **** *
 172:Generated_Source\PSoC4/cyfitter_cfg.c **** * Return:
 173:Generated_Source\PSoC4/cyfitter_cfg.c **** *   void
 174:Generated_Source\PSoC4/cyfitter_cfg.c **** *
 175:Generated_Source\PSoC4/cyfitter_cfg.c **** *******************************************************************************/
 176:Generated_Source\PSoC4/cyfitter_cfg.c **** static void cfg_write_bytes32(const uint32 addr_table[], const cy_cfg_addrvalue_t data_table[]);
 177:Generated_Source\PSoC4/cyfitter_cfg.c **** static void cfg_write_bytes32(const uint32 addr_table[], const cy_cfg_addrvalue_t data_table[])
 178:Generated_Source\PSoC4/cyfitter_cfg.c **** {
  27              		.loc 1 178 0
  28              		.cfi_startproc
  29              		@ args = 0, pretend = 0, frame = 0
  30              		@ frame_needed = 0, uses_anonymous_args = 0
  31              	.LVL0:
  32 0000 F0B5     		push	{r4, r5, r6, r7, lr}
  33              		.cfi_def_cfa_offset 20
  34              		.cfi_offset 4, -20
  35              		.cfi_offset 5, -16
  36              		.cfi_offset 6, -12
  37              		.cfi_offset 7, -8
  38              		.cfi_offset 14, -4
  39              	.LVL1:
 179:Generated_Source\PSoC4/cyfitter_cfg.c **** 	/* For 32-bit little-endian architectures */
 180:Generated_Source\PSoC4/cyfitter_cfg.c **** 	uint32 i, j = 0u;
  40              		.loc 1 180 0
  41 0002 0025     		movs	r5, #0
 181:Generated_Source\PSoC4/cyfitter_cfg.c **** 	for (i = 0u; i < CY_CFG_BASE_ADDR_COUNT; i++)
  42              		.loc 1 181 0
  43 0004 0027     		movs	r7, #0
  44 0006 11E0     		b	.L2
  45              	.LVL2:
  46              	.L5:
  47              	.LBB2:
ARM GAS  C:\Users\CCPOW_~1\AppData\Local\Temp\cc3yP1bi.s 			page 5


 182:Generated_Source\PSoC4/cyfitter_cfg.c **** 	{
 183:Generated_Source\PSoC4/cyfitter_cfg.c **** 		uint32 baseAddr = addr_table[i];
  48              		.loc 1 183 0
  49 0008 BB00     		lsls	r3, r7, #2
  50 000a C658     		ldr	r6, [r0, r3]
  51              	.LVL3:
 184:Generated_Source\PSoC4/cyfitter_cfg.c **** 		uint8 count = (uint8)baseAddr;
  52              		.loc 1 184 0
  53 000c F3B2     		uxtb	r3, r6
  54              	.LVL4:
 185:Generated_Source\PSoC4/cyfitter_cfg.c **** 		baseAddr &= 0xFFFFFF00u;
  55              		.loc 1 185 0
  56 000e FF22     		movs	r2, #255
  57 0010 9643     		bics	r6, r2
  58              	.LVL5:
 186:Generated_Source\PSoC4/cyfitter_cfg.c **** 		while (count != 0u)
  59              		.loc 1 186 0
  60 0012 08E0     		b	.L3
  61              	.L4:
 187:Generated_Source\PSoC4/cyfitter_cfg.c **** 		{
 188:Generated_Source\PSoC4/cyfitter_cfg.c **** 			CY_SET_REG8((void *)(baseAddr + data_table[j].offset), data_table[j].value);
  62              		.loc 1 188 0
  63 0014 6A00     		lsls	r2, r5, #1
  64 0016 8A18     		adds	r2, r1, r2
  65 0018 1478     		ldrb	r4, [r2]
  66 001a A419     		adds	r4, r4, r6
  67 001c 5278     		ldrb	r2, [r2, #1]
  68 001e 2270     		strb	r2, [r4]
 189:Generated_Source\PSoC4/cyfitter_cfg.c **** 			j++;
  69              		.loc 1 189 0
  70 0020 0135     		adds	r5, r5, #1
  71              	.LVL6:
 190:Generated_Source\PSoC4/cyfitter_cfg.c **** 			count--;
  72              		.loc 1 190 0
  73 0022 013B     		subs	r3, r3, #1
  74              	.LVL7:
  75 0024 DBB2     		uxtb	r3, r3
  76              	.LVL8:
  77              	.L3:
 186:Generated_Source\PSoC4/cyfitter_cfg.c **** 		{
  78              		.loc 1 186 0
  79 0026 002B     		cmp	r3, #0
  80 0028 F4D1     		bne	.L4
  81              	.LBE2:
 181:Generated_Source\PSoC4/cyfitter_cfg.c **** 	{
  82              		.loc 1 181 0 discriminator 2
  83 002a 0137     		adds	r7, r7, #1
  84              	.LVL9:
  85              	.L2:
 181:Generated_Source\PSoC4/cyfitter_cfg.c **** 	{
  86              		.loc 1 181 0 is_stmt 0 discriminator 1
  87 002c 072F     		cmp	r7, #7
  88 002e EBD9     		bls	.L5
 191:Generated_Source\PSoC4/cyfitter_cfg.c **** 		}
 192:Generated_Source\PSoC4/cyfitter_cfg.c **** 	}
 193:Generated_Source\PSoC4/cyfitter_cfg.c **** }
  89              		.loc 1 193 0 is_stmt 1
ARM GAS  C:\Users\CCPOW_~1\AppData\Local\Temp\cc3yP1bi.s 			page 6


  90              		@ sp needed
  91              	.LVL10:
  92              	.LVL11:
  93 0030 F0BD     		pop	{r4, r5, r6, r7, pc}
  94              		.cfi_endproc
  95              	.LFE3:
  96              		.size	cfg_write_bytes32, .-cfg_write_bytes32
  97 0032 C046     		.section	.text.CYMEMZERO,"ax",%progbits
  98              		.align	2
  99              		.code	16
 100              		.thumb_func
 101              		.type	CYMEMZERO, %function
 102              	CYMEMZERO:
 103              	.LFB0:
  77:Generated_Source\PSoC4/cyfitter_cfg.c **** 	(void)memset(s, 0, n);
 104              		.loc 1 77 0
 105              		.cfi_startproc
 106              		@ args = 0, pretend = 0, frame = 0
 107              		@ frame_needed = 0, uses_anonymous_args = 0
 108              	.LVL12:
 109 0000 10B5     		push	{r4, lr}
 110              		.cfi_def_cfa_offset 8
 111              		.cfi_offset 4, -8
 112              		.cfi_offset 14, -4
 113 0002 0A00     		movs	r2, r1
  78:Generated_Source\PSoC4/cyfitter_cfg.c **** }
 114              		.loc 1 78 0
 115 0004 0021     		movs	r1, #0
 116              	.LVL13:
 117 0006 FFF7FEFF 		bl	memset
 118              	.LVL14:
  79:Generated_Source\PSoC4/cyfitter_cfg.c **** CY_CFG_UNUSED
 119              		.loc 1 79 0
 120              		@ sp needed
 121 000a 10BD     		pop	{r4, pc}
 122              		.cfi_endproc
 123              	.LFE0:
 124              		.size	CYMEMZERO, .-CYMEMZERO
 125              		.section	.text.CYCONFIGCPYCODE,"ax",%progbits
 126              		.align	2
 127              		.code	16
 128              		.thumb_func
 129              		.type	CYCONFIGCPYCODE, %function
 130              	CYCONFIGCPYCODE:
 131              	.LFB2:
  91:Generated_Source\PSoC4/cyfitter_cfg.c **** 	(void)memcpy(dest, src, n);
 132              		.loc 1 91 0
 133              		.cfi_startproc
 134              		@ args = 0, pretend = 0, frame = 0
 135              		@ frame_needed = 0, uses_anonymous_args = 0
 136              	.LVL15:
 137 0000 10B5     		push	{r4, lr}
 138              		.cfi_def_cfa_offset 8
 139              		.cfi_offset 4, -8
 140              		.cfi_offset 14, -4
  92:Generated_Source\PSoC4/cyfitter_cfg.c **** }
 141              		.loc 1 92 0
ARM GAS  C:\Users\CCPOW_~1\AppData\Local\Temp\cc3yP1bi.s 			page 7


 142 0002 FFF7FEFF 		bl	memcpy
 143              	.LVL16:
  93:Generated_Source\PSoC4/cyfitter_cfg.c **** 
 144              		.loc 1 93 0
 145              		@ sp needed
 146 0006 10BD     		pop	{r4, pc}
 147              		.cfi_endproc
 148              	.LFE2:
 149              		.size	CYCONFIGCPYCODE, .-CYCONFIGCPYCODE
 150              		.section	.psocinit,"ax",%progbits
 151              		.align	2
 152              		.code	16
 153              		.thumb_func
 154              		.type	ClockSetup, %function
 155              	ClockSetup:
 156              	.LFB4:
 194:Generated_Source\PSoC4/cyfitter_cfg.c **** 
 195:Generated_Source\PSoC4/cyfitter_cfg.c **** 
 196:Generated_Source\PSoC4/cyfitter_cfg.c **** /*******************************************************************************
 197:Generated_Source\PSoC4/cyfitter_cfg.c **** * Function Name: ClockSetup
 198:Generated_Source\PSoC4/cyfitter_cfg.c **** ********************************************************************************
 199:Generated_Source\PSoC4/cyfitter_cfg.c **** *
 200:Generated_Source\PSoC4/cyfitter_cfg.c **** * Summary:
 201:Generated_Source\PSoC4/cyfitter_cfg.c **** *   Performs the initialization of all of the clocks in the device based on the
 202:Generated_Source\PSoC4/cyfitter_cfg.c **** *   settings in the Clock tab of the DWR.  This includes enabling the requested
 203:Generated_Source\PSoC4/cyfitter_cfg.c **** *   clocks and setting the necessary dividers to produce the desired frequency. 
 204:Generated_Source\PSoC4/cyfitter_cfg.c **** *
 205:Generated_Source\PSoC4/cyfitter_cfg.c **** * Parameters:
 206:Generated_Source\PSoC4/cyfitter_cfg.c **** *   void
 207:Generated_Source\PSoC4/cyfitter_cfg.c **** *
 208:Generated_Source\PSoC4/cyfitter_cfg.c **** * Return:
 209:Generated_Source\PSoC4/cyfitter_cfg.c **** *   void
 210:Generated_Source\PSoC4/cyfitter_cfg.c **** *
 211:Generated_Source\PSoC4/cyfitter_cfg.c **** *******************************************************************************/
 212:Generated_Source\PSoC4/cyfitter_cfg.c **** static void ClockSetup(void);
 213:Generated_Source\PSoC4/cyfitter_cfg.c **** CY_CFG_SECTION
 214:Generated_Source\PSoC4/cyfitter_cfg.c **** static void ClockSetup(void)
 215:Generated_Source\PSoC4/cyfitter_cfg.c **** {
 157              		.loc 1 215 0
 158              		.cfi_startproc
 159              		@ args = 0, pretend = 0, frame = 0
 160              		@ frame_needed = 0, uses_anonymous_args = 0
 161 0000 70B5     		push	{r4, r5, r6, lr}
 162              		.cfi_def_cfa_offset 16
 163              		.cfi_offset 4, -16
 164              		.cfi_offset 5, -12
 165              		.cfi_offset 6, -8
 166              		.cfi_offset 14, -4
 216:Generated_Source\PSoC4/cyfitter_cfg.c **** 	/* Enable HALF_EN before trimming for the flash accelerator. */
 217:Generated_Source\PSoC4/cyfitter_cfg.c **** 	CY_SET_REG32((void CYXDATA *)(CYREG_CLK_SELECT), (CY_GET_REG32((void *)CYREG_CLK_SELECT) | 0x00040
 167              		.loc 1 217 0
 168 0002 164C     		ldr	r4, .L9
 169 0004 2368     		ldr	r3, [r4]
 170 0006 8022     		movs	r2, #128
 171 0008 D202     		lsls	r2, r2, #11
 172 000a 1343     		orrs	r3, r2
 173 000c 2360     		str	r3, [r4]
ARM GAS  C:\Users\CCPOW_~1\AppData\Local\Temp\cc3yP1bi.s 			page 8


 218:Generated_Source\PSoC4/cyfitter_cfg.c **** 
 219:Generated_Source\PSoC4/cyfitter_cfg.c **** 	/* Setup and trim IMO based on desired frequency. */
 220:Generated_Source\PSoC4/cyfitter_cfg.c **** 	CySysClkWriteImoFreq(24u);
 174              		.loc 1 220 0
 175 000e 1820     		movs	r0, #24
 176 0010 FFF7FEFF 		bl	CySysClkWriteImoFreq
 177              	.LVL17:
 221:Generated_Source\PSoC4/cyfitter_cfg.c **** 
 222:Generated_Source\PSoC4/cyfitter_cfg.c **** 	/* Disable HALF_EN since it is not required at this IMO frequency. */
 223:Generated_Source\PSoC4/cyfitter_cfg.c **** 	CY_SET_REG32((void CYXDATA *)(CYREG_CLK_SELECT), (CY_GET_REG32((void *)CYREG_CLK_SELECT) & 0xFFFBF
 178              		.loc 1 223 0
 179 0014 2268     		ldr	r2, [r4]
 180 0016 124B     		ldr	r3, .L9+4
 181 0018 1340     		ands	r3, r2
 182 001a 2360     		str	r3, [r4]
 224:Generated_Source\PSoC4/cyfitter_cfg.c **** 	/* CYDEV_CLK_ILO_CONFIG Starting address: CYDEV_CLK_ILO_CONFIG */
 225:Generated_Source\PSoC4/cyfitter_cfg.c **** 	CY_SET_REG32((void *)(CYREG_CLK_ILO_CONFIG), 0x80000006u);
 183              		.loc 1 225 0
 184 001c 114A     		ldr	r2, .L9+8
 185 001e 124B     		ldr	r3, .L9+12
 186 0020 1A60     		str	r2, [r3]
 226:Generated_Source\PSoC4/cyfitter_cfg.c **** 
 227:Generated_Source\PSoC4/cyfitter_cfg.c **** 
 228:Generated_Source\PSoC4/cyfitter_cfg.c **** 	/* CYDEV_CLK_SELECT00 Starting address: CYDEV_CLK_SELECT00 */
 229:Generated_Source\PSoC4/cyfitter_cfg.c **** 	CY_SET_REG32((void *)(CYREG_CLK_SELECT02), 0x00000010u);
 187              		.loc 1 229 0
 188 0022 1022     		movs	r2, #16
 189 0024 114B     		ldr	r3, .L9+16
 190 0026 1A60     		str	r2, [r3]
 230:Generated_Source\PSoC4/cyfitter_cfg.c **** 	CY_SET_REG32((void *)(CYREG_CLK_SELECT12), 0x00000020u);
 191              		.loc 1 230 0
 192 0028 1032     		adds	r2, r2, #16
 193 002a 114B     		ldr	r3, .L9+20
 194 002c 1A60     		str	r2, [r3]
 231:Generated_Source\PSoC4/cyfitter_cfg.c **** 
 232:Generated_Source\PSoC4/cyfitter_cfg.c **** 	/* CYDEV_CLK_IMO_CONFIG Starting address: CYDEV_CLK_IMO_CONFIG */
 233:Generated_Source\PSoC4/cyfitter_cfg.c **** 	CY_SET_REG32((void *)(CYREG_CLK_IMO_CONFIG), 0x80000000u);
 195              		.loc 1 233 0
 196 002e 8022     		movs	r2, #128
 197 0030 1206     		lsls	r2, r2, #24
 198 0032 104B     		ldr	r3, .L9+24
 199 0034 1A60     		str	r2, [r3]
 234:Generated_Source\PSoC4/cyfitter_cfg.c **** 
 235:Generated_Source\PSoC4/cyfitter_cfg.c **** 	/* CYDEV_CLK_SELECT Starting address: CYDEV_CLK_SELECT */
 236:Generated_Source\PSoC4/cyfitter_cfg.c **** 	CY_SET_REG32((void *)(CYREG_CLK_SELECT), 0x00000000u);
 200              		.loc 1 236 0
 201 0036 0025     		movs	r5, #0
 202 0038 2560     		str	r5, [r4]
 237:Generated_Source\PSoC4/cyfitter_cfg.c **** 
 238:Generated_Source\PSoC4/cyfitter_cfg.c **** 	/* CYDEV_CLK_DIVIDER_A00 Starting address: CYDEV_CLK_DIVIDER_A00 */
 239:Generated_Source\PSoC4/cyfitter_cfg.c **** 	CY_SET_REG32((void *)(CYREG_CLK_DIVIDER_A00), 0x80000010u);
 203              		.loc 1 239 0
 204 003a 0F4A     		ldr	r2, .L9+28
 205 003c 0F4B     		ldr	r3, .L9+32
 206 003e 1A60     		str	r2, [r3]
 240:Generated_Source\PSoC4/cyfitter_cfg.c **** 
 241:Generated_Source\PSoC4/cyfitter_cfg.c **** 	/* CYDEV_CLK_DIVIDER_B00 Starting address: CYDEV_CLK_DIVIDER_B00 */
ARM GAS  C:\Users\CCPOW_~1\AppData\Local\Temp\cc3yP1bi.s 			page 9


 242:Generated_Source\PSoC4/cyfitter_cfg.c **** 	CY_SET_REG32((void *)(CYREG_CLK_DIVIDER_B00), 0x80000019u);
 207              		.loc 1 242 0
 208 0040 0F4A     		ldr	r2, .L9+36
 209 0042 104B     		ldr	r3, .L9+40
 210 0044 1A60     		str	r2, [r3]
 243:Generated_Source\PSoC4/cyfitter_cfg.c **** 
 244:Generated_Source\PSoC4/cyfitter_cfg.c **** 	(void)CyIntSetVector(9u, &CySysWdtIsr);
 211              		.loc 1 244 0
 212 0046 1049     		ldr	r1, .L9+44
 213 0048 0920     		movs	r0, #9
 214 004a FFF7FEFF 		bl	CyIntSetVector
 215              	.LVL18:
 245:Generated_Source\PSoC4/cyfitter_cfg.c **** 	CyIntEnable(9u);
 216              		.loc 1 245 0
 217 004e 0920     		movs	r0, #9
 218 0050 FFF7FEFF 		bl	CyIntEnable
 219              	.LVL19:
 246:Generated_Source\PSoC4/cyfitter_cfg.c **** 	CY_SET_REG32((void *)(CYREG_WDT_CONFIG), 0x00000000u);
 220              		.loc 1 246 0
 221 0054 0D4B     		ldr	r3, .L9+48
 222 0056 1D60     		str	r5, [r3]
 247:Generated_Source\PSoC4/cyfitter_cfg.c **** }
 223              		.loc 1 247 0
 224              		@ sp needed
 225 0058 70BD     		pop	{r4, r5, r6, pc}
 226              	.L10:
 227 005a C046     		.align	2
 228              	.L9:
 229 005c 00010B40 		.word	1074462976
 230 0060 FFFFFBFF 		.word	-262145
 231 0064 06000080 		.word	-2147483642
 232 0068 04010B40 		.word	1074462980
 233 006c 08020240 		.word	1073873416
 234 0070 30020240 		.word	1073873456
 235 0074 08010B40 		.word	1074462984
 236 0078 10000080 		.word	-2147483632
 237 007c 00000240 		.word	1073872896
 238 0080 19000080 		.word	-2147483623
 239 0084 40000240 		.word	1073872960
 240 0088 00000000 		.word	CySysWdtIsr
 241 008c 0C020B40 		.word	1074463244
 242              		.cfi_endproc
 243              	.LFE4:
 244              		.size	ClockSetup, .-ClockSetup
 245              		.align	2
 246              		.global	cyfitter_cfg
 247              		.code	16
 248              		.thumb_func
 249              		.type	cyfitter_cfg, %function
 250              	cyfitter_cfg:
 251              	.LFB6:
 248:Generated_Source\PSoC4/cyfitter_cfg.c **** 
 249:Generated_Source\PSoC4/cyfitter_cfg.c **** 
 250:Generated_Source\PSoC4/cyfitter_cfg.c **** /* Analog API Functions */
 251:Generated_Source\PSoC4/cyfitter_cfg.c **** 
 252:Generated_Source\PSoC4/cyfitter_cfg.c **** 
 253:Generated_Source\PSoC4/cyfitter_cfg.c **** /*******************************************************************************
ARM GAS  C:\Users\CCPOW_~1\AppData\Local\Temp\cc3yP1bi.s 			page 10


 254:Generated_Source\PSoC4/cyfitter_cfg.c **** * Function Name: AnalogSetDefault
 255:Generated_Source\PSoC4/cyfitter_cfg.c **** ********************************************************************************
 256:Generated_Source\PSoC4/cyfitter_cfg.c **** *
 257:Generated_Source\PSoC4/cyfitter_cfg.c **** * Summary:
 258:Generated_Source\PSoC4/cyfitter_cfg.c **** *  Sets up the analog portions of the chip to default values based on chip
 259:Generated_Source\PSoC4/cyfitter_cfg.c **** *  configuration options from the project.
 260:Generated_Source\PSoC4/cyfitter_cfg.c **** *
 261:Generated_Source\PSoC4/cyfitter_cfg.c **** * Parameters:
 262:Generated_Source\PSoC4/cyfitter_cfg.c **** *  void
 263:Generated_Source\PSoC4/cyfitter_cfg.c **** *
 264:Generated_Source\PSoC4/cyfitter_cfg.c **** * Return:
 265:Generated_Source\PSoC4/cyfitter_cfg.c **** *  void
 266:Generated_Source\PSoC4/cyfitter_cfg.c **** *
 267:Generated_Source\PSoC4/cyfitter_cfg.c **** *******************************************************************************/
 268:Generated_Source\PSoC4/cyfitter_cfg.c **** static void AnalogSetDefault(void);
 269:Generated_Source\PSoC4/cyfitter_cfg.c **** static void AnalogSetDefault(void)
 270:Generated_Source\PSoC4/cyfitter_cfg.c **** {
 271:Generated_Source\PSoC4/cyfitter_cfg.c **** }
 272:Generated_Source\PSoC4/cyfitter_cfg.c **** 
 273:Generated_Source\PSoC4/cyfitter_cfg.c **** 
 274:Generated_Source\PSoC4/cyfitter_cfg.c **** 
 275:Generated_Source\PSoC4/cyfitter_cfg.c **** 
 276:Generated_Source\PSoC4/cyfitter_cfg.c **** /*******************************************************************************
 277:Generated_Source\PSoC4/cyfitter_cfg.c **** * Function Name: cyfitter_cfg
 278:Generated_Source\PSoC4/cyfitter_cfg.c **** ********************************************************************************
 279:Generated_Source\PSoC4/cyfitter_cfg.c **** * Summary:
 280:Generated_Source\PSoC4/cyfitter_cfg.c **** *  This function is called by the start-up code for the selected device. It
 281:Generated_Source\PSoC4/cyfitter_cfg.c **** *  performs all of the necessary device configuration based on the design
 282:Generated_Source\PSoC4/cyfitter_cfg.c **** *  settings.  This includes settings from the Design Wide Resources (DWR) such
 283:Generated_Source\PSoC4/cyfitter_cfg.c **** *  as Clocks and Pins as well as any component configuration that is necessary.
 284:Generated_Source\PSoC4/cyfitter_cfg.c **** *
 285:Generated_Source\PSoC4/cyfitter_cfg.c **** * Parameters:
 286:Generated_Source\PSoC4/cyfitter_cfg.c **** *   void
 287:Generated_Source\PSoC4/cyfitter_cfg.c **** *
 288:Generated_Source\PSoC4/cyfitter_cfg.c **** * Return:
 289:Generated_Source\PSoC4/cyfitter_cfg.c **** *   void
 290:Generated_Source\PSoC4/cyfitter_cfg.c **** *
 291:Generated_Source\PSoC4/cyfitter_cfg.c **** *******************************************************************************/
 292:Generated_Source\PSoC4/cyfitter_cfg.c **** CY_CFG_SECTION
 293:Generated_Source\PSoC4/cyfitter_cfg.c **** void cyfitter_cfg(void)
 294:Generated_Source\PSoC4/cyfitter_cfg.c **** {
 252              		.loc 1 294 0
 253              		.cfi_startproc
 254              		@ args = 0, pretend = 0, frame = 0
 255              		@ frame_needed = 0, uses_anonymous_args = 0
 256 0090 70B5     		push	{r4, r5, r6, lr}
 257              		.cfi_def_cfa_offset 16
 258              		.cfi_offset 4, -16
 259              		.cfi_offset 5, -12
 260              		.cfi_offset 6, -8
 261              		.cfi_offset 14, -4
 295:Generated_Source\PSoC4/cyfitter_cfg.c **** 	/* Disable interrupts by default. Let user enable if/when they want. */
 296:Generated_Source\PSoC4/cyfitter_cfg.c **** 	CyGlobalIntDisable;
 262              		.loc 1 296 0
 263              		.syntax divided
 264              	@ 296 "Generated_Source\PSoC4\cyfitter_cfg.c" 1
 265 0092 72B6     		CPSID   i
ARM GAS  C:\Users\CCPOW_~1\AppData\Local\Temp\cc3yP1bi.s 			page 11


 266              	@ 0 "" 2
 297:Generated_Source\PSoC4/cyfitter_cfg.c **** 
 298:Generated_Source\PSoC4/cyfitter_cfg.c **** 	/* Enable the clock in the interrupt controller for the routed interrupts */
 299:Generated_Source\PSoC4/cyfitter_cfg.c **** 	CY_SET_REG8((void *)CYREG_UDB_UDBIF_INT_CLK_CTL, 0x01u);
 267              		.loc 1 299 0
 268              		.thumb
 269              		.syntax unified
 270 0094 0122     		movs	r2, #1
 271 0096 414B     		ldr	r3, .L16
 272 0098 1A70     		strb	r2, [r3]
 273              	.LVL20:
 274              	.LBB3:
 300:Generated_Source\PSoC4/cyfitter_cfg.c **** 	{
 301:Generated_Source\PSoC4/cyfitter_cfg.c **** 		static const uint32 CYCODE cy_cfg_addr_table[] = {
 302:Generated_Source\PSoC4/cyfitter_cfg.c **** 			0x400F0003u, /* Base address: 0x400F0000 Count: 3 */
 303:Generated_Source\PSoC4/cyfitter_cfg.c **** 			0x400F3014u, /* Base address: 0x400F3000 Count: 20 */
 304:Generated_Source\PSoC4/cyfitter_cfg.c **** 			0x400F3131u, /* Base address: 0x400F3100 Count: 49 */
 305:Generated_Source\PSoC4/cyfitter_cfg.c **** 			0x400F326Au, /* Base address: 0x400F3200 Count: 106 */
 306:Generated_Source\PSoC4/cyfitter_cfg.c **** 			0x400F3353u, /* Base address: 0x400F3300 Count: 83 */
 307:Generated_Source\PSoC4/cyfitter_cfg.c **** 			0x400F4009u, /* Base address: 0x400F4000 Count: 9 */
 308:Generated_Source\PSoC4/cyfitter_cfg.c **** 			0x400F410Bu, /* Base address: 0x400F4100 Count: 11 */
 309:Generated_Source\PSoC4/cyfitter_cfg.c **** 			0x400F6002u, /* Base address: 0x400F6000 Count: 2 */
 310:Generated_Source\PSoC4/cyfitter_cfg.c **** 		};
 311:Generated_Source\PSoC4/cyfitter_cfg.c **** 
 312:Generated_Source\PSoC4/cyfitter_cfg.c **** 		static const cy_cfg_addrvalue_t CYCODE cy_cfg_data_table[] = {
 313:Generated_Source\PSoC4/cyfitter_cfg.c **** 			{0x80u, 0x38u},
 314:Generated_Source\PSoC4/cyfitter_cfg.c **** 			{0x81u, 0x72u},
 315:Generated_Source\PSoC4/cyfitter_cfg.c **** 			{0x82u, 0x0Fu},
 316:Generated_Source\PSoC4/cyfitter_cfg.c **** 			{0x02u, 0x02u},
 317:Generated_Source\PSoC4/cyfitter_cfg.c **** 			{0x04u, 0x08u},
 318:Generated_Source\PSoC4/cyfitter_cfg.c **** 			{0x12u, 0x01u},
 319:Generated_Source\PSoC4/cyfitter_cfg.c **** 			{0x15u, 0x01u},
 320:Generated_Source\PSoC4/cyfitter_cfg.c **** 			{0x1Eu, 0x04u},
 321:Generated_Source\PSoC4/cyfitter_cfg.c **** 			{0x26u, 0x01u},
 322:Generated_Source\PSoC4/cyfitter_cfg.c **** 			{0x2Eu, 0x02u},
 323:Generated_Source\PSoC4/cyfitter_cfg.c **** 			{0x30u, 0x01u},
 324:Generated_Source\PSoC4/cyfitter_cfg.c **** 			{0x32u, 0x08u},
 325:Generated_Source\PSoC4/cyfitter_cfg.c **** 			{0x33u, 0x01u},
 326:Generated_Source\PSoC4/cyfitter_cfg.c **** 			{0x34u, 0x02u},
 327:Generated_Source\PSoC4/cyfitter_cfg.c **** 			{0x36u, 0x04u},
 328:Generated_Source\PSoC4/cyfitter_cfg.c **** 			{0x3Eu, 0x15u},
 329:Generated_Source\PSoC4/cyfitter_cfg.c **** 			{0x3Fu, 0x04u},
 330:Generated_Source\PSoC4/cyfitter_cfg.c **** 			{0x54u, 0x18u},
 331:Generated_Source\PSoC4/cyfitter_cfg.c **** 			{0x56u, 0x04u},
 332:Generated_Source\PSoC4/cyfitter_cfg.c **** 			{0x58u, 0x04u},
 333:Generated_Source\PSoC4/cyfitter_cfg.c **** 			{0x59u, 0x04u},
 334:Generated_Source\PSoC4/cyfitter_cfg.c **** 			{0x5Bu, 0x04u},
 335:Generated_Source\PSoC4/cyfitter_cfg.c **** 			{0x5Fu, 0x01u},
 336:Generated_Source\PSoC4/cyfitter_cfg.c **** 			{0x00u, 0x08u},
 337:Generated_Source\PSoC4/cyfitter_cfg.c **** 			{0x02u, 0x80u},
 338:Generated_Source\PSoC4/cyfitter_cfg.c **** 			{0x04u, 0x88u},
 339:Generated_Source\PSoC4/cyfitter_cfg.c **** 			{0x05u, 0x21u},
 340:Generated_Source\PSoC4/cyfitter_cfg.c **** 			{0x09u, 0x02u},
 341:Generated_Source\PSoC4/cyfitter_cfg.c **** 			{0x0Bu, 0x01u},
 342:Generated_Source\PSoC4/cyfitter_cfg.c **** 			{0x0Du, 0x28u},
 343:Generated_Source\PSoC4/cyfitter_cfg.c **** 			{0x0Eu, 0x02u},
 344:Generated_Source\PSoC4/cyfitter_cfg.c **** 			{0x10u, 0x22u},
ARM GAS  C:\Users\CCPOW_~1\AppData\Local\Temp\cc3yP1bi.s 			page 12


 345:Generated_Source\PSoC4/cyfitter_cfg.c **** 			{0x14u, 0x02u},
 346:Generated_Source\PSoC4/cyfitter_cfg.c **** 			{0x17u, 0x2Au},
 347:Generated_Source\PSoC4/cyfitter_cfg.c **** 			{0x18u, 0x04u},
 348:Generated_Source\PSoC4/cyfitter_cfg.c **** 			{0x19u, 0x88u},
 349:Generated_Source\PSoC4/cyfitter_cfg.c **** 			{0x1Bu, 0x01u},
 350:Generated_Source\PSoC4/cyfitter_cfg.c **** 			{0x1Du, 0x2Au},
 351:Generated_Source\PSoC4/cyfitter_cfg.c **** 			{0x1Eu, 0x01u},
 352:Generated_Source\PSoC4/cyfitter_cfg.c **** 			{0x1Fu, 0x28u},
 353:Generated_Source\PSoC4/cyfitter_cfg.c **** 			{0x23u, 0x10u},
 354:Generated_Source\PSoC4/cyfitter_cfg.c **** 			{0x26u, 0xA7u},
 355:Generated_Source\PSoC4/cyfitter_cfg.c **** 			{0x27u, 0x04u},
 356:Generated_Source\PSoC4/cyfitter_cfg.c **** 			{0x2Du, 0x80u},
 357:Generated_Source\PSoC4/cyfitter_cfg.c **** 			{0x2Fu, 0x28u},
 358:Generated_Source\PSoC4/cyfitter_cfg.c **** 			{0x32u, 0x04u},
 359:Generated_Source\PSoC4/cyfitter_cfg.c **** 			{0x36u, 0x2Au},
 360:Generated_Source\PSoC4/cyfitter_cfg.c **** 			{0x3Eu, 0xAAu},
 361:Generated_Source\PSoC4/cyfitter_cfg.c **** 			{0x45u, 0x22u},
 362:Generated_Source\PSoC4/cyfitter_cfg.c **** 			{0x47u, 0x44u},
 363:Generated_Source\PSoC4/cyfitter_cfg.c **** 			{0x4Cu, 0x24u},
 364:Generated_Source\PSoC4/cyfitter_cfg.c **** 			{0x4Eu, 0x08u},
 365:Generated_Source\PSoC4/cyfitter_cfg.c **** 			{0x54u, 0x02u},
 366:Generated_Source\PSoC4/cyfitter_cfg.c **** 			{0x5Au, 0x01u},
 367:Generated_Source\PSoC4/cyfitter_cfg.c **** 			{0x5Eu, 0x08u},
 368:Generated_Source\PSoC4/cyfitter_cfg.c **** 			{0x60u, 0x04u},
 369:Generated_Source\PSoC4/cyfitter_cfg.c **** 			{0x63u, 0x42u},
 370:Generated_Source\PSoC4/cyfitter_cfg.c **** 			{0x6Eu, 0x14u},
 371:Generated_Source\PSoC4/cyfitter_cfg.c **** 			{0x6Fu, 0x01u},
 372:Generated_Source\PSoC4/cyfitter_cfg.c **** 			{0x76u, 0x2Au},
 373:Generated_Source\PSoC4/cyfitter_cfg.c **** 			{0x77u, 0x2Au},
 374:Generated_Source\PSoC4/cyfitter_cfg.c **** 			{0x87u, 0x40u},
 375:Generated_Source\PSoC4/cyfitter_cfg.c **** 			{0xC0u, 0xFCu},
 376:Generated_Source\PSoC4/cyfitter_cfg.c **** 			{0xC2u, 0xE9u},
 377:Generated_Source\PSoC4/cyfitter_cfg.c **** 			{0xC4u, 0xF5u},
 378:Generated_Source\PSoC4/cyfitter_cfg.c **** 			{0xCAu, 0x70u},
 379:Generated_Source\PSoC4/cyfitter_cfg.c **** 			{0xCCu, 0xE2u},
 380:Generated_Source\PSoC4/cyfitter_cfg.c **** 			{0xCEu, 0xF0u},
 381:Generated_Source\PSoC4/cyfitter_cfg.c **** 			{0xD0u, 0xF0u},
 382:Generated_Source\PSoC4/cyfitter_cfg.c **** 			{0xD2u, 0x20u},
 383:Generated_Source\PSoC4/cyfitter_cfg.c **** 			{0xD6u, 0x41u},
 384:Generated_Source\PSoC4/cyfitter_cfg.c **** 			{0xD8u, 0x0Du},
 385:Generated_Source\PSoC4/cyfitter_cfg.c **** 			{0x00u, 0x13u},
 386:Generated_Source\PSoC4/cyfitter_cfg.c **** 			{0x01u, 0x01u},
 387:Generated_Source\PSoC4/cyfitter_cfg.c **** 			{0x02u, 0x04u},
 388:Generated_Source\PSoC4/cyfitter_cfg.c **** 			{0x03u, 0x0Au},
 389:Generated_Source\PSoC4/cyfitter_cfg.c **** 			{0x04u, 0x0Au},
 390:Generated_Source\PSoC4/cyfitter_cfg.c **** 			{0x05u, 0x13u},
 391:Generated_Source\PSoC4/cyfitter_cfg.c **** 			{0x06u, 0x14u},
 392:Generated_Source\PSoC4/cyfitter_cfg.c **** 			{0x08u, 0x13u},
 393:Generated_Source\PSoC4/cyfitter_cfg.c **** 			{0x09u, 0x13u},
 394:Generated_Source\PSoC4/cyfitter_cfg.c **** 			{0x0Au, 0x0Cu},
 395:Generated_Source\PSoC4/cyfitter_cfg.c **** 			{0x0Cu, 0x40u},
 396:Generated_Source\PSoC4/cyfitter_cfg.c **** 			{0x0Eu, 0x20u},
 397:Generated_Source\PSoC4/cyfitter_cfg.c **** 			{0x11u, 0x10u},
 398:Generated_Source\PSoC4/cyfitter_cfg.c **** 			{0x12u, 0x08u},
 399:Generated_Source\PSoC4/cyfitter_cfg.c **** 			{0x14u, 0x20u},
 400:Generated_Source\PSoC4/cyfitter_cfg.c **** 			{0x16u, 0xC0u},
 401:Generated_Source\PSoC4/cyfitter_cfg.c **** 			{0x18u, 0xE0u},
ARM GAS  C:\Users\CCPOW_~1\AppData\Local\Temp\cc3yP1bi.s 			page 13


 402:Generated_Source\PSoC4/cyfitter_cfg.c **** 			{0x19u, 0x02u},
 403:Generated_Source\PSoC4/cyfitter_cfg.c **** 			{0x1Bu, 0x09u},
 404:Generated_Source\PSoC4/cyfitter_cfg.c **** 			{0x1Cu, 0x03u},
 405:Generated_Source\PSoC4/cyfitter_cfg.c **** 			{0x1Eu, 0x14u},
 406:Generated_Source\PSoC4/cyfitter_cfg.c **** 			{0x26u, 0x15u},
 407:Generated_Source\PSoC4/cyfitter_cfg.c **** 			{0x28u, 0x80u},
 408:Generated_Source\PSoC4/cyfitter_cfg.c **** 			{0x2Au, 0x20u},
 409:Generated_Source\PSoC4/cyfitter_cfg.c **** 			{0x2Bu, 0x04u},
 410:Generated_Source\PSoC4/cyfitter_cfg.c **** 			{0x2Cu, 0xE0u},
 411:Generated_Source\PSoC4/cyfitter_cfg.c **** 			{0x30u, 0x10u},
 412:Generated_Source\PSoC4/cyfitter_cfg.c **** 			{0x31u, 0x0Cu},
 413:Generated_Source\PSoC4/cyfitter_cfg.c **** 			{0x32u, 0xE0u},
 414:Generated_Source\PSoC4/cyfitter_cfg.c **** 			{0x33u, 0x03u},
 415:Generated_Source\PSoC4/cyfitter_cfg.c **** 			{0x34u, 0x0Fu},
 416:Generated_Source\PSoC4/cyfitter_cfg.c **** 			{0x35u, 0x10u},
 417:Generated_Source\PSoC4/cyfitter_cfg.c **** 			{0x3Au, 0x20u},
 418:Generated_Source\PSoC4/cyfitter_cfg.c **** 			{0x3Eu, 0x01u},
 419:Generated_Source\PSoC4/cyfitter_cfg.c **** 			{0x3Fu, 0x01u},
 420:Generated_Source\PSoC4/cyfitter_cfg.c **** 			{0x40u, 0x36u},
 421:Generated_Source\PSoC4/cyfitter_cfg.c **** 			{0x41u, 0x01u},
 422:Generated_Source\PSoC4/cyfitter_cfg.c **** 			{0x46u, 0xB0u},
 423:Generated_Source\PSoC4/cyfitter_cfg.c **** 			{0x47u, 0xCEu},
 424:Generated_Source\PSoC4/cyfitter_cfg.c **** 			{0x48u, 0x38u},
 425:Generated_Source\PSoC4/cyfitter_cfg.c **** 			{0x49u, 0xFFu},
 426:Generated_Source\PSoC4/cyfitter_cfg.c **** 			{0x4Au, 0xFFu},
 427:Generated_Source\PSoC4/cyfitter_cfg.c **** 			{0x4Bu, 0xFFu},
 428:Generated_Source\PSoC4/cyfitter_cfg.c **** 			{0x4Eu, 0xF0u},
 429:Generated_Source\PSoC4/cyfitter_cfg.c **** 			{0x4Fu, 0x44u},
 430:Generated_Source\PSoC4/cyfitter_cfg.c **** 			{0x50u, 0x0Cu},
 431:Generated_Source\PSoC4/cyfitter_cfg.c **** 			{0x54u, 0x01u},
 432:Generated_Source\PSoC4/cyfitter_cfg.c **** 			{0x56u, 0x04u},
 433:Generated_Source\PSoC4/cyfitter_cfg.c **** 			{0x58u, 0x04u},
 434:Generated_Source\PSoC4/cyfitter_cfg.c **** 			{0x59u, 0x04u},
 435:Generated_Source\PSoC4/cyfitter_cfg.c **** 			{0x5Au, 0x04u},
 436:Generated_Source\PSoC4/cyfitter_cfg.c **** 			{0x5Bu, 0x04u},
 437:Generated_Source\PSoC4/cyfitter_cfg.c **** 			{0x5Fu, 0x01u},
 438:Generated_Source\PSoC4/cyfitter_cfg.c **** 			{0x66u, 0xC0u},
 439:Generated_Source\PSoC4/cyfitter_cfg.c **** 			{0x6Au, 0x40u},
 440:Generated_Source\PSoC4/cyfitter_cfg.c **** 			{0x6Bu, 0x02u},
 441:Generated_Source\PSoC4/cyfitter_cfg.c **** 			{0x84u, 0x14u},
 442:Generated_Source\PSoC4/cyfitter_cfg.c **** 			{0x85u, 0x80u},
 443:Generated_Source\PSoC4/cyfitter_cfg.c **** 			{0x87u, 0x13u},
 444:Generated_Source\PSoC4/cyfitter_cfg.c **** 			{0x8Cu, 0x0Cu},
 445:Generated_Source\PSoC4/cyfitter_cfg.c **** 			{0x8Eu, 0x71u},
 446:Generated_Source\PSoC4/cyfitter_cfg.c **** 			{0x8Fu, 0x0Cu},
 447:Generated_Source\PSoC4/cyfitter_cfg.c **** 			{0x90u, 0x09u},
 448:Generated_Source\PSoC4/cyfitter_cfg.c **** 			{0x92u, 0xD0u},
 449:Generated_Source\PSoC4/cyfitter_cfg.c **** 			{0x94u, 0xDCu},
 450:Generated_Source\PSoC4/cyfitter_cfg.c **** 			{0x95u, 0x2Cu},
 451:Generated_Source\PSoC4/cyfitter_cfg.c **** 			{0x96u, 0x22u},
 452:Generated_Source\PSoC4/cyfitter_cfg.c **** 			{0x97u, 0x43u},
 453:Generated_Source\PSoC4/cyfitter_cfg.c **** 			{0x99u, 0x71u},
 454:Generated_Source\PSoC4/cyfitter_cfg.c **** 			{0x9Au, 0x03u},
 455:Generated_Source\PSoC4/cyfitter_cfg.c **** 			{0x9Bu, 0x06u},
 456:Generated_Source\PSoC4/cyfitter_cfg.c **** 			{0x9Fu, 0x08u},
 457:Generated_Source\PSoC4/cyfitter_cfg.c **** 			{0xA0u, 0x10u},
 458:Generated_Source\PSoC4/cyfitter_cfg.c **** 			{0xA1u, 0x71u},
ARM GAS  C:\Users\CCPOW_~1\AppData\Local\Temp\cc3yP1bi.s 			page 14


 459:Generated_Source\PSoC4/cyfitter_cfg.c **** 			{0xA2u, 0x40u},
 460:Generated_Source\PSoC4/cyfitter_cfg.c **** 			{0xA3u, 0x0Eu},
 461:Generated_Source\PSoC4/cyfitter_cfg.c **** 			{0xA4u, 0x10u},
 462:Generated_Source\PSoC4/cyfitter_cfg.c **** 			{0xA6u, 0xACu},
 463:Generated_Source\PSoC4/cyfitter_cfg.c **** 			{0xAAu, 0x20u},
 464:Generated_Source\PSoC4/cyfitter_cfg.c **** 			{0xB0u, 0xE0u},
 465:Generated_Source\PSoC4/cyfitter_cfg.c **** 			{0xB1u, 0xC0u},
 466:Generated_Source\PSoC4/cyfitter_cfg.c **** 			{0xB3u, 0x0Fu},
 467:Generated_Source\PSoC4/cyfitter_cfg.c **** 			{0xB4u, 0x1Fu},
 468:Generated_Source\PSoC4/cyfitter_cfg.c **** 			{0xB5u, 0x30u},
 469:Generated_Source\PSoC4/cyfitter_cfg.c **** 			{0xB9u, 0x22u},
 470:Generated_Source\PSoC4/cyfitter_cfg.c **** 			{0xBAu, 0x02u},
 471:Generated_Source\PSoC4/cyfitter_cfg.c **** 			{0xBBu, 0x08u},
 472:Generated_Source\PSoC4/cyfitter_cfg.c **** 			{0xBFu, 0x10u},
 473:Generated_Source\PSoC4/cyfitter_cfg.c **** 			{0xC0u, 0x02u},
 474:Generated_Source\PSoC4/cyfitter_cfg.c **** 			{0xC5u, 0x40u},
 475:Generated_Source\PSoC4/cyfitter_cfg.c **** 			{0xC9u, 0xFFu},
 476:Generated_Source\PSoC4/cyfitter_cfg.c **** 			{0xCAu, 0x07u},
 477:Generated_Source\PSoC4/cyfitter_cfg.c **** 			{0xCBu, 0xFFu},
 478:Generated_Source\PSoC4/cyfitter_cfg.c **** 			{0xCCu, 0x40u},
 479:Generated_Source\PSoC4/cyfitter_cfg.c **** 			{0xCDu, 0x20u},
 480:Generated_Source\PSoC4/cyfitter_cfg.c **** 			{0xCEu, 0xF0u},
 481:Generated_Source\PSoC4/cyfitter_cfg.c **** 			{0xCFu, 0x05u},
 482:Generated_Source\PSoC4/cyfitter_cfg.c **** 			{0xD0u, 0x08u},
 483:Generated_Source\PSoC4/cyfitter_cfg.c **** 			{0xD8u, 0x04u},
 484:Generated_Source\PSoC4/cyfitter_cfg.c **** 			{0xD9u, 0x04u},
 485:Generated_Source\PSoC4/cyfitter_cfg.c **** 			{0xDAu, 0x04u},
 486:Generated_Source\PSoC4/cyfitter_cfg.c **** 			{0xDFu, 0x01u},
 487:Generated_Source\PSoC4/cyfitter_cfg.c **** 			{0xE0u, 0x40u},
 488:Generated_Source\PSoC4/cyfitter_cfg.c **** 			{0xE1u, 0xA8u},
 489:Generated_Source\PSoC4/cyfitter_cfg.c **** 			{0xE2u, 0x40u},
 490:Generated_Source\PSoC4/cyfitter_cfg.c **** 			{0xE3u, 0x20u},
 491:Generated_Source\PSoC4/cyfitter_cfg.c **** 			{0x00u, 0x40u},
 492:Generated_Source\PSoC4/cyfitter_cfg.c **** 			{0x02u, 0x10u},
 493:Generated_Source\PSoC4/cyfitter_cfg.c **** 			{0x04u, 0x80u},
 494:Generated_Source\PSoC4/cyfitter_cfg.c **** 			{0x05u, 0x15u},
 495:Generated_Source\PSoC4/cyfitter_cfg.c **** 			{0x09u, 0x08u},
 496:Generated_Source\PSoC4/cyfitter_cfg.c **** 			{0x0Au, 0x08u},
 497:Generated_Source\PSoC4/cyfitter_cfg.c **** 			{0x0Bu, 0x40u},
 498:Generated_Source\PSoC4/cyfitter_cfg.c **** 			{0x0Eu, 0x24u},
 499:Generated_Source\PSoC4/cyfitter_cfg.c **** 			{0x0Fu, 0x42u},
 500:Generated_Source\PSoC4/cyfitter_cfg.c **** 			{0x10u, 0x90u},
 501:Generated_Source\PSoC4/cyfitter_cfg.c **** 			{0x12u, 0x08u},
 502:Generated_Source\PSoC4/cyfitter_cfg.c **** 			{0x15u, 0x88u},
 503:Generated_Source\PSoC4/cyfitter_cfg.c **** 			{0x17u, 0x10u},
 504:Generated_Source\PSoC4/cyfitter_cfg.c **** 			{0x18u, 0x40u},
 505:Generated_Source\PSoC4/cyfitter_cfg.c **** 			{0x19u, 0x01u},
 506:Generated_Source\PSoC4/cyfitter_cfg.c **** 			{0x1Au, 0x08u},
 507:Generated_Source\PSoC4/cyfitter_cfg.c **** 			{0x1Du, 0x10u},
 508:Generated_Source\PSoC4/cyfitter_cfg.c **** 			{0x1Eu, 0x60u},
 509:Generated_Source\PSoC4/cyfitter_cfg.c **** 			{0x1Fu, 0x04u},
 510:Generated_Source\PSoC4/cyfitter_cfg.c **** 			{0x20u, 0x04u},
 511:Generated_Source\PSoC4/cyfitter_cfg.c **** 			{0x21u, 0x08u},
 512:Generated_Source\PSoC4/cyfitter_cfg.c **** 			{0x23u, 0x40u},
 513:Generated_Source\PSoC4/cyfitter_cfg.c **** 			{0x24u, 0x08u},
 514:Generated_Source\PSoC4/cyfitter_cfg.c **** 			{0x27u, 0x50u},
 515:Generated_Source\PSoC4/cyfitter_cfg.c **** 			{0x29u, 0x01u},
ARM GAS  C:\Users\CCPOW_~1\AppData\Local\Temp\cc3yP1bi.s 			page 15


 516:Generated_Source\PSoC4/cyfitter_cfg.c **** 			{0x2Au, 0x02u},
 517:Generated_Source\PSoC4/cyfitter_cfg.c **** 			{0x2Du, 0x20u},
 518:Generated_Source\PSoC4/cyfitter_cfg.c **** 			{0x2Fu, 0x04u},
 519:Generated_Source\PSoC4/cyfitter_cfg.c **** 			{0x30u, 0x90u},
 520:Generated_Source\PSoC4/cyfitter_cfg.c **** 			{0x31u, 0x1Cu},
 521:Generated_Source\PSoC4/cyfitter_cfg.c **** 			{0x37u, 0x11u},
 522:Generated_Source\PSoC4/cyfitter_cfg.c **** 			{0x39u, 0x08u},
 523:Generated_Source\PSoC4/cyfitter_cfg.c **** 			{0x3Bu, 0x40u},
 524:Generated_Source\PSoC4/cyfitter_cfg.c **** 			{0x3Eu, 0x14u},
 525:Generated_Source\PSoC4/cyfitter_cfg.c **** 			{0x3Fu, 0x01u},
 526:Generated_Source\PSoC4/cyfitter_cfg.c **** 			{0x40u, 0x04u},
 527:Generated_Source\PSoC4/cyfitter_cfg.c **** 			{0x44u, 0x10u},
 528:Generated_Source\PSoC4/cyfitter_cfg.c **** 			{0x46u, 0x02u},
 529:Generated_Source\PSoC4/cyfitter_cfg.c **** 			{0x48u, 0x80u},
 530:Generated_Source\PSoC4/cyfitter_cfg.c **** 			{0x4Eu, 0x08u},
 531:Generated_Source\PSoC4/cyfitter_cfg.c **** 			{0x51u, 0x04u},
 532:Generated_Source\PSoC4/cyfitter_cfg.c **** 			{0x52u, 0x08u},
 533:Generated_Source\PSoC4/cyfitter_cfg.c **** 			{0x54u, 0x04u},
 534:Generated_Source\PSoC4/cyfitter_cfg.c **** 			{0x56u, 0x10u},
 535:Generated_Source\PSoC4/cyfitter_cfg.c **** 			{0x57u, 0x01u},
 536:Generated_Source\PSoC4/cyfitter_cfg.c **** 			{0x5Du, 0x18u},
 537:Generated_Source\PSoC4/cyfitter_cfg.c **** 			{0x5Eu, 0x40u},
 538:Generated_Source\PSoC4/cyfitter_cfg.c **** 			{0x5Fu, 0x02u},
 539:Generated_Source\PSoC4/cyfitter_cfg.c **** 			{0x67u, 0x80u},
 540:Generated_Source\PSoC4/cyfitter_cfg.c **** 			{0x80u, 0x40u},
 541:Generated_Source\PSoC4/cyfitter_cfg.c **** 			{0x82u, 0x80u},
 542:Generated_Source\PSoC4/cyfitter_cfg.c **** 			{0x83u, 0x01u},
 543:Generated_Source\PSoC4/cyfitter_cfg.c **** 			{0x84u, 0x04u},
 544:Generated_Source\PSoC4/cyfitter_cfg.c **** 			{0x87u, 0x42u},
 545:Generated_Source\PSoC4/cyfitter_cfg.c **** 			{0x89u, 0x10u},
 546:Generated_Source\PSoC4/cyfitter_cfg.c **** 			{0x8Bu, 0x01u},
 547:Generated_Source\PSoC4/cyfitter_cfg.c **** 			{0x91u, 0x80u},
 548:Generated_Source\PSoC4/cyfitter_cfg.c **** 			{0x92u, 0x14u},
 549:Generated_Source\PSoC4/cyfitter_cfg.c **** 			{0x94u, 0x88u},
 550:Generated_Source\PSoC4/cyfitter_cfg.c **** 			{0x96u, 0x08u},
 551:Generated_Source\PSoC4/cyfitter_cfg.c **** 			{0x97u, 0x01u},
 552:Generated_Source\PSoC4/cyfitter_cfg.c **** 			{0x99u, 0x08u},
 553:Generated_Source\PSoC4/cyfitter_cfg.c **** 			{0x9Bu, 0x01u},
 554:Generated_Source\PSoC4/cyfitter_cfg.c **** 			{0x9Du, 0x20u},
 555:Generated_Source\PSoC4/cyfitter_cfg.c **** 			{0x9Eu, 0x80u},
 556:Generated_Source\PSoC4/cyfitter_cfg.c **** 			{0x9Fu, 0x50u},
 557:Generated_Source\PSoC4/cyfitter_cfg.c **** 			{0xA4u, 0x04u},
 558:Generated_Source\PSoC4/cyfitter_cfg.c **** 			{0xB3u, 0x10u},
 559:Generated_Source\PSoC4/cyfitter_cfg.c **** 			{0xB4u, 0x02u},
 560:Generated_Source\PSoC4/cyfitter_cfg.c **** 			{0xB5u, 0x41u},
 561:Generated_Source\PSoC4/cyfitter_cfg.c **** 			{0xB6u, 0x30u},
 562:Generated_Source\PSoC4/cyfitter_cfg.c **** 			{0xB7u, 0x10u},
 563:Generated_Source\PSoC4/cyfitter_cfg.c **** 			{0xC0u, 0xF5u},
 564:Generated_Source\PSoC4/cyfitter_cfg.c **** 			{0xC2u, 0xFEu},
 565:Generated_Source\PSoC4/cyfitter_cfg.c **** 			{0xC4u, 0xEEu},
 566:Generated_Source\PSoC4/cyfitter_cfg.c **** 			{0xCAu, 0x21u},
 567:Generated_Source\PSoC4/cyfitter_cfg.c **** 			{0xCCu, 0xAEu},
 568:Generated_Source\PSoC4/cyfitter_cfg.c **** 			{0xCEu, 0xEAu},
 569:Generated_Source\PSoC4/cyfitter_cfg.c **** 			{0xD0u, 0x54u},
 570:Generated_Source\PSoC4/cyfitter_cfg.c **** 			{0xD2u, 0x20u},
 571:Generated_Source\PSoC4/cyfitter_cfg.c **** 			{0xD6u, 0xF0u},
 572:Generated_Source\PSoC4/cyfitter_cfg.c **** 			{0xD8u, 0x80u},
ARM GAS  C:\Users\CCPOW_~1\AppData\Local\Temp\cc3yP1bi.s 			page 16


 573:Generated_Source\PSoC4/cyfitter_cfg.c **** 			{0xEEu, 0x80u},
 574:Generated_Source\PSoC4/cyfitter_cfg.c **** 			{0x0Eu, 0x08u},
 575:Generated_Source\PSoC4/cyfitter_cfg.c **** 			{0x6Du, 0x01u},
 576:Generated_Source\PSoC4/cyfitter_cfg.c **** 			{0x6Eu, 0x08u},
 577:Generated_Source\PSoC4/cyfitter_cfg.c **** 			{0x73u, 0x02u},
 578:Generated_Source\PSoC4/cyfitter_cfg.c **** 			{0x87u, 0x02u},
 579:Generated_Source\PSoC4/cyfitter_cfg.c **** 			{0xC2u, 0x80u},
 580:Generated_Source\PSoC4/cyfitter_cfg.c **** 			{0xDAu, 0x80u},
 581:Generated_Source\PSoC4/cyfitter_cfg.c **** 			{0xDCu, 0x60u},
 582:Generated_Source\PSoC4/cyfitter_cfg.c **** 			{0xE6u, 0x40u},
 583:Generated_Source\PSoC4/cyfitter_cfg.c **** 			{0x0Au, 0x10u},
 584:Generated_Source\PSoC4/cyfitter_cfg.c **** 			{0x5Fu, 0x08u},
 585:Generated_Source\PSoC4/cyfitter_cfg.c **** 			{0x82u, 0x10u},
 586:Generated_Source\PSoC4/cyfitter_cfg.c **** 			{0x85u, 0x01u},
 587:Generated_Source\PSoC4/cyfitter_cfg.c **** 			{0x95u, 0x01u},
 588:Generated_Source\PSoC4/cyfitter_cfg.c **** 			{0x9Bu, 0x08u},
 589:Generated_Source\PSoC4/cyfitter_cfg.c **** 			{0xB3u, 0x08u},
 590:Generated_Source\PSoC4/cyfitter_cfg.c **** 			{0xC2u, 0x10u},
 591:Generated_Source\PSoC4/cyfitter_cfg.c **** 			{0xD6u, 0x80u},
 592:Generated_Source\PSoC4/cyfitter_cfg.c **** 			{0xE0u, 0x80u},
 593:Generated_Source\PSoC4/cyfitter_cfg.c **** 			{0xE2u, 0x10u},
 594:Generated_Source\PSoC4/cyfitter_cfg.c **** 			{0x10u, 0x01u},
 595:Generated_Source\PSoC4/cyfitter_cfg.c **** 			{0x11u, 0x01u},
 596:Generated_Source\PSoC4/cyfitter_cfg.c **** 		};
 597:Generated_Source\PSoC4/cyfitter_cfg.c **** 
 598:Generated_Source\PSoC4/cyfitter_cfg.c **** 
 599:Generated_Source\PSoC4/cyfitter_cfg.c **** 
 600:Generated_Source\PSoC4/cyfitter_cfg.c **** 		CYPACKED typedef struct {
 601:Generated_Source\PSoC4/cyfitter_cfg.c **** 			void CYFAR *address;
 602:Generated_Source\PSoC4/cyfitter_cfg.c **** 			uint16 size;
 603:Generated_Source\PSoC4/cyfitter_cfg.c **** 		} CYPACKED_ATTR cfg_memset_t;
 604:Generated_Source\PSoC4/cyfitter_cfg.c **** 
 605:Generated_Source\PSoC4/cyfitter_cfg.c **** 
 606:Generated_Source\PSoC4/cyfitter_cfg.c **** 		CYPACKED typedef struct {
 607:Generated_Source\PSoC4/cyfitter_cfg.c **** 			void CYFAR *dest;
 608:Generated_Source\PSoC4/cyfitter_cfg.c **** 			const void CYCODE *src;
 609:Generated_Source\PSoC4/cyfitter_cfg.c **** 			uint16 size;
 610:Generated_Source\PSoC4/cyfitter_cfg.c **** 		} CYPACKED_ATTR cfg_memcpy_t;
 611:Generated_Source\PSoC4/cyfitter_cfg.c **** 
 612:Generated_Source\PSoC4/cyfitter_cfg.c **** 		static const cfg_memset_t CYCODE cfg_memset_list[] = {
 613:Generated_Source\PSoC4/cyfitter_cfg.c **** 			/* address, size */
 614:Generated_Source\PSoC4/cyfitter_cfg.c **** 			{(void CYFAR *)(CYDEV_UDB_P0_U0_BASE), 128u},
 615:Generated_Source\PSoC4/cyfitter_cfg.c **** 			{(void CYFAR *)(CYDEV_UDB_P0_ROUTE_BASE), 768u},
 616:Generated_Source\PSoC4/cyfitter_cfg.c **** 			{(void CYFAR *)(CYDEV_UDB_DSI0_BASE), 1024u},
 617:Generated_Source\PSoC4/cyfitter_cfg.c **** 		};
 618:Generated_Source\PSoC4/cyfitter_cfg.c **** 
 619:Generated_Source\PSoC4/cyfitter_cfg.c **** 		/* UDB_0_1_1_CONFIG Address: CYDEV_UDB_P0_U1_BASE Size (bytes): 128 */
 620:Generated_Source\PSoC4/cyfitter_cfg.c **** 		static const uint8 CYCODE BS_UDB_0_1_1_CONFIG_VAL[] = {
 621:Generated_Source\PSoC4/cyfitter_cfg.c **** 			0x82u, 0x10u, 0x00u, 0x00u, 0x00u, 0x08u, 0xF3u, 0x00u, 0xC3u, 0x18u, 0x00u, 0x00u, 0x41u, 0x04u
 622:Generated_Source\PSoC4/cyfitter_cfg.c **** 			0x00u, 0x3Cu, 0x00u, 0x42u, 0x0Fu, 0x00u, 0xF0u, 0x03u, 0xF3u, 0x7Fu, 0x0Cu, 0x00u, 0x1Cu, 0x00u
 623:Generated_Source\PSoC4/cyfitter_cfg.c **** 			0x08u, 0x00u, 0x00u, 0x00u, 0x04u, 0x67u, 0x00u, 0x18u, 0x0Cu, 0x3Cu, 0x00u, 0x41u, 0xFFu, 0x00u
 624:Generated_Source\PSoC4/cyfitter_cfg.c **** 			0x1Cu, 0x1Fu, 0x2Cu, 0x20u, 0x0Fu, 0x00u, 0xC0u, 0x40u, 0x00u, 0x80u, 0x28u, 0x22u, 0x00u, 0x00u
 625:Generated_Source\PSoC4/cyfitter_cfg.c **** 			0x26u, 0x03u, 0x04u, 0x00u, 0x01u, 0x0Cu, 0x00u, 0xE0u, 0x21u, 0xFFu, 0xFFu, 0xFFu, 0x62u, 0xA0u
 626:Generated_Source\PSoC4/cyfitter_cfg.c **** 			0x0Cu, 0x00u, 0x00u, 0x00u, 0x00u, 0x00u, 0x02u, 0x12u, 0x04u, 0x04u, 0x04u, 0x04u, 0x00u, 0x00u
 627:Generated_Source\PSoC4/cyfitter_cfg.c **** 			0x00u, 0x00u, 0x00u, 0x00u, 0x00u, 0x00u, 0x40u, 0x02u, 0x00u, 0x10u, 0x30u, 0x10u, 0x00u, 0x10u
 628:Generated_Source\PSoC4/cyfitter_cfg.c **** 			0x00u, 0x00u, 0x00u, 0x00u, 0x00u, 0x00u, 0x00u, 0x00u, 0x00u, 0x00u, 0x00u, 0x00u, 0x00u, 0x00u
 629:Generated_Source\PSoC4/cyfitter_cfg.c **** 
ARM GAS  C:\Users\CCPOW_~1\AppData\Local\Temp\cc3yP1bi.s 			page 17


 630:Generated_Source\PSoC4/cyfitter_cfg.c **** 		static const cfg_memcpy_t CYCODE cfg_memcpy_list [] = {
 631:Generated_Source\PSoC4/cyfitter_cfg.c **** 			/* dest, src, size */
 632:Generated_Source\PSoC4/cyfitter_cfg.c **** 			{(void CYFAR *)(CYDEV_UDB_P0_U1_BASE), BS_UDB_0_1_1_CONFIG_VAL, 128u},
 633:Generated_Source\PSoC4/cyfitter_cfg.c **** 		};
 634:Generated_Source\PSoC4/cyfitter_cfg.c **** 
 635:Generated_Source\PSoC4/cyfitter_cfg.c **** 		uint8 CYDATA i;
 636:Generated_Source\PSoC4/cyfitter_cfg.c **** 
 637:Generated_Source\PSoC4/cyfitter_cfg.c **** 		/* Zero out critical memory blocks before beginning configuration */
 638:Generated_Source\PSoC4/cyfitter_cfg.c **** 		for (i = 0u; i < (sizeof(cfg_memset_list)/sizeof(cfg_memset_list[0])); i++)
 275              		.loc 1 638 0
 276 009a 0024     		movs	r4, #0
 277 009c 0FE0     		b	.L12
 278              	.LVL21:
 279              	.L13:
 280              	.LBB4:
 639:Generated_Source\PSoC4/cyfitter_cfg.c **** 		{
 640:Generated_Source\PSoC4/cyfitter_cfg.c **** 			const cfg_memset_t CYCODE * CYDATA ms = &cfg_memset_list[i];
 641:Generated_Source\PSoC4/cyfitter_cfg.c **** 			CYMEMZERO(ms->address, (size_t)(uint32)(ms->size));
 281              		.loc 1 641 0 discriminator 3
 282 009e 4048     		ldr	r0, .L16+4
 283 00a0 6200     		lsls	r2, r4, #1
 284 00a2 1319     		adds	r3, r2, r4
 285 00a4 5900     		lsls	r1, r3, #1
 286 00a6 0B00     		movs	r3, r1
 287 00a8 4118     		adds	r1, r0, r1
 288 00aa 8988     		ldrh	r1, [r1, #4]
 289 00ac 1A5A     		ldrh	r2, [r3, r0]
 290 00ae C318     		adds	r3, r0, r3
 291 00b0 5888     		ldrh	r0, [r3, #2]
 292 00b2 0004     		lsls	r0, r0, #16
 293 00b4 1043     		orrs	r0, r2
 294 00b6 FFF7FEFF 		bl	CYMEMZERO
 295              	.LVL22:
 296              	.LBE4:
 638:Generated_Source\PSoC4/cyfitter_cfg.c **** 		{
 297              		.loc 1 638 0 discriminator 3
 298 00ba 0134     		adds	r4, r4, #1
 299              	.LVL23:
 300 00bc E4B2     		uxtb	r4, r4
 301              	.LVL24:
 302              	.L12:
 638:Generated_Source\PSoC4/cyfitter_cfg.c **** 		{
 303              		.loc 1 638 0 is_stmt 0 discriminator 1
 304 00be 022C     		cmp	r4, #2
 305 00c0 EDD9     		bls	.L13
 306 00c2 0024     		movs	r4, #0
 307              	.LVL25:
 308 00c4 11E0     		b	.L14
 309              	.LVL26:
 310              	.L15:
 311              	.LBB5:
 642:Generated_Source\PSoC4/cyfitter_cfg.c **** 		}
 643:Generated_Source\PSoC4/cyfitter_cfg.c **** 
 644:Generated_Source\PSoC4/cyfitter_cfg.c **** 		/* Copy device configuration data into registers */
 645:Generated_Source\PSoC4/cyfitter_cfg.c **** 		for (i = 0u; i < (sizeof(cfg_memcpy_list)/sizeof(cfg_memcpy_list[0])); i++)
 646:Generated_Source\PSoC4/cyfitter_cfg.c **** 		{
 647:Generated_Source\PSoC4/cyfitter_cfg.c **** 			const cfg_memcpy_t CYCODE * CYDATA mc = &cfg_memcpy_list[i];
ARM GAS  C:\Users\CCPOW_~1\AppData\Local\Temp\cc3yP1bi.s 			page 18


 648:Generated_Source\PSoC4/cyfitter_cfg.c **** 			void * CYDATA destPtr = mc->dest;
 312              		.loc 1 648 0 is_stmt 1 discriminator 3
 313 00c6 364E     		ldr	r6, .L16+4
 314 00c8 A200     		lsls	r2, r4, #2
 315 00ca 1319     		adds	r3, r2, r4
 316 00cc 5900     		lsls	r1, r3, #1
 317 00ce 7118     		adds	r1, r6, r1
 318 00d0 8D8A     		ldrh	r5, [r1, #20]
 319 00d2 C88A     		ldrh	r0, [r1, #22]
 320 00d4 0004     		lsls	r0, r0, #16
 321 00d6 2843     		orrs	r0, r5
 322              	.LVL27:
 649:Generated_Source\PSoC4/cyfitter_cfg.c **** 			const void CYCODE * CYDATA srcPtr = mc->src;
 323              		.loc 1 649 0 discriminator 3
 324 00d8 0A8B     		ldrh	r2, [r1, #24]
 325 00da 498B     		ldrh	r1, [r1, #26]
 326 00dc 0904     		lsls	r1, r1, #16
 327 00de 1143     		orrs	r1, r2
 328              	.LVL28:
 650:Generated_Source\PSoC4/cyfitter_cfg.c **** 			uint16 CYDATA numBytes = mc->size;
 651:Generated_Source\PSoC4/cyfitter_cfg.c **** 			CYCONFIGCPYCODE(destPtr, srcPtr, numBytes);
 329              		.loc 1 651 0 discriminator 3
 330 00e0 8022     		movs	r2, #128
 331 00e2 FFF7FEFF 		bl	CYCONFIGCPYCODE
 332              	.LVL29:
 333              	.LBE5:
 645:Generated_Source\PSoC4/cyfitter_cfg.c **** 		{
 334              		.loc 1 645 0 discriminator 3
 335 00e6 0134     		adds	r4, r4, #1
 336              	.LVL30:
 337 00e8 E4B2     		uxtb	r4, r4
 338              	.LVL31:
 339              	.L14:
 645:Generated_Source\PSoC4/cyfitter_cfg.c **** 		{
 340              		.loc 1 645 0 is_stmt 0 discriminator 1
 341 00ea 002C     		cmp	r4, #0
 342 00ec EBD0     		beq	.L15
 652:Generated_Source\PSoC4/cyfitter_cfg.c **** 		}
 653:Generated_Source\PSoC4/cyfitter_cfg.c **** 
 654:Generated_Source\PSoC4/cyfitter_cfg.c **** 		cfg_write_bytes32(cy_cfg_addr_table, cy_cfg_data_table);
 343              		.loc 1 654 0 is_stmt 1
 344 00ee 2C49     		ldr	r1, .L16+4
 345 00f0 2031     		adds	r1, r1, #32
 346 00f2 2C48     		ldr	r0, .L16+8
 347 00f4 5830     		adds	r0, r0, #88
 348 00f6 FFF7FEFF 		bl	cfg_write_bytes32
 349              	.LVL32:
 655:Generated_Source\PSoC4/cyfitter_cfg.c **** 
 656:Generated_Source\PSoC4/cyfitter_cfg.c **** 		/* Perform normal device configuration. Order is not critical for these items. */
 657:Generated_Source\PSoC4/cyfitter_cfg.c **** 		CY_SET_REG16((void *)(CYREG_UDB_BCTL0_DRV), 0x0100u);
 350              		.loc 1 657 0
 351 00fa 8022     		movs	r2, #128
 352 00fc 5200     		lsls	r2, r2, #1
 353 00fe 2A4B     		ldr	r3, .L16+12
 354 0100 1A80     		strh	r2, [r3]
 658:Generated_Source\PSoC4/cyfitter_cfg.c **** 		CY_SET_REG8((void *)(CYREG_UDB_BCTL0_DRV + 0x2u), 0x01u);
 355              		.loc 1 658 0
ARM GAS  C:\Users\CCPOW_~1\AppData\Local\Temp\cc3yP1bi.s 			page 19


 356 0102 FF3A     		subs	r2, r2, #255
 357 0104 294B     		ldr	r3, .L16+16
 358 0106 1A70     		strb	r2, [r3]
 659:Generated_Source\PSoC4/cyfitter_cfg.c **** 
 660:Generated_Source\PSoC4/cyfitter_cfg.c **** 		/* HSIOM Starting address: CYDEV_HSIOM_BASE */
 661:Generated_Source\PSoC4/cyfitter_cfg.c **** 		CY_SET_REG32((void *)(CYREG_HSIOM_PORT_SEL1), 0x00300000u);
 359              		.loc 1 661 0
 360 0108 C022     		movs	r2, #192
 361 010a 9203     		lsls	r2, r2, #14
 362 010c 284B     		ldr	r3, .L16+20
 363 010e 1A60     		str	r2, [r3]
 662:Generated_Source\PSoC4/cyfitter_cfg.c **** 		CY_SET_REG32((void *)(CYREG_HSIOM_PORT_SEL3), 0x0000EE00u);
 364              		.loc 1 662 0
 365 0110 EE22     		movs	r2, #238
 366 0112 1202     		lsls	r2, r2, #8
 367 0114 274B     		ldr	r3, .L16+24
 368 0116 1A60     		str	r2, [r3]
 663:Generated_Source\PSoC4/cyfitter_cfg.c **** 		CY_SET_REG32((void *)(CYREG_HSIOM_PORT_SEL4), 0x00000099u);
 369              		.loc 1 663 0
 370 0118 9922     		movs	r2, #153
 371 011a 274B     		ldr	r3, .L16+28
 372 011c 1A60     		str	r2, [r3]
 664:Generated_Source\PSoC4/cyfitter_cfg.c **** 
 665:Generated_Source\PSoC4/cyfitter_cfg.c **** 		/* UDB_PA_0 Starting address: CYDEV_UDB_PA0_BASE */
 666:Generated_Source\PSoC4/cyfitter_cfg.c **** 		CY_SET_REG32((void *)(CYDEV_UDB_PA0_BASE), 0x00990000u);
 373              		.loc 1 666 0
 374 011e 9923     		movs	r3, #153
 375 0120 1B04     		lsls	r3, r3, #16
 376 0122 264A     		ldr	r2, .L16+32
 377 0124 1360     		str	r3, [r2]
 667:Generated_Source\PSoC4/cyfitter_cfg.c **** 
 668:Generated_Source\PSoC4/cyfitter_cfg.c **** 		/* UDB_PA_1 Starting address: CYDEV_UDB_PA1_BASE */
 669:Generated_Source\PSoC4/cyfitter_cfg.c **** 		CY_SET_REG32((void *)(CYDEV_UDB_PA1_BASE), 0x00990004u);
 378              		.loc 1 669 0
 379 0126 2649     		ldr	r1, .L16+36
 380 0128 264A     		ldr	r2, .L16+40
 381 012a 1160     		str	r1, [r2]
 670:Generated_Source\PSoC4/cyfitter_cfg.c **** 		CY_SET_REG32((void *)(CYREG_UDB_PA1_CFG4), 0x02000000u);
 382              		.loc 1 670 0
 383 012c 8021     		movs	r1, #128
 384 012e 8904     		lsls	r1, r1, #18
 385 0130 254A     		ldr	r2, .L16+44
 386 0132 1160     		str	r1, [r2]
 671:Generated_Source\PSoC4/cyfitter_cfg.c **** 		CY_SET_REG32((void *)(CYREG_UDB_PA1_CFG8), 0x04000000u);
 387              		.loc 1 671 0
 388 0134 8021     		movs	r1, #128
 389 0136 C904     		lsls	r1, r1, #19
 390 0138 244A     		ldr	r2, .L16+48
 391 013a 1160     		str	r1, [r2]
 672:Generated_Source\PSoC4/cyfitter_cfg.c **** 
 673:Generated_Source\PSoC4/cyfitter_cfg.c **** 		/* UDB_PA_3 Starting address: CYDEV_UDB_PA3_BASE */
 674:Generated_Source\PSoC4/cyfitter_cfg.c **** 		CY_SET_REG32((void *)(CYDEV_UDB_PA3_BASE), 0x00990000u);
 392              		.loc 1 674 0
 393 013c 244A     		ldr	r2, .L16+52
 394 013e 1360     		str	r3, [r2]
 675:Generated_Source\PSoC4/cyfitter_cfg.c **** 
 676:Generated_Source\PSoC4/cyfitter_cfg.c **** 		/* INT_SELECT Starting address: CYDEV_CPUSS_INTR_SELECT */
ARM GAS  C:\Users\CCPOW_~1\AppData\Local\Temp\cc3yP1bi.s 			page 20


 677:Generated_Source\PSoC4/cyfitter_cfg.c **** 		CY_SET_REG32((void *)(CYREG_CPUSS_INTR_SELECT), 0x0000000Du);
 395              		.loc 1 677 0
 396 0140 0D22     		movs	r2, #13
 397 0142 244B     		ldr	r3, .L16+56
 398 0144 1A60     		str	r2, [r3]
 678:Generated_Source\PSoC4/cyfitter_cfg.c **** 
 679:Generated_Source\PSoC4/cyfitter_cfg.c **** 		/* INT_CONFIG Starting address: CYDEV_UDB_INT_CFG */
 680:Generated_Source\PSoC4/cyfitter_cfg.c **** 		CY_SET_REG32((void *)(CYREG_UDB_INT_CFG), 0x0000000Eu);
 399              		.loc 1 680 0
 400 0146 0132     		adds	r2, r2, #1
 401 0148 234B     		ldr	r3, .L16+60
 402 014a 1A60     		str	r2, [r3]
 681:Generated_Source\PSoC4/cyfitter_cfg.c **** 
 682:Generated_Source\PSoC4/cyfitter_cfg.c **** 		/* Enable UDB array and digital routing */
 683:Generated_Source\PSoC4/cyfitter_cfg.c **** 		CY_SET_XTND_REG8((void *)CYREG_UDB_UDBIF_WAIT_CFG, (uint8)((CY_GET_XTND_REG8((void *)CYREG_UDB_UD
 403              		.loc 1 683 0
 404 014c 2349     		ldr	r1, .L16+64
 405 014e 0B78     		ldrb	r3, [r1]
 406 0150 2E32     		adds	r2, r2, #46
 407 0152 9343     		bics	r3, r2
 408 0154 1422     		movs	r2, #20
 409 0156 1343     		orrs	r3, r2
 410 0158 DBB2     		uxtb	r3, r3
 411 015a 0B70     		strb	r3, [r1]
 684:Generated_Source\PSoC4/cyfitter_cfg.c **** 		CY_SET_XTND_REG8((void *)CYREG_UDB_UDBIF_BANK_CTL, (uint8)(CY_GET_XTND_REG8((void *)CYREG_UDB_UDB
 412              		.loc 1 684 0
 413 015c 204A     		ldr	r2, .L16+68
 414 015e 1178     		ldrb	r1, [r2]
 415 0160 1623     		movs	r3, #22
 416 0162 0B43     		orrs	r3, r1
 417 0164 DBB2     		uxtb	r3, r3
 418 0166 1370     		strb	r3, [r2]
 419              	.LBE3:
 685:Generated_Source\PSoC4/cyfitter_cfg.c **** 	}
 686:Generated_Source\PSoC4/cyfitter_cfg.c **** 
 687:Generated_Source\PSoC4/cyfitter_cfg.c **** 	/* Perform second pass device configuration. These items must be configured in specific order afte
 688:Generated_Source\PSoC4/cyfitter_cfg.c **** 	/* IOPINS0_0 Starting address: CYDEV_PRT0_BASE */
 689:Generated_Source\PSoC4/cyfitter_cfg.c **** 	CY_SET_REG32((void *)(CYREG_PRT0_PC), 0x00400000u);
 420              		.loc 1 689 0
 421 0168 8022     		movs	r2, #128
 422 016a D203     		lsls	r2, r2, #15
 423 016c 1D4B     		ldr	r3, .L16+72
 424 016e 1A60     		str	r2, [r3]
 690:Generated_Source\PSoC4/cyfitter_cfg.c **** 
 691:Generated_Source\PSoC4/cyfitter_cfg.c **** 	/* IOPINS0_1 Starting address: CYDEV_PRT1_BASE */
 692:Generated_Source\PSoC4/cyfitter_cfg.c **** 	CY_SET_REG32((void *)(CYDEV_PRT1_BASE), 0x00000020u);
 425              		.loc 1 692 0
 426 0170 2022     		movs	r2, #32
 427 0172 1D4B     		ldr	r3, .L16+76
 428 0174 1A60     		str	r2, [r3]
 693:Generated_Source\PSoC4/cyfitter_cfg.c **** 	CY_SET_REG32((void *)(CYREG_PRT1_PC), 0x00031000u);
 429              		.loc 1 693 0
 430 0176 C422     		movs	r2, #196
 431 0178 9202     		lsls	r2, r2, #10
 432 017a 1C4B     		ldr	r3, .L16+80
 433 017c 1A60     		str	r2, [r3]
 694:Generated_Source\PSoC4/cyfitter_cfg.c **** 
ARM GAS  C:\Users\CCPOW_~1\AppData\Local\Temp\cc3yP1bi.s 			page 21


 695:Generated_Source\PSoC4/cyfitter_cfg.c **** 	/* IOPINS0_3 Starting address: CYDEV_PRT3_BASE */
 696:Generated_Source\PSoC4/cyfitter_cfg.c **** 	CY_SET_REG32((void *)(CYREG_PRT3_PC), 0x00000D80u);
 434              		.loc 1 696 0
 435 017e D822     		movs	r2, #216
 436 0180 1201     		lsls	r2, r2, #4
 437 0182 1B4B     		ldr	r3, .L16+84
 438 0184 1A60     		str	r2, [r3]
 697:Generated_Source\PSoC4/cyfitter_cfg.c **** 
 698:Generated_Source\PSoC4/cyfitter_cfg.c **** 	/* IOPINS0_4 Starting address: CYDEV_PRT4_BASE */
 699:Generated_Source\PSoC4/cyfitter_cfg.c **** 	CY_SET_REG32((void *)(CYDEV_PRT4_BASE), 0x00000002u);
 439              		.loc 1 699 0
 440 0186 0223     		movs	r3, #2
 441 0188 1A4A     		ldr	r2, .L16+88
 442 018a 1360     		str	r3, [r2]
 700:Generated_Source\PSoC4/cyfitter_cfg.c **** 	CY_SET_REG32((void *)(CYREG_PRT4_PC), 0x00000031u);
 443              		.loc 1 700 0
 444 018c 3121     		movs	r1, #49
 445 018e 1A4A     		ldr	r2, .L16+92
 446 0190 1160     		str	r1, [r2]
 701:Generated_Source\PSoC4/cyfitter_cfg.c **** 	CY_SET_REG32((void *)(CYREG_PRT4_PC2), 0x00000002u);
 447              		.loc 1 701 0
 448 0192 1A4A     		ldr	r2, .L16+96
 449 0194 1360     		str	r3, [r2]
 702:Generated_Source\PSoC4/cyfitter_cfg.c **** 
 703:Generated_Source\PSoC4/cyfitter_cfg.c **** 
 704:Generated_Source\PSoC4/cyfitter_cfg.c **** 	/* Setup clocks based on selections from Clock DWR */
 705:Generated_Source\PSoC4/cyfitter_cfg.c **** 	ClockSetup();
 450              		.loc 1 705 0
 451 0196 FFF733FF 		bl	ClockSetup
 452              	.LVL33:
 706:Generated_Source\PSoC4/cyfitter_cfg.c **** 
 707:Generated_Source\PSoC4/cyfitter_cfg.c **** 	/* Perform basic analog initialization to defaults */
 708:Generated_Source\PSoC4/cyfitter_cfg.c **** 	AnalogSetDefault();
 709:Generated_Source\PSoC4/cyfitter_cfg.c **** 
 710:Generated_Source\PSoC4/cyfitter_cfg.c **** }
 453              		.loc 1 710 0
 454              		@ sp needed
 455              	.LVL34:
 456 019a 70BD     		pop	{r4, r5, r6, pc}
 457              	.L17:
 458              		.align	2
 459              	.L16:
 460 019c 1C700F40 		.word	1074753564
 461 01a0 00000000 		.word	.LANCHOR0
 462 01a4 00020000 		.word	.LANCHOR1
 463 01a8 00600F40 		.word	1074749440
 464 01ac 02600F40 		.word	1074749442
 465 01b0 04000140 		.word	1073807364
 466 01b4 0C000140 		.word	1073807372
 467 01b8 10000140 		.word	1073807376
 468 01bc 00500F40 		.word	1074745344
 469 01c0 04009900 		.word	10027012
 470 01c4 10500F40 		.word	1074745360
 471 01c8 14500F40 		.word	1074745364
 472 01cc 18500F40 		.word	1074745368
 473 01d0 30500F40 		.word	1074745392
 474 01d4 20000040 		.word	1073741856
ARM GAS  C:\Users\CCPOW_~1\AppData\Local\Temp\cc3yP1bi.s 			page 22


 475 01d8 00800F40 		.word	1074757632
 476 01dc 01700F40 		.word	1074753537
 477 01e0 00700F40 		.word	1074753536
 478 01e4 08000440 		.word	1074003976
 479 01e8 00010440 		.word	1074004224
 480 01ec 08010440 		.word	1074004232
 481 01f0 08030440 		.word	1074004744
 482 01f4 00040440 		.word	1074004992
 483 01f8 08040440 		.word	1074005000
 484 01fc 18040440 		.word	1074005016
 485              		.cfi_endproc
 486              	.LFE6:
 487              		.size	cyfitter_cfg, .-cyfitter_cfg
 488              		.section	.rodata
 489              		.align	2
 490              		.set	.LANCHOR0,. + 0
 491              		.set	.LANCHOR1,. + 512
 492              		.type	cfg_memset_list.4875, %object
 493              		.size	cfg_memset_list.4875, 18
 494              	cfg_memset_list.4875:
 495 0000 00300F40 		.word	1074737152
 496 0004 8000     		.short	128
 497 0006 00310F40 		.4byte	1074737408
 498 000a 0003     		.short	768
 499 000c 00400F40 		.word	1074741248
 500 0010 0004     		.short	1024
 501 0012 0000     		.space	2
 502              		.type	cfg_memcpy_list.4877, %object
 503              		.size	cfg_memcpy_list.4877, 10
 504              	cfg_memcpy_list.4877:
 505 0014 80300F40 		.word	1074737280
 506 0018 78020000 		.word	BS_UDB_0_1_1_CONFIG_VAL.4876
 507 001c 8000     		.short	128
 508 001e 0000     		.space	2
 509              		.type	cy_cfg_data_table.4865, %object
 510              		.size	cy_cfg_data_table.4865, 566
 511              	cy_cfg_data_table.4865:
 512 0020 80       		.byte	-128
 513 0021 38       		.byte	56
 514 0022 81       		.byte	-127
 515 0023 72       		.byte	114
 516 0024 82       		.byte	-126
 517 0025 0F       		.byte	15
 518 0026 02       		.byte	2
 519 0027 02       		.byte	2
 520 0028 04       		.byte	4
 521 0029 08       		.byte	8
 522 002a 12       		.byte	18
 523 002b 01       		.byte	1
 524 002c 15       		.byte	21
 525 002d 01       		.byte	1
 526 002e 1E       		.byte	30
 527 002f 04       		.byte	4
 528 0030 26       		.byte	38
 529 0031 01       		.byte	1
 530 0032 2E       		.byte	46
 531 0033 02       		.byte	2
ARM GAS  C:\Users\CCPOW_~1\AppData\Local\Temp\cc3yP1bi.s 			page 23


 532 0034 30       		.byte	48
 533 0035 01       		.byte	1
 534 0036 32       		.byte	50
 535 0037 08       		.byte	8
 536 0038 33       		.byte	51
 537 0039 01       		.byte	1
 538 003a 34       		.byte	52
 539 003b 02       		.byte	2
 540 003c 36       		.byte	54
 541 003d 04       		.byte	4
 542 003e 3E       		.byte	62
 543 003f 15       		.byte	21
 544 0040 3F       		.byte	63
 545 0041 04       		.byte	4
 546 0042 54       		.byte	84
 547 0043 18       		.byte	24
 548 0044 56       		.byte	86
 549 0045 04       		.byte	4
 550 0046 58       		.byte	88
 551 0047 04       		.byte	4
 552 0048 59       		.byte	89
 553 0049 04       		.byte	4
 554 004a 5B       		.byte	91
 555 004b 04       		.byte	4
 556 004c 5F       		.byte	95
 557 004d 01       		.byte	1
 558 004e 00       		.byte	0
 559 004f 08       		.byte	8
 560 0050 02       		.byte	2
 561 0051 80       		.byte	-128
 562 0052 04       		.byte	4
 563 0053 88       		.byte	-120
 564 0054 05       		.byte	5
 565 0055 21       		.byte	33
 566 0056 09       		.byte	9
 567 0057 02       		.byte	2
 568 0058 0B       		.byte	11
 569 0059 01       		.byte	1
 570 005a 0D       		.byte	13
 571 005b 28       		.byte	40
 572 005c 0E       		.byte	14
 573 005d 02       		.byte	2
 574 005e 10       		.byte	16
 575 005f 22       		.byte	34
 576 0060 14       		.byte	20
 577 0061 02       		.byte	2
 578 0062 17       		.byte	23
 579 0063 2A       		.byte	42
 580 0064 18       		.byte	24
 581 0065 04       		.byte	4
 582 0066 19       		.byte	25
 583 0067 88       		.byte	-120
 584 0068 1B       		.byte	27
 585 0069 01       		.byte	1
 586 006a 1D       		.byte	29
 587 006b 2A       		.byte	42
 588 006c 1E       		.byte	30
ARM GAS  C:\Users\CCPOW_~1\AppData\Local\Temp\cc3yP1bi.s 			page 24


 589 006d 01       		.byte	1
 590 006e 1F       		.byte	31
 591 006f 28       		.byte	40
 592 0070 23       		.byte	35
 593 0071 10       		.byte	16
 594 0072 26       		.byte	38
 595 0073 A7       		.byte	-89
 596 0074 27       		.byte	39
 597 0075 04       		.byte	4
 598 0076 2D       		.byte	45
 599 0077 80       		.byte	-128
 600 0078 2F       		.byte	47
 601 0079 28       		.byte	40
 602 007a 32       		.byte	50
 603 007b 04       		.byte	4
 604 007c 36       		.byte	54
 605 007d 2A       		.byte	42
 606 007e 3E       		.byte	62
 607 007f AA       		.byte	-86
 608 0080 45       		.byte	69
 609 0081 22       		.byte	34
 610 0082 47       		.byte	71
 611 0083 44       		.byte	68
 612 0084 4C       		.byte	76
 613 0085 24       		.byte	36
 614 0086 4E       		.byte	78
 615 0087 08       		.byte	8
 616 0088 54       		.byte	84
 617 0089 02       		.byte	2
 618 008a 5A       		.byte	90
 619 008b 01       		.byte	1
 620 008c 5E       		.byte	94
 621 008d 08       		.byte	8
 622 008e 60       		.byte	96
 623 008f 04       		.byte	4
 624 0090 63       		.byte	99
 625 0091 42       		.byte	66
 626 0092 6E       		.byte	110
 627 0093 14       		.byte	20
 628 0094 6F       		.byte	111
 629 0095 01       		.byte	1
 630 0096 76       		.byte	118
 631 0097 2A       		.byte	42
 632 0098 77       		.byte	119
 633 0099 2A       		.byte	42
 634 009a 87       		.byte	-121
 635 009b 40       		.byte	64
 636 009c C0       		.byte	-64
 637 009d FC       		.byte	-4
 638 009e C2       		.byte	-62
 639 009f E9       		.byte	-23
 640 00a0 C4       		.byte	-60
 641 00a1 F5       		.byte	-11
 642 00a2 CA       		.byte	-54
 643 00a3 70       		.byte	112
 644 00a4 CC       		.byte	-52
 645 00a5 E2       		.byte	-30
ARM GAS  C:\Users\CCPOW_~1\AppData\Local\Temp\cc3yP1bi.s 			page 25


 646 00a6 CE       		.byte	-50
 647 00a7 F0       		.byte	-16
 648 00a8 D0       		.byte	-48
 649 00a9 F0       		.byte	-16
 650 00aa D2       		.byte	-46
 651 00ab 20       		.byte	32
 652 00ac D6       		.byte	-42
 653 00ad 41       		.byte	65
 654 00ae D8       		.byte	-40
 655 00af 0D       		.byte	13
 656 00b0 00       		.byte	0
 657 00b1 13       		.byte	19
 658 00b2 01       		.byte	1
 659 00b3 01       		.byte	1
 660 00b4 02       		.byte	2
 661 00b5 04       		.byte	4
 662 00b6 03       		.byte	3
 663 00b7 0A       		.byte	10
 664 00b8 04       		.byte	4
 665 00b9 0A       		.byte	10
 666 00ba 05       		.byte	5
 667 00bb 13       		.byte	19
 668 00bc 06       		.byte	6
 669 00bd 14       		.byte	20
 670 00be 08       		.byte	8
 671 00bf 13       		.byte	19
 672 00c0 09       		.byte	9
 673 00c1 13       		.byte	19
 674 00c2 0A       		.byte	10
 675 00c3 0C       		.byte	12
 676 00c4 0C       		.byte	12
 677 00c5 40       		.byte	64
 678 00c6 0E       		.byte	14
 679 00c7 20       		.byte	32
 680 00c8 11       		.byte	17
 681 00c9 10       		.byte	16
 682 00ca 12       		.byte	18
 683 00cb 08       		.byte	8
 684 00cc 14       		.byte	20
 685 00cd 20       		.byte	32
 686 00ce 16       		.byte	22
 687 00cf C0       		.byte	-64
 688 00d0 18       		.byte	24
 689 00d1 E0       		.byte	-32
 690 00d2 19       		.byte	25
 691 00d3 02       		.byte	2
 692 00d4 1B       		.byte	27
 693 00d5 09       		.byte	9
 694 00d6 1C       		.byte	28
 695 00d7 03       		.byte	3
 696 00d8 1E       		.byte	30
 697 00d9 14       		.byte	20
 698 00da 26       		.byte	38
 699 00db 15       		.byte	21
 700 00dc 28       		.byte	40
 701 00dd 80       		.byte	-128
 702 00de 2A       		.byte	42
ARM GAS  C:\Users\CCPOW_~1\AppData\Local\Temp\cc3yP1bi.s 			page 26


 703 00df 20       		.byte	32
 704 00e0 2B       		.byte	43
 705 00e1 04       		.byte	4
 706 00e2 2C       		.byte	44
 707 00e3 E0       		.byte	-32
 708 00e4 30       		.byte	48
 709 00e5 10       		.byte	16
 710 00e6 31       		.byte	49
 711 00e7 0C       		.byte	12
 712 00e8 32       		.byte	50
 713 00e9 E0       		.byte	-32
 714 00ea 33       		.byte	51
 715 00eb 03       		.byte	3
 716 00ec 34       		.byte	52
 717 00ed 0F       		.byte	15
 718 00ee 35       		.byte	53
 719 00ef 10       		.byte	16
 720 00f0 3A       		.byte	58
 721 00f1 20       		.byte	32
 722 00f2 3E       		.byte	62
 723 00f3 01       		.byte	1
 724 00f4 3F       		.byte	63
 725 00f5 01       		.byte	1
 726 00f6 40       		.byte	64
 727 00f7 36       		.byte	54
 728 00f8 41       		.byte	65
 729 00f9 01       		.byte	1
 730 00fa 46       		.byte	70
 731 00fb B0       		.byte	-80
 732 00fc 47       		.byte	71
 733 00fd CE       		.byte	-50
 734 00fe 48       		.byte	72
 735 00ff 38       		.byte	56
 736 0100 49       		.byte	73
 737 0101 FF       		.byte	-1
 738 0102 4A       		.byte	74
 739 0103 FF       		.byte	-1
 740 0104 4B       		.byte	75
 741 0105 FF       		.byte	-1
 742 0106 4E       		.byte	78
 743 0107 F0       		.byte	-16
 744 0108 4F       		.byte	79
 745 0109 44       		.byte	68
 746 010a 50       		.byte	80
 747 010b 0C       		.byte	12
 748 010c 54       		.byte	84
 749 010d 01       		.byte	1
 750 010e 56       		.byte	86
 751 010f 04       		.byte	4
 752 0110 58       		.byte	88
 753 0111 04       		.byte	4
 754 0112 59       		.byte	89
 755 0113 04       		.byte	4
 756 0114 5A       		.byte	90
 757 0115 04       		.byte	4
 758 0116 5B       		.byte	91
 759 0117 04       		.byte	4
ARM GAS  C:\Users\CCPOW_~1\AppData\Local\Temp\cc3yP1bi.s 			page 27


 760 0118 5F       		.byte	95
 761 0119 01       		.byte	1
 762 011a 66       		.byte	102
 763 011b C0       		.byte	-64
 764 011c 6A       		.byte	106
 765 011d 40       		.byte	64
 766 011e 6B       		.byte	107
 767 011f 02       		.byte	2
 768 0120 84       		.byte	-124
 769 0121 14       		.byte	20
 770 0122 85       		.byte	-123
 771 0123 80       		.byte	-128
 772 0124 87       		.byte	-121
 773 0125 13       		.byte	19
 774 0126 8C       		.byte	-116
 775 0127 0C       		.byte	12
 776 0128 8E       		.byte	-114
 777 0129 71       		.byte	113
 778 012a 8F       		.byte	-113
 779 012b 0C       		.byte	12
 780 012c 90       		.byte	-112
 781 012d 09       		.byte	9
 782 012e 92       		.byte	-110
 783 012f D0       		.byte	-48
 784 0130 94       		.byte	-108
 785 0131 DC       		.byte	-36
 786 0132 95       		.byte	-107
 787 0133 2C       		.byte	44
 788 0134 96       		.byte	-106
 789 0135 22       		.byte	34
 790 0136 97       		.byte	-105
 791 0137 43       		.byte	67
 792 0138 99       		.byte	-103
 793 0139 71       		.byte	113
 794 013a 9A       		.byte	-102
 795 013b 03       		.byte	3
 796 013c 9B       		.byte	-101
 797 013d 06       		.byte	6
 798 013e 9F       		.byte	-97
 799 013f 08       		.byte	8
 800 0140 A0       		.byte	-96
 801 0141 10       		.byte	16
 802 0142 A1       		.byte	-95
 803 0143 71       		.byte	113
 804 0144 A2       		.byte	-94
 805 0145 40       		.byte	64
 806 0146 A3       		.byte	-93
 807 0147 0E       		.byte	14
 808 0148 A4       		.byte	-92
 809 0149 10       		.byte	16
 810 014a A6       		.byte	-90
 811 014b AC       		.byte	-84
 812 014c AA       		.byte	-86
 813 014d 20       		.byte	32
 814 014e B0       		.byte	-80
 815 014f E0       		.byte	-32
 816 0150 B1       		.byte	-79
ARM GAS  C:\Users\CCPOW_~1\AppData\Local\Temp\cc3yP1bi.s 			page 28


 817 0151 C0       		.byte	-64
 818 0152 B3       		.byte	-77
 819 0153 0F       		.byte	15
 820 0154 B4       		.byte	-76
 821 0155 1F       		.byte	31
 822 0156 B5       		.byte	-75
 823 0157 30       		.byte	48
 824 0158 B9       		.byte	-71
 825 0159 22       		.byte	34
 826 015a BA       		.byte	-70
 827 015b 02       		.byte	2
 828 015c BB       		.byte	-69
 829 015d 08       		.byte	8
 830 015e BF       		.byte	-65
 831 015f 10       		.byte	16
 832 0160 C0       		.byte	-64
 833 0161 02       		.byte	2
 834 0162 C5       		.byte	-59
 835 0163 40       		.byte	64
 836 0164 C9       		.byte	-55
 837 0165 FF       		.byte	-1
 838 0166 CA       		.byte	-54
 839 0167 07       		.byte	7
 840 0168 CB       		.byte	-53
 841 0169 FF       		.byte	-1
 842 016a CC       		.byte	-52
 843 016b 40       		.byte	64
 844 016c CD       		.byte	-51
 845 016d 20       		.byte	32
 846 016e CE       		.byte	-50
 847 016f F0       		.byte	-16
 848 0170 CF       		.byte	-49
 849 0171 05       		.byte	5
 850 0172 D0       		.byte	-48
 851 0173 08       		.byte	8
 852 0174 D8       		.byte	-40
 853 0175 04       		.byte	4
 854 0176 D9       		.byte	-39
 855 0177 04       		.byte	4
 856 0178 DA       		.byte	-38
 857 0179 04       		.byte	4
 858 017a DF       		.byte	-33
 859 017b 01       		.byte	1
 860 017c E0       		.byte	-32
 861 017d 40       		.byte	64
 862 017e E1       		.byte	-31
 863 017f A8       		.byte	-88
 864 0180 E2       		.byte	-30
 865 0181 40       		.byte	64
 866 0182 E3       		.byte	-29
 867 0183 20       		.byte	32
 868 0184 00       		.byte	0
 869 0185 40       		.byte	64
 870 0186 02       		.byte	2
 871 0187 10       		.byte	16
 872 0188 04       		.byte	4
 873 0189 80       		.byte	-128
ARM GAS  C:\Users\CCPOW_~1\AppData\Local\Temp\cc3yP1bi.s 			page 29


 874 018a 05       		.byte	5
 875 018b 15       		.byte	21
 876 018c 09       		.byte	9
 877 018d 08       		.byte	8
 878 018e 0A       		.byte	10
 879 018f 08       		.byte	8
 880 0190 0B       		.byte	11
 881 0191 40       		.byte	64
 882 0192 0E       		.byte	14
 883 0193 24       		.byte	36
 884 0194 0F       		.byte	15
 885 0195 42       		.byte	66
 886 0196 10       		.byte	16
 887 0197 90       		.byte	-112
 888 0198 12       		.byte	18
 889 0199 08       		.byte	8
 890 019a 15       		.byte	21
 891 019b 88       		.byte	-120
 892 019c 17       		.byte	23
 893 019d 10       		.byte	16
 894 019e 18       		.byte	24
 895 019f 40       		.byte	64
 896 01a0 19       		.byte	25
 897 01a1 01       		.byte	1
 898 01a2 1A       		.byte	26
 899 01a3 08       		.byte	8
 900 01a4 1D       		.byte	29
 901 01a5 10       		.byte	16
 902 01a6 1E       		.byte	30
 903 01a7 60       		.byte	96
 904 01a8 1F       		.byte	31
 905 01a9 04       		.byte	4
 906 01aa 20       		.byte	32
 907 01ab 04       		.byte	4
 908 01ac 21       		.byte	33
 909 01ad 08       		.byte	8
 910 01ae 23       		.byte	35
 911 01af 40       		.byte	64
 912 01b0 24       		.byte	36
 913 01b1 08       		.byte	8
 914 01b2 27       		.byte	39
 915 01b3 50       		.byte	80
 916 01b4 29       		.byte	41
 917 01b5 01       		.byte	1
 918 01b6 2A       		.byte	42
 919 01b7 02       		.byte	2
 920 01b8 2D       		.byte	45
 921 01b9 20       		.byte	32
 922 01ba 2F       		.byte	47
 923 01bb 04       		.byte	4
 924 01bc 30       		.byte	48
 925 01bd 90       		.byte	-112
 926 01be 31       		.byte	49
 927 01bf 1C       		.byte	28
 928 01c0 37       		.byte	55
 929 01c1 11       		.byte	17
 930 01c2 39       		.byte	57
ARM GAS  C:\Users\CCPOW_~1\AppData\Local\Temp\cc3yP1bi.s 			page 30


 931 01c3 08       		.byte	8
 932 01c4 3B       		.byte	59
 933 01c5 40       		.byte	64
 934 01c6 3E       		.byte	62
 935 01c7 14       		.byte	20
 936 01c8 3F       		.byte	63
 937 01c9 01       		.byte	1
 938 01ca 40       		.byte	64
 939 01cb 04       		.byte	4
 940 01cc 44       		.byte	68
 941 01cd 10       		.byte	16
 942 01ce 46       		.byte	70
 943 01cf 02       		.byte	2
 944 01d0 48       		.byte	72
 945 01d1 80       		.byte	-128
 946 01d2 4E       		.byte	78
 947 01d3 08       		.byte	8
 948 01d4 51       		.byte	81
 949 01d5 04       		.byte	4
 950 01d6 52       		.byte	82
 951 01d7 08       		.byte	8
 952 01d8 54       		.byte	84
 953 01d9 04       		.byte	4
 954 01da 56       		.byte	86
 955 01db 10       		.byte	16
 956 01dc 57       		.byte	87
 957 01dd 01       		.byte	1
 958 01de 5D       		.byte	93
 959 01df 18       		.byte	24
 960 01e0 5E       		.byte	94
 961 01e1 40       		.byte	64
 962 01e2 5F       		.byte	95
 963 01e3 02       		.byte	2
 964 01e4 67       		.byte	103
 965 01e5 80       		.byte	-128
 966 01e6 80       		.byte	-128
 967 01e7 40       		.byte	64
 968 01e8 82       		.byte	-126
 969 01e9 80       		.byte	-128
 970 01ea 83       		.byte	-125
 971 01eb 01       		.byte	1
 972 01ec 84       		.byte	-124
 973 01ed 04       		.byte	4
 974 01ee 87       		.byte	-121
 975 01ef 42       		.byte	66
 976 01f0 89       		.byte	-119
 977 01f1 10       		.byte	16
 978 01f2 8B       		.byte	-117
 979 01f3 01       		.byte	1
 980 01f4 91       		.byte	-111
 981 01f5 80       		.byte	-128
 982 01f6 92       		.byte	-110
 983 01f7 14       		.byte	20
 984 01f8 94       		.byte	-108
 985 01f9 88       		.byte	-120
 986 01fa 96       		.byte	-106
 987 01fb 08       		.byte	8
ARM GAS  C:\Users\CCPOW_~1\AppData\Local\Temp\cc3yP1bi.s 			page 31


 988 01fc 97       		.byte	-105
 989 01fd 01       		.byte	1
 990 01fe 99       		.byte	-103
 991 01ff 08       		.byte	8
 992 0200 9B       		.byte	-101
 993 0201 01       		.byte	1
 994 0202 9D       		.byte	-99
 995 0203 20       		.byte	32
 996 0204 9E       		.byte	-98
 997 0205 80       		.byte	-128
 998 0206 9F       		.byte	-97
 999 0207 50       		.byte	80
 1000 0208 A4       		.byte	-92
 1001 0209 04       		.byte	4
 1002 020a B3       		.byte	-77
 1003 020b 10       		.byte	16
 1004 020c B4       		.byte	-76
 1005 020d 02       		.byte	2
 1006 020e B5       		.byte	-75
 1007 020f 41       		.byte	65
 1008 0210 B6       		.byte	-74
 1009 0211 30       		.byte	48
 1010 0212 B7       		.byte	-73
 1011 0213 10       		.byte	16
 1012 0214 C0       		.byte	-64
 1013 0215 F5       		.byte	-11
 1014 0216 C2       		.byte	-62
 1015 0217 FE       		.byte	-2
 1016 0218 C4       		.byte	-60
 1017 0219 EE       		.byte	-18
 1018 021a CA       		.byte	-54
 1019 021b 21       		.byte	33
 1020 021c CC       		.byte	-52
 1021 021d AE       		.byte	-82
 1022 021e CE       		.byte	-50
 1023 021f EA       		.byte	-22
 1024 0220 D0       		.byte	-48
 1025 0221 54       		.byte	84
 1026 0222 D2       		.byte	-46
 1027 0223 20       		.byte	32
 1028 0224 D6       		.byte	-42
 1029 0225 F0       		.byte	-16
 1030 0226 D8       		.byte	-40
 1031 0227 80       		.byte	-128
 1032 0228 EE       		.byte	-18
 1033 0229 80       		.byte	-128
 1034 022a 0E       		.byte	14
 1035 022b 08       		.byte	8
 1036 022c 6D       		.byte	109
 1037 022d 01       		.byte	1
 1038 022e 6E       		.byte	110
 1039 022f 08       		.byte	8
 1040 0230 73       		.byte	115
 1041 0231 02       		.byte	2
 1042 0232 87       		.byte	-121
 1043 0233 02       		.byte	2
 1044 0234 C2       		.byte	-62
ARM GAS  C:\Users\CCPOW_~1\AppData\Local\Temp\cc3yP1bi.s 			page 32


 1045 0235 80       		.byte	-128
 1046 0236 DA       		.byte	-38
 1047 0237 80       		.byte	-128
 1048 0238 DC       		.byte	-36
 1049 0239 60       		.byte	96
 1050 023a E6       		.byte	-26
 1051 023b 40       		.byte	64
 1052 023c 0A       		.byte	10
 1053 023d 10       		.byte	16
 1054 023e 5F       		.byte	95
 1055 023f 08       		.byte	8
 1056 0240 82       		.byte	-126
 1057 0241 10       		.byte	16
 1058 0242 85       		.byte	-123
 1059 0243 01       		.byte	1
 1060 0244 95       		.byte	-107
 1061 0245 01       		.byte	1
 1062 0246 9B       		.byte	-101
 1063 0247 08       		.byte	8
 1064 0248 B3       		.byte	-77
 1065 0249 08       		.byte	8
 1066 024a C2       		.byte	-62
 1067 024b 10       		.byte	16
 1068 024c D6       		.byte	-42
 1069 024d 80       		.byte	-128
 1070 024e E0       		.byte	-32
 1071 024f 80       		.byte	-128
 1072 0250 E2       		.byte	-30
 1073 0251 10       		.byte	16
 1074 0252 10       		.byte	16
 1075 0253 01       		.byte	1
 1076 0254 11       		.byte	17
 1077 0255 01       		.byte	1
 1078 0256 0000     		.space	2
 1079              		.type	cy_cfg_addr_table.4864, %object
 1080              		.size	cy_cfg_addr_table.4864, 32
 1081              	cy_cfg_addr_table.4864:
 1082 0258 03000F40 		.word	1074724867
 1083 025c 14300F40 		.word	1074737172
 1084 0260 31310F40 		.word	1074737457
 1085 0264 6A320F40 		.word	1074737770
 1086 0268 53330F40 		.word	1074738003
 1087 026c 09400F40 		.word	1074741257
 1088 0270 0B410F40 		.word	1074741515
 1089 0274 02600F40 		.word	1074749442
 1090              		.type	BS_UDB_0_1_1_CONFIG_VAL.4876, %object
 1091              		.size	BS_UDB_0_1_1_CONFIG_VAL.4876, 128
 1092              	BS_UDB_0_1_1_CONFIG_VAL.4876:
 1093 0278 82       		.byte	-126
 1094 0279 10       		.byte	16
 1095 027a 00       		.byte	0
 1096 027b 00       		.byte	0
 1097 027c 00       		.byte	0
 1098 027d 08       		.byte	8
 1099 027e F3       		.byte	-13
 1100 027f 00       		.byte	0
 1101 0280 C3       		.byte	-61
ARM GAS  C:\Users\CCPOW_~1\AppData\Local\Temp\cc3yP1bi.s 			page 33


 1102 0281 18       		.byte	24
 1103 0282 00       		.byte	0
 1104 0283 00       		.byte	0
 1105 0284 41       		.byte	65
 1106 0285 04       		.byte	4
 1107 0286 00       		.byte	0
 1108 0287 00       		.byte	0
 1109 0288 00       		.byte	0
 1110 0289 3C       		.byte	60
 1111 028a 00       		.byte	0
 1112 028b 42       		.byte	66
 1113 028c 0F       		.byte	15
 1114 028d 00       		.byte	0
 1115 028e F0       		.byte	-16
 1116 028f 03       		.byte	3
 1117 0290 F3       		.byte	-13
 1118 0291 7F       		.byte	127
 1119 0292 0C       		.byte	12
 1120 0293 00       		.byte	0
 1121 0294 1C       		.byte	28
 1122 0295 00       		.byte	0
 1123 0296 E3       		.byte	-29
 1124 0297 00       		.byte	0
 1125 0298 08       		.byte	8
 1126 0299 00       		.byte	0
 1127 029a 00       		.byte	0
 1128 029b 00       		.byte	0
 1129 029c 04       		.byte	4
 1130 029d 67       		.byte	103
 1131 029e 00       		.byte	0
 1132 029f 18       		.byte	24
 1133 02a0 0C       		.byte	12
 1134 02a1 3C       		.byte	60
 1135 02a2 00       		.byte	0
 1136 02a3 41       		.byte	65
 1137 02a4 FF       		.byte	-1
 1138 02a5 00       		.byte	0
 1139 02a6 00       		.byte	0
 1140 02a7 04       		.byte	4
 1141 02a8 1C       		.byte	28
 1142 02a9 1F       		.byte	31
 1143 02aa 2C       		.byte	44
 1144 02ab 20       		.byte	32
 1145 02ac 0F       		.byte	15
 1146 02ad 00       		.byte	0
 1147 02ae C0       		.byte	-64
 1148 02af 40       		.byte	64
 1149 02b0 00       		.byte	0
 1150 02b1 80       		.byte	-128
 1151 02b2 28       		.byte	40
 1152 02b3 22       		.byte	34
 1153 02b4 00       		.byte	0
 1154 02b5 00       		.byte	0
 1155 02b6 00       		.byte	0
 1156 02b7 04       		.byte	4
 1157 02b8 26       		.byte	38
 1158 02b9 03       		.byte	3
ARM GAS  C:\Users\CCPOW_~1\AppData\Local\Temp\cc3yP1bi.s 			page 34


 1159 02ba 04       		.byte	4
 1160 02bb 00       		.byte	0
 1161 02bc 01       		.byte	1
 1162 02bd 0C       		.byte	12
 1163 02be 00       		.byte	0
 1164 02bf E0       		.byte	-32
 1165 02c0 21       		.byte	33
 1166 02c1 FF       		.byte	-1
 1167 02c2 FF       		.byte	-1
 1168 02c3 FF       		.byte	-1
 1169 02c4 62       		.byte	98
 1170 02c5 A0       		.byte	-96
 1171 02c6 F0       		.byte	-16
 1172 02c7 41       		.byte	65
 1173 02c8 0C       		.byte	12
 1174 02c9 00       		.byte	0
 1175 02ca 00       		.byte	0
 1176 02cb 00       		.byte	0
 1177 02cc 00       		.byte	0
 1178 02cd 00       		.byte	0
 1179 02ce 02       		.byte	2
 1180 02cf 12       		.byte	18
 1181 02d0 04       		.byte	4
 1182 02d1 04       		.byte	4
 1183 02d2 04       		.byte	4
 1184 02d3 04       		.byte	4
 1185 02d4 00       		.byte	0
 1186 02d5 00       		.byte	0
 1187 02d6 00       		.byte	0
 1188 02d7 01       		.byte	1
 1189 02d8 00       		.byte	0
 1190 02d9 00       		.byte	0
 1191 02da 00       		.byte	0
 1192 02db 00       		.byte	0
 1193 02dc 00       		.byte	0
 1194 02dd 00       		.byte	0
 1195 02de 40       		.byte	64
 1196 02df 02       		.byte	2
 1197 02e0 00       		.byte	0
 1198 02e1 10       		.byte	16
 1199 02e2 30       		.byte	48
 1200 02e3 10       		.byte	16
 1201 02e4 00       		.byte	0
 1202 02e5 10       		.byte	16
 1203 02e6 10       		.byte	16
 1204 02e7 12       		.byte	18
 1205 02e8 00       		.byte	0
 1206 02e9 00       		.byte	0
 1207 02ea 00       		.byte	0
 1208 02eb 00       		.byte	0
 1209 02ec 00       		.byte	0
 1210 02ed 00       		.byte	0
 1211 02ee 00       		.byte	0
 1212 02ef 00       		.byte	0
 1213 02f0 00       		.byte	0
 1214 02f1 00       		.byte	0
 1215 02f2 00       		.byte	0
ARM GAS  C:\Users\CCPOW_~1\AppData\Local\Temp\cc3yP1bi.s 			page 35


 1216 02f3 00       		.byte	0
 1217 02f4 00       		.byte	0
 1218 02f5 00       		.byte	0
 1219 02f6 00       		.byte	0
 1220 02f7 00       		.byte	0
 1221              		.text
 1222              	.Letext0:
 1223              		.file 2 "d:\\programs\\psoccreator\\psoc creator\\4.1\\psoc creator\\import\\gnu\\arm\\5.4.1\\lib\
 1224              		.file 3 "Generated_Source\\PSoC4\\cytypes.h"
 1225              		.file 4 "Generated_Source\\PSoC4\\CyLib.h"