ARM GAS  C:\Users\CCPOW_~1\AppData\Local\Temp\cclw922a.s 			page 1


   1              		.syntax unified
   2              		.cpu cortex-m0
   3              		.fpu softvfp
   4              		.eabi_attribute 20, 1
   5              		.eabi_attribute 21, 1
   6              		.eabi_attribute 23, 3
   7              		.eabi_attribute 24, 1
   8              		.eabi_attribute 25, 1
   9              		.eabi_attribute 26, 1
  10              		.eabi_attribute 30, 1
  11              		.eabi_attribute 34, 0
  12              		.eabi_attribute 18, 4
  13              		.thumb
  14              		.syntax unified
  15              		.file	"main.c"
  16              		.text
  17              	.Ltext0:
  18              		.cfi_sections	.debug_frame
  19              		.section	.text.eeprom_copy,"ax",%progbits
  20              		.align	2
  21              		.code	16
  22              		.thumb_func
  23              		.type	eeprom_copy, %function
  24              	eeprom_copy:
  25              	.LFB34:
  26              		.file 1 "common.h"
   1:common.h      **** #include "project.h"
   2:common.h      **** 
   3:common.h      **** // Lengths of various protocol materials
   4:common.h      **** #define PIN_LEN 8
   5:common.h      **** #define UUID_LEN 36
   6:common.h      **** #define R_LEN 32
   7:common.h      **** #define NONCE_LEN 32
   8:common.h      **** #define SIG_LEN 64
   9:common.h      **** #define PK_LEN 32
  10:common.h      **** #define RAND_KEY_LEN 32
  11:common.h      **** #define SEED_LEN 32
  12:common.h      **** 
  13:common.h      **** 
  14:common.h      **** // General enums for denoting that a request was accepted/rejected
  15:common.h      **** static const uint8 ACCEPTED		            = 0x20;
  16:common.h      **** static const uint8 REJECTED		            = 0x21;
  17:common.h      **** 
  18:common.h      **** 
  19:common.h      **** // Constants for request types made to the card
  20:common.h      **** #define REQUEST_NAME                        0x00
  21:common.h      **** #define REQUEST_CARD_SIGNATURE              0x02
  22:common.h      **** #define REQUEST_PROVISION                   0x26
  23:common.h      **** #define REQUEST_NEW_PK                      0x0C
  24:common.h      **** 
  25:common.h      **** 
  26:common.h      **** //static const uint8 INITIATE_PROVISION       = 0x25;
  27:common.h      **** static const uint8 RETURN_NAME              = 0x01;
  28:common.h      **** static const uint8 RETURN_CARD_SIGNATURE    = 0x03;
  29:common.h      **** static const uint8 RETURN_NEW_PK            = 0x0D;
  30:common.h      **** 
  31:common.h      **** 
ARM GAS  C:\Users\CCPOW_~1\AppData\Local\Temp\cclw922a.s 			page 2


  32:common.h      **** // Enums for syncing with ATM
  33:common.h      **** static const uint8 SYNC_REQUEST_PROV        = 0x15;
  34:common.h      **** static const uint8 SYNC_REQUEST_NO_PROV     = 0x16;
  35:common.h      **** static const uint8 SYNC_CONFIRMED_PROV      = 0x17;
  36:common.h      **** static const uint8 SYNC_CONFIRMED_NO_PROV   = 0x18;
  37:common.h      **** static const uint8 SYNC_FAILED_NO_PROV      = 0x19;
  38:common.h      **** static const uint8 SYNC_FAILED_PROV         = 0x1A;
  39:common.h      **** static const uint8 SYNCED                   = 0x1B;
  40:common.h      **** static const uint8 SYNC_TYPE_CARD_N         = 0x1D;
  41:common.h      **** static const uint8 SYNC_TYPE_CARD_P         = 0x3D;
  42:common.h      **** static const uint8 SYNC_TYPE_HSM_N          = 0x1C;
  43:common.h      **** static const uint8 SYNC_TYPE_HSM_P          = 0x3C;
  44:common.h      **** static const uint8 PSOC_DEVICE_REQUEST      = 0x1E;
  45:common.h      **** 
  46:common.h      **** // Constants for syncing
  47:common.h      **** #define SYNC_NORM 0
  48:common.h      **** #define SYNC_PROV 1
  49:common.h      **** 
  50:common.h      **** 
  51:common.h      **** //context for libhydrogen functions
  52:common.h      **** static const char CONTEXT[8] = {0, 0, 0, 0, 0, 0, 0, 0};
  53:common.h      **** 
  54:common.h      **** 
  55:common.h      **** //I just wanted the compiler to stop yelling at me :(
  56:common.h      **** static void eeprom_copy(uint8 *dst, const volatile uint8 *src, uint8 len) 
  57:common.h      **** {
  27              		.loc 1 57 0
  28              		.cfi_startproc
  29              		@ args = 0, pretend = 0, frame = 0
  30              		@ frame_needed = 0, uses_anonymous_args = 0
  31              	.LVL0:
  32 0000 10B5     		push	{r4, lr}
  33              		.cfi_def_cfa_offset 8
  34              		.cfi_offset 4, -8
  35              		.cfi_offset 14, -4
  36              	.LVL1:
  37              	.LBB2:
  58:common.h      ****     for (int i = 0; i < len; i++) {
  38              		.loc 1 58 0
  39 0002 0023     		movs	r3, #0
  40 0004 03E0     		b	.L2
  41              	.LVL2:
  42              	.L3:
  59:common.h      ****         dst[i] = src[i];
  43              		.loc 1 59 0 discriminator 3
  44 0006 CC18     		adds	r4, r1, r3
  45 0008 2478     		ldrb	r4, [r4]
  46 000a C454     		strb	r4, [r0, r3]
  58:common.h      ****     for (int i = 0; i < len; i++) {
  47              		.loc 1 58 0 discriminator 3
  48 000c 0133     		adds	r3, r3, #1
  49              	.LVL3:
  50              	.L2:
  58:common.h      ****     for (int i = 0; i < len; i++) {
  51              		.loc 1 58 0 is_stmt 0 discriminator 1
  52 000e 9342     		cmp	r3, r2
  53 0010 F9DB     		blt	.L3
ARM GAS  C:\Users\CCPOW_~1\AppData\Local\Temp\cclw922a.s 			page 3


  54              	.LBE2:
  60:common.h      ****     }
  61:common.h      **** }
  55              		.loc 1 61 0 is_stmt 1
  56              		@ sp needed
  57 0012 10BD     		pop	{r4, pc}
  58              		.cfi_endproc
  59              	.LFE34:
  60              		.size	eeprom_copy, .-eeprom_copy
  61              		.section	.text.Reset_ISR,"ax",%progbits
  62              		.align	2
  63              		.global	Reset_ISR
  64              		.code	16
  65              		.thumb_func
  66              		.type	Reset_ISR, %function
  67              	Reset_ISR:
  68              	.LFB35:
  69              		.file 2 "main.c"
   1:main.c        **** /* ========================================
   2:main.c        ****  *
   3:main.c        ****  * Copyright YOUR COMPANY, THE YEAR
   4:main.c        ****  * All Rights Reserved
   5:main.c        ****  * UNPUBLISHED, LICENSED SOFTWARE.
   6:main.c        ****  *
   7:main.c        ****  * CONFIDENTIAL AND PROPRIETARY INFORMATION
   8:main.c        ****  * WHICH IS THE PROPERTY OF your company.
   9:main.c        ****  *
  10:main.c        ****  * ========================================
  11:main.c        **** */
  12:main.c        **** 
  13:main.c        **** #include "project.h"
  14:main.c        **** #include <stdlib.h>
  15:main.c        **** #include "usbserialprotocol.h"
  16:main.c        **** #include "SW1.h"
  17:main.c        **** #include "Reset_isr.h"
  18:main.c        **** #include <hydrogen.h>
  19:main.c        **** #include "common.h"
  20:main.c        **** 
  21:main.c        **** 
  22:main.c        **** // global EEPROM read variables
  23:main.c        **** static const uint8 R[R_LEN]                 = {0, 0, 0, 0, 0, 0, 0, 0, 0, 0, 0, 0, 0, 0, 0, 0, 0, 0
  24:main.c        **** static const uint8 RAND_KEY[RAND_KEY_LEN]   = {0, 0, 0, 0, 0, 0, 0, 0, 0, 0, 0, 0, 0, 0, 0, 0, 0, 0
  25:main.c        **** static const uint8 UUID[UUID_LEN]           = {0, 0, 0, 0, 0, 0, 0, 0, 0, 0, 0, 0, 0, 0, 0, 0, 0, 0
  26:main.c        **** static const uint8 PROVISIONED[1]           = {0x00};
  27:main.c        **** 
  28:main.c        **** // reset interrupt on button get r (random)press
  29:main.c        **** CY_ISR(Reset_ISR)
  30:main.c        **** {
  70              		.loc 2 30 0
  71              		.cfi_startproc
  72              		@ args = 0, pretend = 0, frame = 0
  73              		@ frame_needed = 0, uses_anonymous_args = 0
  74 0000 10B5     		push	{r4, lr}
  75              		.cfi_def_cfa_offset 8
  76              		.cfi_offset 4, -8
  77              		.cfi_offset 14, -4
  31:main.c        ****     //pushMessage((uint8*)"In interrupt\n", strlen("In interrupt\n"));
ARM GAS  C:\Users\CCPOW_~1\AppData\Local\Temp\cclw922a.s 			page 4


  32:main.c        ****     SW1_ClearInterrupt();
  78              		.loc 2 32 0
  79 0002 FFF7FEFF 		bl	SW1_ClearInterrupt
  80              	.LVL4:
  33:main.c        ****     CySoftwareReset();
  81              		.loc 2 33 0
  82 0006 FFF7FEFF 		bl	CySoftwareReset
  83              	.LVL5:
  34:main.c        **** }
  84              		.loc 2 34 0
  85              		@ sp needed
  86 000a 10BD     		pop	{r4, pc}
  87              		.cfi_endproc
  88              	.LFE35:
  89              		.size	Reset_ISR, .-Reset_ISR
  90              		.section	.text.provision,"ax",%progbits
  91              		.align	2
  92              		.global	provision
  93              		.code	16
  94              		.thumb_func
  95              		.type	provision, %function
  96              	provision:
  97              	.LFB36:
  35:main.c        **** 
  36:main.c        **** // provisions card (should only ever be called once)
  37:main.c        **** void provision()
  38:main.c        **** {      
  98              		.loc 2 38 0
  99              		.cfi_startproc
 100              		@ args = 0, pretend = 0, frame = 104
 101              		@ frame_needed = 0, uses_anonymous_args = 0
 102 0000 10B5     		push	{r4, lr}
 103              		.cfi_def_cfa_offset 8
 104              		.cfi_offset 4, -8
 105              		.cfi_offset 14, -4
 106 0002 9AB0     		sub	sp, sp, #104
 107              		.cfi_def_cfa_offset 112
  39:main.c        ****     // synchronize with atm
  40:main.c        ****     syncConnection(SYNC_PROV);
 108              		.loc 2 40 0
 109 0004 0120     		movs	r0, #1
 110 0006 FFF7FEFF 		bl	syncConnection
 111              	.LVL6:
  41:main.c        ****     
  42:main.c        ****     uint8 message_type;
  43:main.c        ****     pullMessage(&message_type, 1);
 112              		.loc 2 43 0
 113 000a 6724     		movs	r4, #103
 114 000c 6C44     		add	r4, r4, sp
 115 000e 0121     		movs	r1, #1
 116 0010 2000     		movs	r0, r4
 117 0012 FFF7FEFF 		bl	pullMessage
 118              	.LVL7:
  44:main.c        ****     
  45:main.c        ****     // check if provision message
  46:main.c        ****     if (message_type != REQUEST_PROVISION) {
 119              		.loc 2 46 0
ARM GAS  C:\Users\CCPOW_~1\AppData\Local\Temp\cclw922a.s 			page 5


 120 0016 2378     		ldrb	r3, [r4]
 121 0018 262B     		cmp	r3, #38
 122 001a 04D0     		beq	.L6
  47:main.c        **** 	    pushMessage(&REJECTED, 1);
 123              		.loc 2 47 0
 124 001c 0121     		movs	r1, #1
 125 001e 1448     		ldr	r0, .L8
 126 0020 FFF7FEFF 		bl	pushMessage
 127              	.LVL8:
 128 0024 22E0     		b	.L5
 129              	.L6:
  48:main.c        ****         return;
  49:main.c        ****     } 
  50:main.c        ****     
  51:main.c        ****     uint8 r_buf[R_LEN];
  52:main.c        ****     uint8 rand_key_buf[RAND_KEY_LEN];
  53:main.c        ****     uint8 uuid_buf[UUID_LEN];
  54:main.c        ****     
  55:main.c        ****     // get r + randomness key + account number
  56:main.c        ****     pullMessage(r_buf, R_LEN);
 130              		.loc 2 56 0
 131 0026 2021     		movs	r1, #32
 132 0028 11A8     		add	r0, sp, #68
 133 002a FFF7FEFF 		bl	pullMessage
 134              	.LVL9:
  57:main.c        ****     pullMessage(rand_key_buf, RAND_KEY_LEN);
 135              		.loc 2 57 0
 136 002e 2021     		movs	r1, #32
 137 0030 09A8     		add	r0, sp, #36
 138 0032 FFF7FEFF 		bl	pullMessage
 139              	.LVL10:
  58:main.c        ****     pullMessage(uuid_buf, UUID_LEN);
 140              		.loc 2 58 0
 141 0036 2421     		movs	r1, #36
 142 0038 6846     		mov	r0, sp
 143 003a FFF7FEFF 		bl	pullMessage
 144              	.LVL11:
  59:main.c        **** 
  60:main.c        ****     // write them to eeprom
  61:main.c        **** 	USER_INFO_Write(r_buf, R, R_LEN);
 145              		.loc 2 61 0
 146 003e 0C4C     		ldr	r4, .L8
 147 0040 211D     		adds	r1, r4, #4
 148 0042 2022     		movs	r2, #32
 149 0044 11A8     		add	r0, sp, #68
 150 0046 FFF7FEFF 		bl	USER_INFO_Write
 151              	.LVL12:
  62:main.c        **** 	USER_INFO_Write(rand_key_buf, RAND_KEY, RAND_KEY_LEN);
 152              		.loc 2 62 0
 153 004a 2100     		movs	r1, r4
 154 004c 2431     		adds	r1, r1, #36
 155 004e 2022     		movs	r2, #32
 156 0050 09A8     		add	r0, sp, #36
 157 0052 FFF7FEFF 		bl	USER_INFO_Write
 158              	.LVL13:
  63:main.c        **** 	USER_INFO_Write(uuid_buf, UUID, UUID_LEN);
 159              		.loc 2 63 0
ARM GAS  C:\Users\CCPOW_~1\AppData\Local\Temp\cclw922a.s 			page 6


 160 0056 2100     		movs	r1, r4
 161 0058 4431     		adds	r1, r1, #68
 162 005a 2422     		movs	r2, #36
 163 005c 6846     		mov	r0, sp
 164 005e FFF7FEFF 		bl	USER_INFO_Write
 165              	.LVL14:
  64:main.c        **** 
  65:main.c        **** 	pushMessage(&ACCEPTED, 1);
 166              		.loc 2 65 0
 167 0062 2000     		movs	r0, r4
 168 0064 6830     		adds	r0, r0, #104
 169 0066 0121     		movs	r1, #1
 170 0068 FFF7FEFF 		bl	pushMessage
 171              	.LVL15:
 172              	.L5:
  66:main.c        **** }
 173              		.loc 2 66 0
 174 006c 1AB0     		add	sp, sp, #104
 175              		@ sp needed
 176 006e 10BD     		pop	{r4, pc}
 177              	.L9:
 178              		.align	2
 179              	.L8:
 180 0070 00000000 		.word	.LANCHOR0
 181              		.cfi_endproc
 182              	.LFE36:
 183              		.size	provision, .-provision
 184              		.section	.text.generate_keys,"ax",%progbits
 185              		.align	2
 186              		.global	generate_keys
 187              		.code	16
 188              		.thumb_func
 189              		.type	generate_keys, %function
 190              	generate_keys:
 191              	.LFB37:
  67:main.c        **** 
  68:main.c        **** // Compute H_{r}(pin), use it as a seed for deriving a keypair, and output the keys to kp
  69:main.c        **** void generate_keys(uint8 pin[], hydro_sign_keypair *kp) 
  70:main.c        **** {
 192              		.loc 2 70 0
 193              		.cfi_startproc
 194              		@ args = 0, pretend = 0, frame = 120
 195              		@ frame_needed = 0, uses_anonymous_args = 0
 196              	.LVL16:
 197 0000 70B5     		push	{r4, r5, r6, lr}
 198              		.cfi_def_cfa_offset 16
 199              		.cfi_offset 4, -16
 200              		.cfi_offset 5, -12
 201              		.cfi_offset 6, -8
 202              		.cfi_offset 14, -4
 203 0002 9EB0     		sub	sp, sp, #120
 204              		.cfi_def_cfa_offset 136
 205 0004 0600     		movs	r6, r0
 206 0006 0D00     		movs	r5, r1
  71:main.c        ****     hydro_hash_state state;                
  72:main.c        ****     uint8 seed[SEED_LEN];
  73:main.c        ****     
ARM GAS  C:\Users\CCPOW_~1\AppData\Local\Temp\cclw922a.s 			page 7


  74:main.c        ****     // Read R from eeprom
  75:main.c        ****     uint8 r_buf[R_LEN];
  76:main.c        ****     eeprom_copy(r_buf, (const volatile uint8*)R, R_LEN);
 207              		.loc 2 76 0
 208 0008 0D4C     		ldr	r4, .L11
 209 000a 211D     		adds	r1, r4, #4
 210              	.LVL17:
 211 000c 2022     		movs	r2, #32
 212 000e 01A8     		add	r0, sp, #4
 213              	.LVL18:
 214 0010 FFF7FEFF 		bl	eeprom_copy
 215              	.LVL19:
  77:main.c        ****     
  78:main.c        ****     hydro_hash_init(&state, CONTEXT, r_buf);
 216              		.loc 2 78 0
 217 0014 2100     		movs	r1, r4
 218 0016 6C31     		adds	r1, r1, #108
 219 0018 01AA     		add	r2, sp, #4
 220 001a 11A8     		add	r0, sp, #68
 221 001c FFF7FEFF 		bl	hydro_hash_init
 222              	.LVL20:
  79:main.c        ****     hydro_hash_update(&state, pin, PIN_LEN);
 223              		.loc 2 79 0
 224 0020 0822     		movs	r2, #8
 225 0022 3100     		movs	r1, r6
 226 0024 11A8     		add	r0, sp, #68
 227 0026 FFF7FEFF 		bl	hydro_hash_update
 228              	.LVL21:
  80:main.c        ****     hydro_hash_final(&state, seed, SEED_LEN);
 229              		.loc 2 80 0
 230 002a 2022     		movs	r2, #32
 231 002c 09A9     		add	r1, sp, #36
 232 002e 11A8     		add	r0, sp, #68
 233 0030 FFF7FEFF 		bl	hydro_hash_final
 234              	.LVL22:
  81:main.c        ****                 
  82:main.c        ****     // Get the public and the secret key from the seed
  83:main.c        ****     hydro_sign_keygen_deterministic(kp, seed);
 235              		.loc 2 83 0
 236 0034 09A9     		add	r1, sp, #36
 237 0036 2800     		movs	r0, r5
 238 0038 FFF7FEFF 		bl	hydro_sign_keygen_deterministic
 239              	.LVL23:
  84:main.c        **** }
 240              		.loc 2 84 0
 241 003c 1EB0     		add	sp, sp, #120
 242              		@ sp needed
 243              	.LVL24:
 244              	.LVL25:
 245 003e 70BD     		pop	{r4, r5, r6, pc}
 246              	.L12:
 247              		.align	2
 248              	.L11:
 249 0040 00000000 		.word	.LANCHOR0
 250              		.cfi_endproc
 251              	.LFE37:
 252              		.size	generate_keys, .-generate_keys
ARM GAS  C:\Users\CCPOW_~1\AppData\Local\Temp\cclw922a.s 			page 8


 253              		.section	.text.main,"ax",%progbits
 254              		.align	2
 255              		.global	main
 256              		.code	16
 257              		.thumb_func
 258              		.type	main, %function
 259              	main:
 260              	.LFB38:
  85:main.c        **** 
  86:main.c        **** int main(void)
  87:main.c        **** {
 261              		.loc 2 87 0
 262              		.cfi_startproc
 263              		@ args = 0, pretend = 0, frame = 208
 264              		@ frame_needed = 0, uses_anonymous_args = 0
 265 0000 10B5     		push	{r4, lr}
 266              		.cfi_def_cfa_offset 8
 267              		.cfi_offset 4, -8
 268              		.cfi_offset 14, -4
 269 0002 B6B0     		sub	sp, sp, #216
 270              		.cfi_def_cfa_offset 224
  88:main.c        ****     // enable global interrupts -- DO NOT DELETE
  89:main.c        ****     CyGlobalIntEnable;
 271              		.loc 2 89 0
 272              		.syntax divided
 273              	@ 89 "main.c" 1
 274 0004 62B6     		CPSIE   i
 275              	@ 0 "" 2
  90:main.c        ****     
  91:main.c        ****     // start reset button
  92:main.c        ****     Reset_isr_StartEx(Reset_ISR);
 276              		.loc 2 92 0
 277              		.thumb
 278              		.syntax unified
 279 0006 3848     		ldr	r0, .L21
 280 0008 FFF7FEFF 		bl	Reset_isr_StartEx
 281              	.LVL26:
  93:main.c        ****     
  94:main.c        ****     /* Place your initialization/startup code here (e.g. MyInst_Start()) */
  95:main.c        ****     USER_INFO_Start();
 282              		.loc 2 95 0
 283 000c FFF7FEFF 		bl	USER_INFO_Start
 284              	.LVL27:
  96:main.c        ****     USB_UART_Start();
 285              		.loc 2 96 0
 286 0010 FFF7FEFF 		bl	USB_UART_Start
 287              	.LVL28:
  97:main.c        ****     
  98:main.c        ****     // Provision card if on first boot
  99:main.c        ****     if (*(volatile const uint8 *)PROVISIONED == 0x00) 
 288              		.loc 2 99 0
 289 0014 7423     		movs	r3, #116
 290 0016 354A     		ldr	r2, .L21+4
 291 0018 D35C     		ldrb	r3, [r2, r3]
 292 001a 002B     		cmp	r3, #0
 293 001c 0DD1     		bne	.L14
 100:main.c        ****     {
ARM GAS  C:\Users\CCPOW_~1\AppData\Local\Temp\cclw922a.s 			page 9


 101:main.c        ****         //handle initial connection sync
 102:main.c        ****         syncConnection(SYNC_PROV);
 294              		.loc 2 102 0
 295 001e 0120     		movs	r0, #1
 296 0020 FFF7FEFF 		bl	syncConnection
 297              	.LVL29:
 103:main.c        ****         provision();
 298              		.loc 2 103 0
 299 0024 FFF7FEFF 		bl	provision
 300              	.LVL30:
 104:main.c        ****         
 105:main.c        ****         // Mark as provisioned
 106:main.c        ****         USER_INFO_Write((uint8[]){0x01}, PROVISIONED, 1u);
 301              		.loc 2 106 0
 302 0028 35A8     		add	r0, sp, #212
 303 002a 0123     		movs	r3, #1
 304 002c 0370     		strb	r3, [r0]
 305 002e 0122     		movs	r2, #1
 306 0030 2E49     		ldr	r1, .L21+4
 307 0032 7431     		adds	r1, r1, #116
 308 0034 FFF7FEFF 		bl	USER_INFO_Write
 309              	.LVL31:
 310 0038 02E0     		b	.L20
 311              	.L14:
 107:main.c        ****     }
 108:main.c        ****     else 
 109:main.c        ****     {
 110:main.c        ****         //Handle initial connection sync
 111:main.c        ****         syncConnection(SYNC_NORM);
 312              		.loc 2 111 0
 313 003a 0020     		movs	r0, #0
 314 003c FFF7FEFF 		bl	syncConnection
 315              	.LVL32:
 316              	.L20:
 317              	.LBB3:
 112:main.c        ****     }
 113:main.c        ****     
 114:main.c        ****     // Go into infinite loop
 115:main.c        ****     while (1) {
 116:main.c        ****         uint8 message_type;
 117:main.c        ****                 
 118:main.c        ****         syncConnection(SYNC_NORM);
 318              		.loc 2 118 0
 319 0040 0020     		movs	r0, #0
 320 0042 FFF7FEFF 		bl	syncConnection
 321              	.LVL33:
 119:main.c        ****         
 120:main.c        ****         //get message type
 121:main.c        ****         pullMessage(&message_type, 1);
 322              		.loc 2 121 0
 323 0046 0B24     		movs	r4, #11
 324 0048 6C44     		add	r4, r4, sp
 325 004a 0121     		movs	r1, #1
 326 004c 2000     		movs	r0, r4
 327 004e FFF7FEFF 		bl	pullMessage
 328              	.LVL34:
 122:main.c        **** 	    
ARM GAS  C:\Users\CCPOW_~1\AppData\Local\Temp\cclw922a.s 			page 10


 123:main.c        **** 	    switch(message_type)
 329              		.loc 2 123 0
 330 0052 2378     		ldrb	r3, [r4]
 331 0054 022B     		cmp	r3, #2
 332 0056 14D0     		beq	.L17
 333 0058 0C2B     		cmp	r3, #12
 334 005a 32D0     		beq	.L18
 335 005c 002B     		cmp	r3, #0
 336 005e EFD1     		bne	.L20
 337              	.LBB4:
 124:main.c        **** 	    {
 125:main.c        **** 	        case REQUEST_NAME:
 126:main.c        ****             {
 127:main.c        ****                 // Read uuid from eeprom
 128:main.c        ****                 uint8 uuid_buf[UUID_LEN];
 129:main.c        ****                 eeprom_copy(uuid_buf, (const volatile uint8*)UUID, UUID_LEN);
 338              		.loc 2 129 0
 339 0060 224C     		ldr	r4, .L21+4
 340 0062 2100     		movs	r1, r4
 341 0064 4431     		adds	r1, r1, #68
 342 0066 2422     		movs	r2, #36
 343 0068 1DA8     		add	r0, sp, #116
 344 006a FFF7FEFF 		bl	eeprom_copy
 345              	.LVL35:
 130:main.c        ****                 
 131:main.c        ****                 pushMessage(&RETURN_NAME, 1);
 346              		.loc 2 131 0
 347 006e 2000     		movs	r0, r4
 348 0070 7530     		adds	r0, r0, #117
 349 0072 0121     		movs	r1, #1
 350 0074 FFF7FEFF 		bl	pushMessage
 351              	.LVL36:
 132:main.c        **** 		        pushMessage(uuid_buf, UUID_LEN);
 352              		.loc 2 132 0
 353 0078 2421     		movs	r1, #36
 354 007a 1DA8     		add	r0, sp, #116
 355 007c FFF7FEFF 		bl	pushMessage
 356              	.LVL37:
 357 0080 DEE7     		b	.L20
 358              	.L17:
 359              	.LBE4:
 360              	.LBB5:
 133:main.c        **** 		        break;
 134:main.c        ****             }
 135:main.c        **** 	        case REQUEST_CARD_SIGNATURE:
 136:main.c        ****             {
 137:main.c        ****                 hydro_sign_keypair kp;
 138:main.c        ****                 uint8 signature[SIG_LEN];
 139:main.c        **** 		        uint8 nonce[NONCE_LEN];
 140:main.c        **** 		        uint8 pin[PIN_LEN];
 141:main.c        ****                 
 142:main.c        ****                 pullMessage(nonce, NONCE_LEN);
 361              		.loc 2 142 0
 362 0082 2021     		movs	r1, #32
 363 0084 05A8     		add	r0, sp, #20
 364 0086 FFF7FEFF 		bl	pullMessage
 365              	.LVL38:
ARM GAS  C:\Users\CCPOW_~1\AppData\Local\Temp\cclw922a.s 			page 11


 143:main.c        ****                 pullMessage(pin, PIN_LEN);
 366              		.loc 2 143 0
 367 008a 0821     		movs	r1, #8
 368 008c 03A8     		add	r0, sp, #12
 369 008e FFF7FEFF 		bl	pullMessage
 370              	.LVL39:
 144:main.c        **** 
 145:main.c        ****                 generate_keys(pin, &kp);
 371              		.loc 2 145 0
 372 0092 1DA9     		add	r1, sp, #116
 373 0094 03A8     		add	r0, sp, #12
 374 0096 FFF7FEFF 		bl	generate_keys
 375              	.LVL40:
 146:main.c        ****         		hydro_sign_create(signature, nonce, NONCE_LEN, CONTEXT, kp.sk);
 376              		.loc 2 146 0
 377 009a 144C     		ldr	r4, .L21+4
 378 009c 2300     		movs	r3, r4
 379 009e 6C33     		adds	r3, r3, #108
 380 00a0 25AA     		add	r2, sp, #148
 381 00a2 0092     		str	r2, [sp]
 382 00a4 2022     		movs	r2, #32
 383 00a6 05A9     		add	r1, sp, #20
 384 00a8 0DA8     		add	r0, sp, #52
 385 00aa FFF7FEFF 		bl	hydro_sign_create
 386              	.LVL41:
 147:main.c        **** 
 148:main.c        ****                 pushMessage(&RETURN_CARD_SIGNATURE, 1);
 387              		.loc 2 148 0
 388 00ae 2000     		movs	r0, r4
 389 00b0 7630     		adds	r0, r0, #118
 390 00b2 0121     		movs	r1, #1
 391 00b4 FFF7FEFF 		bl	pushMessage
 392              	.LVL42:
 149:main.c        ****                 pushMessage(signature, SIG_LEN);
 393              		.loc 2 149 0
 394 00b8 4021     		movs	r1, #64
 395 00ba 0DA8     		add	r0, sp, #52
 396 00bc FFF7FEFF 		bl	pushMessage
 397              	.LVL43:
 398 00c0 BEE7     		b	.L20
 399              	.L18:
 400              	.LBE5:
 401              	.LBB6:
 150:main.c        ****         		break;
 151:main.c        ****             }
 152:main.c        **** 
 153:main.c        ****     	    case REQUEST_NEW_PK:
 154:main.c        ****             {
 155:main.c        ****                 hydro_sign_keypair kp;
 156:main.c        **** 		        uint8 pin[PIN_LEN];
 157:main.c        ****                 
 158:main.c        ****                 pullMessage(pin, PIN_LEN);
 402              		.loc 2 158 0
 403 00c2 0821     		movs	r1, #8
 404 00c4 0DA8     		add	r0, sp, #52
 405 00c6 FFF7FEFF 		bl	pullMessage
 406              	.LVL44:
ARM GAS  C:\Users\CCPOW_~1\AppData\Local\Temp\cclw922a.s 			page 12


 159:main.c        ****                 
 160:main.c        ****                 generate_keys(pin, &kp);
 407              		.loc 2 160 0
 408 00ca 1DA9     		add	r1, sp, #116
 409 00cc 0DA8     		add	r0, sp, #52
 410 00ce FFF7FEFF 		bl	generate_keys
 411              	.LVL45:
 161:main.c        ****                 
 162:main.c        ****                 pushMessage(&RETURN_NEW_PK, 1);
 412              		.loc 2 162 0
 413 00d2 0121     		movs	r1, #1
 414 00d4 0548     		ldr	r0, .L21+4
 415 00d6 7730     		adds	r0, r0, #119
 416 00d8 FFF7FEFF 		bl	pushMessage
 417              	.LVL46:
 163:main.c        ****                 pushMessage(kp.pk, PK_LEN);
 418              		.loc 2 163 0
 419 00dc 2021     		movs	r1, #32
 420 00de 1DA8     		add	r0, sp, #116
 421 00e0 FFF7FEFF 		bl	pushMessage
 422              	.LVL47:
 423              	.LBE6:
 424              	.LBE3:
 164:main.c        ****         		break;
 165:main.c        ****             }
 166:main.c        **** 
 167:main.c        ****     	    default:
 168:main.c        ****     	        break;
 169:main.c        ****         }
 170:main.c        **** 	}	
 425              		.loc 2 170 0
 426 00e4 ACE7     		b	.L20
 427              	.L22:
 428 00e6 C046     		.align	2
 429              	.L21:
 430 00e8 00000000 		.word	Reset_ISR
 431 00ec 00000000 		.word	.LANCHOR0
 432              		.cfi_endproc
 433              	.LFE38:
 434              		.size	main, .-main
 435              		.section	.rodata
 436              		.align	2
 437              		.set	.LANCHOR0,. + 0
 438              		.type	REJECTED, %object
 439              		.size	REJECTED, 1
 440              	REJECTED:
 441 0000 21       		.byte	33
 442 0001 000000   		.space	3
 443              		.type	R, %object
 444              		.size	R, 32
 445              	R:
 446 0004 00000000 		.space	32
 446      00000000 
 446      00000000 
 446      00000000 
 446      00000000 
 447              		.type	RAND_KEY, %object
ARM GAS  C:\Users\CCPOW_~1\AppData\Local\Temp\cclw922a.s 			page 13


 448              		.size	RAND_KEY, 32
 449              	RAND_KEY:
 450 0024 00000000 		.space	32
 450      00000000 
 450      00000000 
 450      00000000 
 450      00000000 
 451              		.type	UUID, %object
 452              		.size	UUID, 36
 453              	UUID:
 454 0044 00000000 		.space	36
 454      00000000 
 454      00000000 
 454      00000000 
 454      00000000 
 455              		.type	ACCEPTED, %object
 456              		.size	ACCEPTED, 1
 457              	ACCEPTED:
 458 0068 20       		.byte	32
 459 0069 000000   		.space	3
 460              		.type	CONTEXT, %object
 461              		.size	CONTEXT, 8
 462              	CONTEXT:
 463 006c 00000000 		.space	8
 463      00000000 
 464              		.type	PROVISIONED, %object
 465              		.size	PROVISIONED, 1
 466              	PROVISIONED:
 467 0074 00       		.space	1
 468              		.type	RETURN_NAME, %object
 469              		.size	RETURN_NAME, 1
 470              	RETURN_NAME:
 471 0075 01       		.byte	1
 472              		.type	RETURN_CARD_SIGNATURE, %object
 473              		.size	RETURN_CARD_SIGNATURE, 1
 474              	RETURN_CARD_SIGNATURE:
 475 0076 03       		.byte	3
 476              		.type	RETURN_NEW_PK, %object
 477              		.size	RETURN_NEW_PK, 1
 478              	RETURN_NEW_PK:
 479 0077 0D       		.byte	13
 480              		.text
 481              	.Letext0:
 482              		.file 3 "d:\\programs\\psoccreator\\psoc creator\\4.1\\psoc creator\\import\\gnu\\arm\\5.4.1\\arm-
 483              		.file 4 "d:\\programs\\psoccreator\\psoc creator\\4.1\\psoc creator\\import\\gnu\\arm\\5.4.1\\arm-
 484              		.file 5 "Generated_Source\\PSoC4/cytypes.h"
 485              		.file 6 "..\\libhydrogen.cylib\\libhydrogen/hydrogen.h"
 486              		.file 7 "Generated_Source\\PSoC4/SW1.h"
 487              		.file 8 "Generated_Source\\PSoC4/CyLib.h"
 488              		.file 9 "usbserialprotocol.h"
 489              		.file 10 "Generated_Source\\PSoC4/USER_INFO.h"
 490              		.file 11 "Generated_Source\\PSoC4/Reset_isr.h"
 491              		.file 12 "Generated_Source\\PSoC4/USB_UART.h"