ARM GAS  C:\Users\CCPOW_~1\AppData\Local\Temp\ccklcHTX.s 			page 1


   1              		.syntax unified
   2              		.cpu cortex-m0
   3              		.fpu softvfp
   4              		.eabi_attribute 20, 1
   5              		.eabi_attribute 21, 1
   6              		.eabi_attribute 23, 3
   7              		.eabi_attribute 24, 1
   8              		.eabi_attribute 25, 1
   9              		.eabi_attribute 26, 1
  10              		.eabi_attribute 30, 1
  11              		.eabi_attribute 34, 0
  12              		.eabi_attribute 18, 4
  13              		.thumb
  14              		.syntax unified
  15              		.file	"usbserialprotocol.c"
  16              		.text
  17              	.Ltext0:
  18              		.cfi_sections	.debug_frame
  19              		.section	.text.getValidByte,"ax",%progbits
  20              		.align	2
  21              		.global	getValidByte
  22              		.code	16
  23              		.thumb_func
  24              		.type	getValidByte, %function
  25              	getValidByte:
  26              	.LFB35:
  27              		.file 1 "usbserialprotocol.c"
   1:usbserialprotocol.c **** /* ========================================
   2:usbserialprotocol.c ****  *
   3:usbserialprotocol.c ****  * Copyright YOUR COMPANY, THE YEAR
   4:usbserialprotocol.c ****  * All Rights Reserved
   5:usbserialprotocol.c ****  * UNPUBLISHED, LICENSED SOFTWARE.
   6:usbserialprotocol.c ****  *
   7:usbserialprotocol.c ****  * CONFIDENTIAL AND PROPRIETARY INFORMATION
   8:usbserialprotocol.c ****  * WHICH IS THE PROPERTY OF your company.
   9:usbserialprotocol.c ****  *
  10:usbserialprotocol.c ****  * ========================================
  11:usbserialprotocol.c **** */
  12:usbserialprotocol.c **** 
  13:usbserialprotocol.c **** #include "usbserialprotocol.h"
  14:usbserialprotocol.c **** #include "common.h"
  15:usbserialprotocol.c **** 
  16:usbserialprotocol.c **** uint8 getValidByte()
  17:usbserialprotocol.c **** {
  28              		.loc 1 17 0
  29              		.cfi_startproc
  30              		@ args = 0, pretend = 0, frame = 0
  31              		@ frame_needed = 0, uses_anonymous_args = 0
  32 0000 10B5     		push	{r4, lr}
  33              		.cfi_def_cfa_offset 8
  34              		.cfi_offset 4, -8
  35              		.cfi_offset 14, -4
  36              	.L2:
  18:usbserialprotocol.c ****     uint8 retval = 0u;
  19:usbserialprotocol.c ****     while(USB_UART_SpiUartGetRxBufferSize() < 1); // wait for byte
  37              		.loc 1 19 0 discriminator 1
  38 0002 FFF7FEFF 		bl	USB_UART_SpiUartGetRxBufferSize
ARM GAS  C:\Users\CCPOW_~1\AppData\Local\Temp\ccklcHTX.s 			page 2


  39              	.LVL0:
  40 0006 0028     		cmp	r0, #0
  41 0008 FBD0     		beq	.L2
  20:usbserialprotocol.c ****     retval = USB_UART_UartGetByte();
  42              		.loc 1 20 0
  43 000a FFF7FEFF 		bl	USB_UART_UartGetByte
  44              	.LVL1:
  45 000e C0B2     		uxtb	r0, r0
  46              	.LVL2:
  21:usbserialprotocol.c ****     return retval;
  22:usbserialprotocol.c **** }
  47              		.loc 1 22 0
  48              		@ sp needed
  49 0010 10BD     		pop	{r4, pc}
  50              		.cfi_endproc
  51              	.LFE35:
  52              		.size	getValidByte, .-getValidByte
  53 0012 C046     		.section	.text.pushMessage,"ax",%progbits
  54              		.align	2
  55              		.global	pushMessage
  56              		.code	16
  57              		.thumb_func
  58              		.type	pushMessage, %function
  59              	pushMessage:
  60              	.LFB36:
  23:usbserialprotocol.c **** 
  24:usbserialprotocol.c **** 
  25:usbserialprotocol.c **** void pushMessage(const uint8 data[], uint8 size)
  26:usbserialprotocol.c **** {
  61              		.loc 1 26 0
  62              		.cfi_startproc
  63              		@ args = 0, pretend = 0, frame = 0
  64              		@ frame_needed = 0, uses_anonymous_args = 0
  65              	.LVL3:
  66 0000 70B5     		push	{r4, r5, r6, lr}
  67              		.cfi_def_cfa_offset 16
  68              		.cfi_offset 4, -16
  69              		.cfi_offset 5, -12
  70              		.cfi_offset 6, -8
  71              		.cfi_offset 14, -4
  72 0002 0600     		movs	r6, r0
  73 0004 0D00     		movs	r5, r1
  74              	.LVL4:
  75              	.LBB2:
  27:usbserialprotocol.c ****     for (uint8 i = 0; i < size; i++) {
  76              		.loc 1 27 0
  77 0006 0024     		movs	r4, #0
  78 0008 04E0     		b	.L4
  79              	.LVL5:
  80              	.L5:
  28:usbserialprotocol.c ****         USB_UART_UartPutChar(data[i]);   
  81              		.loc 1 28 0 discriminator 3
  82 000a 305D     		ldrb	r0, [r6, r4]
  83 000c FFF7FEFF 		bl	USB_UART_SpiUartWriteTxData
  84              	.LVL6:
  27:usbserialprotocol.c ****     for (uint8 i = 0; i < size; i++) {
  85              		.loc 1 27 0 discriminator 3
ARM GAS  C:\Users\CCPOW_~1\AppData\Local\Temp\ccklcHTX.s 			page 3


  86 0010 0134     		adds	r4, r4, #1
  87              	.LVL7:
  88 0012 E4B2     		uxtb	r4, r4
  89              	.LVL8:
  90              	.L4:
  27:usbserialprotocol.c ****     for (uint8 i = 0; i < size; i++) {
  91              		.loc 1 27 0 is_stmt 0 discriminator 1
  92 0014 AC42     		cmp	r4, r5
  93 0016 F8D3     		bcc	.L5
  94              	.LBE2:
  29:usbserialprotocol.c ****     }
  30:usbserialprotocol.c **** }
  95              		.loc 1 30 0 is_stmt 1
  96              		@ sp needed
  97              	.LVL9:
  98              	.LVL10:
  99 0018 70BD     		pop	{r4, r5, r6, pc}
 100              		.cfi_endproc
 101              	.LFE36:
 102              		.size	pushMessage, .-pushMessage
 103 001a C046     		.section	.text.pullMessage,"ax",%progbits
 104              		.align	2
 105              		.global	pullMessage
 106              		.code	16
 107              		.thumb_func
 108              		.type	pullMessage, %function
 109              	pullMessage:
 110              	.LFB37:
  31:usbserialprotocol.c **** 
  32:usbserialprotocol.c **** void pullMessage(uint8 data[], uint8 length)
  33:usbserialprotocol.c **** {
 111              		.loc 1 33 0
 112              		.cfi_startproc
 113              		@ args = 0, pretend = 0, frame = 0
 114              		@ frame_needed = 0, uses_anonymous_args = 0
 115              	.LVL11:
 116 0000 F8B5     		push	{r3, r4, r5, r6, r7, lr}
 117              		.cfi_def_cfa_offset 24
 118              		.cfi_offset 3, -24
 119              		.cfi_offset 4, -20
 120              		.cfi_offset 5, -16
 121              		.cfi_offset 6, -12
 122              		.cfi_offset 7, -8
 123              		.cfi_offset 14, -4
 124 0002 0700     		movs	r7, r0
 125 0004 0E00     		movs	r6, r1
 126              	.LVL12:
 127              	.LBB3:
  34:usbserialprotocol.c ****     for (uint8 i = 0; i < length; i++) {
 128              		.loc 1 34 0
 129 0006 0024     		movs	r4, #0
 130 0008 05E0     		b	.L7
 131              	.LVL13:
 132              	.L8:
  35:usbserialprotocol.c ****         data[i] = getValidByte();   
 133              		.loc 1 35 0 discriminator 3
 134 000a 3D19     		adds	r5, r7, r4
ARM GAS  C:\Users\CCPOW_~1\AppData\Local\Temp\ccklcHTX.s 			page 4


 135 000c FFF7FEFF 		bl	getValidByte
 136              	.LVL14:
 137 0010 2870     		strb	r0, [r5]
  34:usbserialprotocol.c ****     for (uint8 i = 0; i < length; i++) {
 138              		.loc 1 34 0 discriminator 3
 139 0012 0134     		adds	r4, r4, #1
 140              	.LVL15:
 141 0014 E4B2     		uxtb	r4, r4
 142              	.LVL16:
 143              	.L7:
  34:usbserialprotocol.c ****     for (uint8 i = 0; i < length; i++) {
 144              		.loc 1 34 0 is_stmt 0 discriminator 1
 145 0016 B442     		cmp	r4, r6
 146 0018 F7D3     		bcc	.L8
 147              	.LBE3:
  36:usbserialprotocol.c ****     }
  37:usbserialprotocol.c **** }
 148              		.loc 1 37 0 is_stmt 1
 149              		@ sp needed
 150              	.LVL17:
 151              	.LVL18:
 152 001a F8BD     		pop	{r3, r4, r5, r6, r7, pc}
 153              		.cfi_endproc
 154              	.LFE37:
 155              		.size	pullMessage, .-pullMessage
 156              		.section	.text.syncConnection,"ax",%progbits
 157              		.align	2
 158              		.global	syncConnection
 159              		.code	16
 160              		.thumb_func
 161              		.type	syncConnection, %function
 162              	syncConnection:
 163              	.LFB38:
  38:usbserialprotocol.c **** 
  39:usbserialprotocol.c **** /* 
  40:usbserialprotocol.c ****  * synchronization protocol:
  41:usbserialprotocol.c ****  *
  42:usbserialprotocol.c ****  * 1) ATM -> "READY" -> PSoC
  43:usbserialprotocol.c ****  * 2) if bad:  PSoC -> received bad message -> ATM; goto 1)
  44:usbserialprotocol.c ****  *    if good: PSoC -> PSoC name (prov/norm) -> ATM
  45:usbserialprotocol.c ****  * 3) ATM -> "GO" -> PSoC
  46:usbserialprotocol.c ****  * 4) if bad: goto 1)
  47:usbserialprotocol.c ****  */
  48:usbserialprotocol.c **** void syncConnection(int prov) 
  49:usbserialprotocol.c **** {
 164              		.loc 1 49 0
 165              		.cfi_startproc
 166              		@ args = 0, pretend = 0, frame = 8
 167              		@ frame_needed = 0, uses_anonymous_args = 0
 168              	.LVL19:
 169 0000 10B5     		push	{r4, lr}
 170              		.cfi_def_cfa_offset 8
 171              		.cfi_offset 4, -8
 172              		.cfi_offset 14, -4
 173 0002 82B0     		sub	sp, sp, #8
 174              		.cfi_def_cfa_offset 16
 175 0004 0400     		movs	r4, r0
ARM GAS  C:\Users\CCPOW_~1\AppData\Local\Temp\ccklcHTX.s 			page 5


 176              	.LVL20:
 177              	.L16:
  50:usbserialprotocol.c ****     uint8 message[1];
  51:usbserialprotocol.c ****     
  52:usbserialprotocol.c ****     do {
  53:usbserialprotocol.c ****         pullMessage(message, (uint8)1);                              
 178              		.loc 1 53 0
 179 0006 0121     		movs	r1, #1
 180 0008 01A8     		add	r0, sp, #4
 181 000a FFF7FEFF 		bl	pullMessage
 182              	.LVL21:
  54:usbserialprotocol.c ****         if (prov) {
 183              		.loc 1 54 0
 184 000e 002C     		cmp	r4, #0
 185 0010 18D0     		beq	.L10
  55:usbserialprotocol.c ****             if (message[0] == SYNC_REQUEST_NO_PROV) {
 186              		.loc 1 55 0
 187 0012 01AB     		add	r3, sp, #4
 188 0014 1B78     		ldrb	r3, [r3]
 189 0016 162B     		cmp	r3, #22
 190 0018 04D1     		bne	.L11
  56:usbserialprotocol.c ****                 pushMessage(&SYNC_CONFIRMED_PROV, (uint8)1);
 191              		.loc 1 56 0
 192 001a 0121     		movs	r1, #1
 193 001c 1848     		ldr	r0, .L17
 194 001e FFF7FEFF 		bl	pushMessage
 195              	.LVL22:
 196 0022 26E0     		b	.L12
 197              	.L11:
  57:usbserialprotocol.c ****             }
  58:usbserialprotocol.c ****             else if (message[0] == SYNC_REQUEST_PROV) {
 198              		.loc 1 58 0
 199 0024 152B     		cmp	r3, #21
 200 0026 05D1     		bne	.L13
  59:usbserialprotocol.c ****                 pushMessage(&SYNC_CONFIRMED_NO_PROV, (uint8)1);
 201              		.loc 1 59 0
 202 0028 0121     		movs	r1, #1
 203 002a 1548     		ldr	r0, .L17
 204 002c 0130     		adds	r0, r0, #1
 205 002e FFF7FEFF 		bl	pushMessage
 206              	.LVL23:
 207 0032 1EE0     		b	.L12
 208              	.L13:
  60:usbserialprotocol.c ****             }
  61:usbserialprotocol.c ****             else if (message[0] == PSOC_DEVICE_REQUEST) {
 209              		.loc 1 61 0
 210 0034 1E2B     		cmp	r3, #30
 211 0036 1CD1     		bne	.L12
  62:usbserialprotocol.c ****                 pushMessage(&SYNC_TYPE_CARD_P, (uint8)1);
 212              		.loc 1 62 0
 213 0038 0121     		movs	r1, #1
 214 003a 1148     		ldr	r0, .L17
 215 003c 0230     		adds	r0, r0, #2
 216 003e FFF7FEFF 		bl	pushMessage
 217              	.LVL24:
 218 0042 16E0     		b	.L12
 219              	.L10:
ARM GAS  C:\Users\CCPOW_~1\AppData\Local\Temp\ccklcHTX.s 			page 6


  63:usbserialprotocol.c ****             }
  64:usbserialprotocol.c ****         }
  65:usbserialprotocol.c ****         else {
  66:usbserialprotocol.c ****             if (message[0] == SYNC_REQUEST_PROV) {
 220              		.loc 1 66 0
 221 0044 01AB     		add	r3, sp, #4
 222 0046 1B78     		ldrb	r3, [r3]
 223 0048 152B     		cmp	r3, #21
 224 004a 04D1     		bne	.L14
  67:usbserialprotocol.c ****                 pushMessage(&SYNC_CONFIRMED_PROV, (uint8)1);
 225              		.loc 1 67 0
 226 004c 0121     		movs	r1, #1
 227 004e 0C48     		ldr	r0, .L17
 228 0050 FFF7FEFF 		bl	pushMessage
 229              	.LVL25:
 230 0054 0DE0     		b	.L12
 231              	.L14:
  68:usbserialprotocol.c ****             }
  69:usbserialprotocol.c ****             else if (message[0] == SYNC_REQUEST_NO_PROV) {
 232              		.loc 1 69 0
 233 0056 162B     		cmp	r3, #22
 234 0058 04D1     		bne	.L15
  70:usbserialprotocol.c ****                 pushMessage(&SYNC_CONFIRMED_PROV, (uint8)1);
 235              		.loc 1 70 0
 236 005a 0121     		movs	r1, #1
 237 005c 0848     		ldr	r0, .L17
 238 005e FFF7FEFF 		bl	pushMessage
 239              	.LVL26:
 240 0062 06E0     		b	.L12
 241              	.L15:
  71:usbserialprotocol.c ****             }
  72:usbserialprotocol.c ****             else if (message[0] == PSOC_DEVICE_REQUEST) {
 242              		.loc 1 72 0
 243 0064 1E2B     		cmp	r3, #30
 244 0066 04D1     		bne	.L12
  73:usbserialprotocol.c ****                 pushMessage(&SYNC_TYPE_CARD_N, (uint8)1);
 245              		.loc 1 73 0
 246 0068 0121     		movs	r1, #1
 247 006a 0548     		ldr	r0, .L17
 248 006c 0330     		adds	r0, r0, #3
 249 006e FFF7FEFF 		bl	pushMessage
 250              	.LVL27:
 251              	.L12:
  74:usbserialprotocol.c ****             }
  75:usbserialprotocol.c ****         }
  76:usbserialprotocol.c ****     }
  77:usbserialprotocol.c ****     while (message[0] != SYNCED);
 252              		.loc 1 77 0
 253 0072 01AB     		add	r3, sp, #4
 254 0074 1B78     		ldrb	r3, [r3]
 255 0076 1B2B     		cmp	r3, #27
 256 0078 C5D1     		bne	.L16
  78:usbserialprotocol.c ****     
  79:usbserialprotocol.c **** }
 257              		.loc 1 79 0
 258 007a 02B0     		add	sp, sp, #8
 259              		@ sp needed
ARM GAS  C:\Users\CCPOW_~1\AppData\Local\Temp\ccklcHTX.s 			page 7


 260              	.LVL28:
 261 007c 10BD     		pop	{r4, pc}
 262              	.L18:
 263 007e C046     		.align	2
 264              	.L17:
 265 0080 00000000 		.word	.LANCHOR0
 266              		.cfi_endproc
 267              	.LFE38:
 268              		.size	syncConnection, .-syncConnection
 269              		.section	.rodata
 270              		.set	.LANCHOR0,. + 0
 271              		.type	SYNC_CONFIRMED_PROV, %object
 272              		.size	SYNC_CONFIRMED_PROV, 1
 273              	SYNC_CONFIRMED_PROV:
 274 0000 17       		.byte	23
 275              		.type	SYNC_CONFIRMED_NO_PROV, %object
 276              		.size	SYNC_CONFIRMED_NO_PROV, 1
 277              	SYNC_CONFIRMED_NO_PROV:
 278 0001 18       		.byte	24
 279              		.type	SYNC_TYPE_CARD_P, %object
 280              		.size	SYNC_TYPE_CARD_P, 1
 281              	SYNC_TYPE_CARD_P:
 282 0002 3D       		.byte	61
 283              		.type	SYNC_TYPE_CARD_N, %object
 284              		.size	SYNC_TYPE_CARD_N, 1
 285              	SYNC_TYPE_CARD_N:
 286 0003 1D       		.byte	29
 287              		.text
 288              	.Letext0:
 289              		.file 2 "Generated_Source\\PSoC4/cytypes.h"
 290              		.file 3 "common.h"
 291              		.file 4 "Generated_Source\\PSoC4/USB_UART_SPI_UART.h"